
./ch14:     file format elf32-i386


Disassembly of section .init:

00000418 <_init>:
 418:	53                   	push   ebx
 419:	83 ec 08             	sub    esp,0x8
 41c:	e8 ef 00 00 00       	call   510 <__x86.get_pc_thunk.bx>
 421:	81 c3 df 1b 00 00    	add    ebx,0x1bdf
 427:	8b 83 f4 ff ff ff    	mov    eax,DWORD PTR [ebx-0xc]
 42d:	85 c0                	test   eax,eax
 42f:	74 05                	je     436 <_init+0x1e>
 431:	e8 92 00 00 00       	call   4c8 <__gmon_start__@plt>
 436:	83 c4 08             	add    esp,0x8
 439:	5b                   	pop    ebx
 43a:	c3                   	ret    

Disassembly of section .plt:

00000440 <.plt>:
 440:	ff b3 04 00 00 00    	push   DWORD PTR [ebx+0x4]
 446:	ff a3 08 00 00 00    	jmp    DWORD PTR [ebx+0x8]
 44c:	00 00                	add    BYTE PTR [eax],al
	...

00000450 <printf@plt>:
 450:	ff a3 0c 00 00 00    	jmp    DWORD PTR [ebx+0xc]
 456:	68 00 00 00 00       	push   0x0
 45b:	e9 e0 ff ff ff       	jmp    440 <.plt>

00000460 <puts@plt>:
 460:	ff a3 10 00 00 00    	jmp    DWORD PTR [ebx+0x10]
 466:	68 08 00 00 00       	push   0x8
 46b:	e9 d0 ff ff ff       	jmp    440 <.plt>

00000470 <system@plt>:
 470:	ff a3 14 00 00 00    	jmp    DWORD PTR [ebx+0x14]
 476:	68 10 00 00 00       	push   0x10
 47b:	e9 c0 ff ff ff       	jmp    440 <.plt>

00000480 <exit@plt>:
 480:	ff a3 18 00 00 00    	jmp    DWORD PTR [ebx+0x18]
 486:	68 18 00 00 00       	push   0x18
 48b:	e9 b0 ff ff ff       	jmp    440 <.plt>

00000490 <__libc_start_main@plt>:
 490:	ff a3 1c 00 00 00    	jmp    DWORD PTR [ebx+0x1c]
 496:	68 20 00 00 00       	push   0x20
 49b:	e9 a0 ff ff ff       	jmp    440 <.plt>

000004a0 <memset@plt>:
 4a0:	ff a3 20 00 00 00    	jmp    DWORD PTR [ebx+0x20]
 4a6:	68 28 00 00 00       	push   0x28
 4ab:	e9 90 ff ff ff       	jmp    440 <.plt>

000004b0 <snprintf@plt>:
 4b0:	ff a3 24 00 00 00    	jmp    DWORD PTR [ebx+0x24]
 4b6:	68 30 00 00 00       	push   0x30
 4bb:	e9 80 ff ff ff       	jmp    440 <.plt>

Disassembly of section .plt.got:

000004c0 <__cxa_finalize@plt>:
 4c0:	ff a3 f0 ff ff ff    	jmp    DWORD PTR [ebx-0x10]
 4c6:	66 90                	xchg   ax,ax

000004c8 <__gmon_start__@plt>:
 4c8:	ff a3 f4 ff ff ff    	jmp    DWORD PTR [ebx-0xc]
 4ce:	66 90                	xchg   ax,ax

Disassembly of section .text:

000004d0 <_start>:
 4d0:	31 ed                	xor    ebp,ebp
 4d2:	5e                   	pop    esi
 4d3:	89 e1                	mov    ecx,esp
 4d5:	83 e4 f0             	and    esp,0xfffffff0
 4d8:	50                   	push   eax
 4d9:	54                   	push   esp
 4da:	52                   	push   edx
 4db:	e8 22 00 00 00       	call   502 <_start+0x32>
 4e0:	81 c3 20 1b 00 00    	add    ebx,0x1b20
 4e6:	8d 83 b0 e7 ff ff    	lea    eax,[ebx-0x1850]
 4ec:	50                   	push   eax
 4ed:	8d 83 50 e7 ff ff    	lea    eax,[ebx-0x18b0]
 4f3:	50                   	push   eax
 4f4:	51                   	push   ecx
 4f5:	56                   	push   esi
 4f6:	ff b3 f8 ff ff ff    	push   DWORD PTR [ebx-0x8]
 4fc:	e8 8f ff ff ff       	call   490 <__libc_start_main@plt>
 501:	f4                   	hlt    
 502:	8b 1c 24             	mov    ebx,DWORD PTR [esp]
 505:	c3                   	ret    
 506:	66 90                	xchg   ax,ax
 508:	66 90                	xchg   ax,ax
 50a:	66 90                	xchg   ax,ax
 50c:	66 90                	xchg   ax,ax
 50e:	66 90                	xchg   ax,ax

00000510 <__x86.get_pc_thunk.bx>:
 510:	8b 1c 24             	mov    ebx,DWORD PTR [esp]
 513:	c3                   	ret    
 514:	66 90                	xchg   ax,ax
 516:	66 90                	xchg   ax,ax
 518:	66 90                	xchg   ax,ax
 51a:	66 90                	xchg   ax,ax
 51c:	66 90                	xchg   ax,ax
 51e:	66 90                	xchg   ax,ax

00000520 <deregister_tm_clones>:
 520:	e8 e4 00 00 00       	call   609 <__x86.get_pc_thunk.dx>
 525:	81 c2 db 1a 00 00    	add    edx,0x1adb
 52b:	8d 8a 30 00 00 00    	lea    ecx,[edx+0x30]
 531:	8d 82 30 00 00 00    	lea    eax,[edx+0x30]
 537:	39 c8                	cmp    eax,ecx
 539:	74 1d                	je     558 <deregister_tm_clones+0x38>
 53b:	8b 82 ec ff ff ff    	mov    eax,DWORD PTR [edx-0x14]
 541:	85 c0                	test   eax,eax
 543:	74 13                	je     558 <deregister_tm_clones+0x38>
 545:	55                   	push   ebp
 546:	89 e5                	mov    ebp,esp
 548:	83 ec 14             	sub    esp,0x14
 54b:	51                   	push   ecx
 54c:	ff d0                	call   eax
 54e:	83 c4 10             	add    esp,0x10
 551:	c9                   	leave  
 552:	c3                   	ret    
 553:	90                   	nop
 554:	8d 74 26 00          	lea    esi,[esi+eiz*1+0x0]
 558:	f3 c3                	repz ret 
 55a:	8d b6 00 00 00 00    	lea    esi,[esi+0x0]

00000560 <register_tm_clones>:
 560:	e8 a4 00 00 00       	call   609 <__x86.get_pc_thunk.dx>
 565:	81 c2 9b 1a 00 00    	add    edx,0x1a9b
 56b:	55                   	push   ebp
 56c:	8d 8a 30 00 00 00    	lea    ecx,[edx+0x30]
 572:	8d 82 30 00 00 00    	lea    eax,[edx+0x30]
 578:	29 c8                	sub    eax,ecx
 57a:	89 e5                	mov    ebp,esp
 57c:	53                   	push   ebx
 57d:	c1 f8 02             	sar    eax,0x2
 580:	89 c3                	mov    ebx,eax
 582:	83 ec 04             	sub    esp,0x4
 585:	c1 eb 1f             	shr    ebx,0x1f
 588:	01 d8                	add    eax,ebx
 58a:	d1 f8                	sar    eax,1
 58c:	74 14                	je     5a2 <register_tm_clones+0x42>
 58e:	8b 92 fc ff ff ff    	mov    edx,DWORD PTR [edx-0x4]
 594:	85 d2                	test   edx,edx
 596:	74 0a                	je     5a2 <register_tm_clones+0x42>
 598:	83 ec 08             	sub    esp,0x8
 59b:	50                   	push   eax
 59c:	51                   	push   ecx
 59d:	ff d2                	call   edx
 59f:	83 c4 10             	add    esp,0x10
 5a2:	8b 5d fc             	mov    ebx,DWORD PTR [ebp-0x4]
 5a5:	c9                   	leave  
 5a6:	c3                   	ret    
 5a7:	89 f6                	mov    esi,esi
 5a9:	8d bc 27 00 00 00 00 	lea    edi,[edi+eiz*1+0x0]

000005b0 <__do_global_dtors_aux>:
 5b0:	55                   	push   ebp
 5b1:	89 e5                	mov    ebp,esp
 5b3:	53                   	push   ebx
 5b4:	e8 57 ff ff ff       	call   510 <__x86.get_pc_thunk.bx>
 5b9:	81 c3 47 1a 00 00    	add    ebx,0x1a47
 5bf:	83 ec 04             	sub    esp,0x4
 5c2:	80 bb 30 00 00 00 00 	cmp    BYTE PTR [ebx+0x30],0x0
 5c9:	75 27                	jne    5f2 <__do_global_dtors_aux+0x42>
 5cb:	8b 83 f0 ff ff ff    	mov    eax,DWORD PTR [ebx-0x10]
 5d1:	85 c0                	test   eax,eax
 5d3:	74 11                	je     5e6 <__do_global_dtors_aux+0x36>
 5d5:	83 ec 0c             	sub    esp,0xc
 5d8:	ff b3 2c 00 00 00    	push   DWORD PTR [ebx+0x2c]
 5de:	e8 dd fe ff ff       	call   4c0 <__cxa_finalize@plt>
 5e3:	83 c4 10             	add    esp,0x10
 5e6:	e8 35 ff ff ff       	call   520 <deregister_tm_clones>
 5eb:	c6 83 30 00 00 00 01 	mov    BYTE PTR [ebx+0x30],0x1
 5f2:	8b 5d fc             	mov    ebx,DWORD PTR [ebp-0x4]
 5f5:	c9                   	leave  
 5f6:	c3                   	ret    
 5f7:	89 f6                	mov    esi,esi
 5f9:	8d bc 27 00 00 00 00 	lea    edi,[edi+eiz*1+0x0]

00000600 <frame_dummy>:
 600:	55                   	push   ebp
 601:	89 e5                	mov    ebp,esp
 603:	5d                   	pop    ebp
 604:	e9 57 ff ff ff       	jmp    560 <register_tm_clones>

00000609 <__x86.get_pc_thunk.dx>:
 609:	8b 14 24             	mov    edx,DWORD PTR [esp]
 60c:	c3                   	ret    

0000060d <main>:
 60d:	8d 4c 24 04          	lea    ecx,[esp+0x4]
 611:	83 e4 f0             	and    esp,0xfffffff0
 614:	ff 71 fc             	push   DWORD PTR [ecx-0x4]
 617:	55                   	push   ebp
 618:	89 e5                	mov    ebp,esp
 61a:	56                   	push   esi
 61b:	53                   	push   ebx
 61c:	51                   	push   ecx
 61d:	81 ec 9c 00 00 00    	sub    esp,0x9c
 623:	e8 e8 fe ff ff       	call   510 <__x86.get_pc_thunk.bx>
 628:	81 c3 d8 19 00 00    	add    ebx,0x19d8
 62e:	89 ce                	mov    esi,ecx
 630:	c7 45 e4 01 02 03 04 	mov    DWORD PTR [ebp-0x1c],0x4030201
 637:	83 3e 01             	cmp    DWORD PTR [esi],0x1
 63a:	7f 0a                	jg     646 <main+0x39>
 63c:	83 ec 0c             	sub    esp,0xc
 63f:	6a 00                	push   0x0
 641:	e8 3a fe ff ff       	call   480 <exit@plt>
 646:	83 ec 04             	sub    esp,0x4
 649:	68 80 00 00 00       	push   0x80
 64e:	6a 00                	push   0x0
 650:	8d 85 64 ff ff ff    	lea    eax,[ebp-0x9c]
 656:	50                   	push   eax
 657:	e8 44 fe ff ff       	call   4a0 <memset@plt>
 65c:	83 c4 10             	add    esp,0x10
 65f:	83 ec 08             	sub    esp,0x8
 662:	8d 45 e4             	lea    eax,[ebp-0x1c]
 665:	50                   	push   eax
 666:	8d 83 d0 e7 ff ff    	lea    eax,[ebx-0x1830]
 66c:	50                   	push   eax
 66d:	e8 de fd ff ff       	call   450 <printf@plt>
 672:	83 c4 10             	add    esp,0x10
 675:	8b 46 04             	mov    eax,DWORD PTR [esi+0x4]
 678:	83 c0 04             	add    eax,0x4
 67b:	8b 00                	mov    eax,DWORD PTR [eax]
 67d:	83 ec 08             	sub    esp,0x8
 680:	50                   	push   eax
 681:	8d 83 df e7 ff ff    	lea    eax,[ebx-0x1821]
 687:	50                   	push   eax
 688:	e8 c3 fd ff ff       	call   450 <printf@plt>
 68d:	83 c4 10             	add    esp,0x10
 690:	8b 46 04             	mov    eax,DWORD PTR [esi+0x4]
 693:	83 c0 04             	add    eax,0x4
 696:	8b 00                	mov    eax,DWORD PTR [eax]
 698:	83 ec 04             	sub    esp,0x4
 69b:	50                   	push   eax
 69c:	68 80 00 00 00       	push   0x80
 6a1:	8d 85 64 ff ff ff    	lea    eax,[ebp-0x9c]
 6a7:	50                   	push   eax
 6a8:	e8 03 fe ff ff       	call   4b0 <snprintf@plt>
 6ad:	83 c4 10             	add    esp,0x10
 6b0:	8b 45 e4             	mov    eax,DWORD PTR [ebp-0x1c]
 6b3:	3d 01 02 03 04       	cmp    eax,0x4030201
 6b8:	74 1c                	je     6d6 <main+0xc9>
 6ba:	8b 45 e4             	mov    eax,DWORD PTR [ebp-0x1c]
 6bd:	3d ef be ad de       	cmp    eax,0xdeadbeef
 6c2:	74 12                	je     6d6 <main+0xc9>
 6c4:	83 ec 0c             	sub    esp,0xc
 6c7:	8d 83 ef e7 ff ff    	lea    eax,[ebx-0x1811]
 6cd:	50                   	push   eax
 6ce:	e8 8d fd ff ff       	call   460 <puts@plt>
 6d3:	83 c4 10             	add    esp,0x10
 6d6:	83 ec 08             	sub    esp,0x8
 6d9:	8d 85 64 ff ff ff    	lea    eax,[ebp-0x9c]
 6df:	50                   	push   eax
 6e0:	8d 83 0b e8 ff ff    	lea    eax,[ebx-0x17f5]
 6e6:	50                   	push   eax
 6e7:	e8 64 fd ff ff       	call   450 <printf@plt>
 6ec:	83 c4 10             	add    esp,0x10
 6ef:	8b 45 e4             	mov    eax,DWORD PTR [ebp-0x1c]
 6f2:	83 ec 08             	sub    esp,0x8
 6f5:	50                   	push   eax
 6f6:	8d 83 15 e8 ff ff    	lea    eax,[ebx-0x17eb]
 6fc:	50                   	push   eax
 6fd:	e8 4e fd ff ff       	call   450 <printf@plt>
 702:	83 c4 10             	add    esp,0x10
 705:	8b 45 e4             	mov    eax,DWORD PTR [ebp-0x1c]
 708:	3d ef be ad de       	cmp    eax,0xdeadbeef
 70d:	75 24                	jne    733 <main+0x126>
 70f:	83 ec 0c             	sub    esp,0xc
 712:	8d 83 21 e8 ff ff    	lea    eax,[ebx-0x17df]
 718:	50                   	push   eax
 719:	e8 42 fd ff ff       	call   460 <puts@plt>
 71e:	83 c4 10             	add    esp,0x10
 721:	83 ec 0c             	sub    esp,0xc
 724:	8d 83 37 e8 ff ff    	lea    eax,[ebx-0x17c9]
 72a:	50                   	push   eax
 72b:	e8 40 fd ff ff       	call   470 <system@plt>
 730:	83 c4 10             	add    esp,0x10
 733:	b8 00 00 00 00       	mov    eax,0x0
 738:	8d 65 f4             	lea    esp,[ebp-0xc]
 73b:	59                   	pop    ecx
 73c:	5b                   	pop    ebx
 73d:	5e                   	pop    esi
 73e:	5d                   	pop    ebp
 73f:	8d 61 fc             	lea    esp,[ecx-0x4]
 742:	c3                   	ret    
 743:	66 90                	xchg   ax,ax
 745:	66 90                	xchg   ax,ax
 747:	66 90                	xchg   ax,ax
 749:	66 90                	xchg   ax,ax
 74b:	66 90                	xchg   ax,ax
 74d:	66 90                	xchg   ax,ax
 74f:	90                   	nop

00000750 <__libc_csu_init>:
 750:	55                   	push   ebp
 751:	57                   	push   edi
 752:	56                   	push   esi
 753:	53                   	push   ebx
 754:	e8 b7 fd ff ff       	call   510 <__x86.get_pc_thunk.bx>
 759:	81 c3 a7 18 00 00    	add    ebx,0x18a7
 75f:	83 ec 0c             	sub    esp,0xc
 762:	8b 6c 24 20          	mov    ebp,DWORD PTR [esp+0x20]
 766:	8d b3 f8 fe ff ff    	lea    esi,[ebx-0x108]
 76c:	e8 a7 fc ff ff       	call   418 <_init>
 771:	8d 83 f4 fe ff ff    	lea    eax,[ebx-0x10c]
 777:	29 c6                	sub    esi,eax
 779:	c1 fe 02             	sar    esi,0x2
 77c:	85 f6                	test   esi,esi
 77e:	74 25                	je     7a5 <__libc_csu_init+0x55>
 780:	31 ff                	xor    edi,edi
 782:	8d b6 00 00 00 00    	lea    esi,[esi+0x0]
 788:	83 ec 04             	sub    esp,0x4
 78b:	ff 74 24 2c          	push   DWORD PTR [esp+0x2c]
 78f:	ff 74 24 2c          	push   DWORD PTR [esp+0x2c]
 793:	55                   	push   ebp
 794:	ff 94 bb f4 fe ff ff 	call   DWORD PTR [ebx+edi*4-0x10c]
 79b:	83 c7 01             	add    edi,0x1
 79e:	83 c4 10             	add    esp,0x10
 7a1:	39 fe                	cmp    esi,edi
 7a3:	75 e3                	jne    788 <__libc_csu_init+0x38>
 7a5:	83 c4 0c             	add    esp,0xc
 7a8:	5b                   	pop    ebx
 7a9:	5e                   	pop    esi
 7aa:	5f                   	pop    edi
 7ab:	5d                   	pop    ebp
 7ac:	c3                   	ret    
 7ad:	8d 76 00             	lea    esi,[esi+0x0]

000007b0 <__libc_csu_fini>:
 7b0:	f3 c3                	repz ret 

Disassembly of section .fini:

000007b4 <_fini>:
 7b4:	53                   	push   ebx
 7b5:	83 ec 08             	sub    esp,0x8
 7b8:	e8 53 fd ff ff       	call   510 <__x86.get_pc_thunk.bx>
 7bd:	81 c3 43 18 00 00    	add    ebx,0x1843
 7c3:	83 c4 08             	add    esp,0x8
 7c6:	5b                   	pop    ebx
 7c7:	c3                   	ret    
