Trying to open 'C:\Program Files\R\R-3.4.4\bin\i386\Rblas.dll'..
Loading PE information..
FileFormat: PE, Arch: x86

Wait a few seconds, rp++ is looking for gadgets (2 threads max)..
A total of 5172 gadgets found.
0x6e3814d5: aaa ; pushad ; cmp ch, byte [esi-0x77] ; add al, 0x24 ; call  [0x6E3AB12C] ; (1 found)
0x6e389052: aad 0x00 ; add byte [eax], al ; add byte [ebx+0x0F742454], cl ; scasd ; ret ; (1 found)
0x6e38d5e0: aad 0x83 ; retn 0xE901 ; (1 found)
0x6e38d730: aad 0x83 ; retn 0xE901 ; (1 found)
0x6e39eed9: aad 0xD9 ; ret ; (1 found)
0x6e39ef7b: aad 0xD9 ; ret ; (1 found)
0x6e3a3c0f: adc  [ebx+0x3B7401F8], eax ; add esp, 0x18 ; mov eax, 0x00000001 ; pop ebx ; retn 0x000C ; (1 found)
0x6e381153: adc al, 0x24 ; call eax ; (1 found)
0x6e3a48bb: adc al, 0x24 ; call eax ; (1 found)
0x6e388de4: adc al, 0x31 ; fild  [ebx-0x6AF0FE02] ; ret ; (1 found)
0x6e3a3b58: adc al, 0x50 ; cmp ch, byte [esi-0x77] ; inc ebp ; hlt ; call  [0x6E3AB148] ; (1 found)
0x6e38d28f: adc al, 0x5B ; pop esi ; ret ; (1 found)
0x6e38d2f0: adc al, 0x5B ; pop esi ; ret ; (1 found)
0x6e3a3dca: adc al, 0x89 ; pop esp ; and al, 0x0C ; mov  [esp+0x00], eax ; call  [0x6E3AB15C] ; (1 found)
0x6e3a48b5: adc al, 0x8D ; push esp ; and al, 0x10 ; mov  [esp+0x00], edx ; call eax ; (1 found)
0x6e381550: adc al, 0xB1 ; cmp ch, byte [esi-0x7D] ; in al, dx ; add al, 0xC9 ; ret ; (1 found)
0x6e3a3aa9: adc al, 0xFF ; adc eax, 0x6E3AB11C ; mov ebp, eax ; call  [0x6E3AB120] ; (1 found)
0x6e384e8b: adc al, byte [eax-0x6BF0AA06] ; ret ; (1 found)
0x6e38a37b: adc al, byte [eax-0x6BF0B106] ; ret ; (1 found)
0x6e38b91b: adc al, byte [eax-0x6BF0B106] ; ret ; (1 found)
0x6e3a3baf: adc byte [eax+0x00000001], bh ; add esp, 0x1C ; retn 0x000C ; (1 found)
0x6e381163: adc byte [eax+0x00000001], bh ; pop ebx ; pop esi ; pop edi ; retn 0x000C ; (1 found)
0x6e3a3b50: adc byte [eax+0x3A], dl ; outsb ; mov  [ebp-0x10], eax ; mov eax,  [0x6E3A5014] ; mov  [ebp-0x0C], eax ; call  [0x6E3AB148] ; (1 found)
0x6e386c30: adc byte [eax-0x6BF0AA06], al ; sal  [edi+ebx+0x0F], 0xFFFFFFB6 ; retn 0x788D ; (1 found)
0x6e3a0926: adc byte [ebp-0x50F0FEBE], cl ; retn 0xC189 ; (1 found)
0x6e3a3dda: adc byte [ebp-0x7CEA8B40], al ; add eax, 0x6E3A93D8 ; add  [ebx+0x5E5B30C4], eax ; pop edi ; ret ; (1 found)
0x6e381457: adc byte [ebx+0x3AB1281D], cl ; outsb ; mov  [esp+0x00], 0x6E3A6000 ; call ebx ; (1 found)
0x6e39f178: adc byte [ebx+0x41DD10E9], al ; adc cl, bl ; retn 0xCAD8 ; (1 found)
0x6e392fa8: adc byte [ebx+0x42DD10EA], al ; adc cl, bl ; ret ; (1 found)
0x6e3a0f88: adc byte [ebx+0x42DD10EA], al ; adc cl, bl ; ret ; (1 found)
0x6e395906: adc byte [ebx+0x47DD10EF], al ; adc cl, bl ; retn 0xC9D8 ; (1 found)
0x6e3a0e87: adc byte [ebx+0x5E5B4CC4], al ; pop edi ; pop ebp ; ret ; (1 found)
0x6e392d77: adc byte [ebx+0x5E5B5CC4], al ; pop edi ; pop ebp ; ret ; (1 found)
0x6e3810b0: adc byte [ebx+0x5E], bl ; pop edi ; retn 0x000C ; (1 found)
0x6e3811ed: adc byte [ebx+0x5E], bl ; pop edi ; retn 0x000C ; (1 found)
0x6e39d5e7: adc byte [ebx-0x7CA7DBBC], cl ; ret ; (1 found)
0x6e39e418: adc byte [ebx-0x7CBFDBBC], cl ; ret ; (1 found)
0x6e39dbc1: adc byte [ebx-0x7CD7DBAC], cl ; ret ; (1 found)
0x6e3a3aa5: adc byte [ebx], dh ; pop esp ; and al, 0x14 ; call  [0x6E3AB11C] ; (1 found)
0x6e398cf5: adc byte [ecx-0x76E7DBA4], cl ; ret ; (1 found)
0x6e39f2b8: adc byte [ecx], bh ; fcomp st0, st1 ; ret ; (1 found)
0x6e39f366: adc byte [ecx], bh ; fcomp st0, st1 ; ret ; (1 found)
0x6e3a1c14: adc byte [ecx], bh ; int 0xD9 ; ret ; (1 found)
0x6e3a1cd6: adc byte [ecx], bh ; int 0xD9 ; ret ; (1 found)
0x6e3a1d92: adc byte [ecx], ch ; ret ; (1 found)
0x6e39b2cb: adc byte [ecx], ch ; retn 0xD089 ; (1 found)
0x6e39db71: adc byte [ecx], cl ; retn 0x850F ; (1 found)
0x6e38d1d9: adc ch, bl ; fcmovu st0, st1 ; leave ; fmulp st1, st0 ; add esp, 0x2C ; ret ; (1 found)
0x6e39f17b: adc ch, bl ; inc ecx ; adc cl, bl ; retn 0xCAD8 ; (1 found)
0x6e395909: adc ch, bl ; inc edi ; adc cl, bl ; retn 0xC9D8 ; (1 found)
0x6e392fab: adc ch, bl ; inc edx ; adc cl, bl ; ret ; (1 found)
0x6e39ebc8: adc ch, bl ; inc edx ; adc cl, bl ; ret ; (1 found)
0x6e3a0bc8: adc ch, bl ; inc edx ; adc cl, bl ; ret ; (1 found)
0x6e3a0f8b: adc ch, bl ; inc edx ; adc cl, bl ; ret ; (1 found)
0x6e38d0c2: adc cl, bl ; out dx, al ; pop ebx ; ret ; (1 found)
0x6e392fae: adc cl, bl ; ret ; (1 found)
0x6e39e981: adc cl, bl ; ret ; (1 found)
0x6e39ebcb: adc cl, bl ; ret ; (1 found)
0x6e39f276: adc cl, bl ; ret ; (1 found)
0x6e3a0bcb: adc cl, bl ; ret ; (1 found)
0x6e3a0f8e: adc cl, bl ; ret ; (1 found)
0x6e39590c: adc cl, bl ; retn 0xC9D8 ; (1 found)
0x6e398b22: adc cl, bl ; retn 0xC9D8 ; (1 found)
0x6e398d16: adc cl, bl ; retn 0xC9D8 ; (1 found)
0x6e39ac1a: adc cl, bl ; retn 0xC9D8 ; (1 found)
0x6e39f17e: adc cl, bl ; retn 0xCAD8 ; (1 found)
0x6e3a45bd: adc cl, byte [ebx-0x2F08DBC0] ; shr eax, 0x1F ; add esp, 0x08 ; ret ; (1 found)
0x6e38154f: adc eax, 0x6E3AB114 ; sub esp, 0x04 ; leave ; ret ; (1 found)
0x6e3a3b79: adc eax, 0x6E3AB118 ; mov  [esp+0x04], 0xC0000409 ; mov  [esp+0x00], eax ; call  [0x6E3AB150] ; (1 found)
0x6e3a3aab: adc eax, 0x6E3AB11C ; mov ebp, eax ; call  [0x6E3AB120] ; (1 found)
0x6e3a3ab3: adc eax, 0x6E3AB120 ; mov edi, eax ; call  [0x6E3AB134] ; (1 found)
0x6e3a3a9a: adc eax, 0x6E3AB130 ; sub esp, 0x04 ; mov ebx,  [esp+0x10] ; xor ebx,  [esp+0x14] ; call  [0x6E3AB11C] ; (1 found)
0x6e3a3abb: adc eax, 0x6E3AB134 ; mov esi, eax ; lea eax,  [esp+0x18] ; mov  [esp+0x00], eax ; call  [0x6E3AB144] ; (1 found)
0x6e3a4249: adc eax, 0x6E3AB13C ; sub esp, 0x04 ; add esp, 0x18 ; xor eax, eax ; pop ebx ; ret ; (1 found)
0x6e3a41d1: adc eax, 0x6E3AB13C ; xor eax, eax ; sub esp, 0x04 ; add esp, 0x18 ; pop ebx ; ret ; (1 found)
0x6e38147d: adc eax, 0x6E3AB140 ; sub esp, 0x04 ; mov  [0x6E3A9408], eax ; mov  [esp+0x04], 0x6E3A6013 ; mov  [esp+0x00], esi ; call  [0x6E3AB12C] ; (1 found)
0x6e3a3b60: adc eax, 0x6E3AB148 ; sub esp, 0x04 ; mov  [esp+0x00], 0x6E3A61F0 ; call  [0x6E3AB158] ; (1 found)
0x6e3a3b70: adc eax, 0x6E3AB158 ; sub esp, 0x04 ; call  [0x6E3AB118] ; (1 found)
0x6e3a3988: adc eax, 0x6E3AB188 ; add esp, 0x28 ; pop ebx ; ret ; (1 found)
0x6e3a3baa: adc eax, 0x7403F883 ; adc byte [eax+0x00000001], bh ; add esp, 0x1C ; retn 0x000C ; (1 found)
0x6e38148e: adc esp,  [eax+0x3A] ; outsb ; mov  [esp+0x00], esi ; call  [0x6E3AB12C] ; (1 found)
0x6e3a3ddf: add  [0x6E3A93D8], 0x01 ; add esp, 0x30 ; pop ebx ; pop esi ; pop edi ; ret ; (1 found)
0x6e3a405e: add  [eax], 0x836E3800 ; ret ; (1 found)
0x6e3823bf: add  [eax], eax ; add byte [eax-0x7BF0AB06], al ; add eax, 0x83000001 ; call  [edi+ecx-0x7C] ; (1 found)
0x6e3a42ad: add  [eax], eax ; add byte [eax], al ; add esp, 0x1C ; ret ; (1 found)
0x6e3a42f8: add  [eax], eax ; add byte [eax], al ; add esp, 0x1C ; ret ; (1 found)
0x6e3a3bb1: add  [eax], eax ; add byte [eax], al ; add esp, 0x1C ; retn 0x000C ; (1 found)
0x6e3a3bd9: add  [eax], eax ; add byte [eax], al ; add esp, 0x1C ; retn 0x000C ; (1 found)
0x6e3a42f3: add  [eax], eax ; add byte [eax], al ; mov eax, 0x00000001 ; add esp, 0x1C ; ret ; (1 found)
0x6e381165: add  [eax], eax ; add byte [eax], al ; pop ebx ; pop esi ; pop edi ; retn 0x000C ; (1 found)
0x6e381039: add  [eax], eax ; add byte [eax], al ; pop ebx ; ret ; (1 found)
0x6e3a3c19: add  [eax], eax ; add byte [eax], al ; pop ebx ; retn 0x000C ; (1 found)
0x6e3a3c47: add  [eax], eax ; add byte [eax], al ; pop ebx ; retn 0x000C ; (1 found)
0x6e3a46b1: add  [eax], eax ; add byte [eax], al ; retn 0x000C ; (1 found)
0x6e3a46c1: add  [eax], eax ; add byte [eax], al ; retn 0x000C ; (1 found)
0x6e390936: add  [eax], eax ; add byte [edi], cl ; test  [ecx-0x26FFFFFF], ebp ; ret ; (1 found)
0x6e383a16: add  [eax], eax ; add ch, bl ; add ecx, ebx ; ret ; (1 found)
0x6e39093c: add  [eax], eax ; add cl, bl ; ret ; (1 found)
0x6e3a42c5: add  [ebp-0x1C], esi ; mov  [0x6E3A93E4], 0x00000000 ; mov  [esp+0x00], 0x6E3A93E8 ; call  [0x6E3AB10C] ; (1 found)
0x6e381160: add  [ebx+0x01B810C4], eax ; add byte [eax], al ; add byte [ebx+0x5E], bl ; pop edi ; retn 0x000C ; (1 found)
0x6e39ebc5: add  [ebx+0x42DD10EA], eax ; adc cl, bl ; ret ; (1 found)
0x6e3a0bc5: add  [ebx+0x42DD10EA], eax ; adc cl, bl ; ret ; (1 found)
0x6e3a3de5: add  [ebx+0x5E5B30C4], eax ; pop edi ; ret ; (1 found)
0x6e3a3c12: add  [ebx+edi-0x7D], esi ; les ebx,  [eax] ; mov eax, 0x00000001 ; pop ebx ; retn 0x000C ; (1 found)
0x6e392fa5: add  [ebx-0x157CEF18], eax ; adc ch, bl ; inc edx ; adc cl, bl ; ret ; (1 found)
0x6e3a0f85: add  [ebx-0x157CEF18], eax ; adc ch, bl ; inc edx ; adc cl, bl ; ret ; (1 found)
0x6e39f175: add  [ebx-0x167CEF16], eax ; adc ch, bl ; inc ecx ; adc cl, bl ; retn 0xCAD8 ; (1 found)
0x6e398d10: add  [ebx-0x397CEF3D], eax ; adc cl, bl ; retn 0xC9D8 ; (1 found)
0x6e39ac14: add  [ebx-0x3C7CEF3E], eax ; adc cl, bl ; retn 0xC9D8 ; (1 found)
0x6e3a1e02: add  [ebx-0x768BDB8C], ecx ; retn 0xE2C1 ; (1 found)
0x6e39e0a6: add  [ebx-0x7CE7DB94], ecx ; retn 0x0110 ; (1 found)
0x6e388a47: add  [ecx+0x00B68DF0], ecx ; add byte [eax], al ; add ch, bl ; inc esp ; retn 0x8308 ; (1 found)
0x6e384bee: add  [ecx-0x16E3DBBC], ecx ; sar ah, 0xFF ; call  [eax+0x0026B48D] ; (1 found)
0x6e38ada4: add  [ecx-0x76CFDBAC], ecx ; retn 0x4C89 ; (1 found)
0x6e397d95: add  [ecx], eax ; ret ; (1 found)
0x6e39bc4e: add  [ecx], eax ; ret ; (1 found)
0x6e3995f9: add  [ecx], eax ; retn 0x848B ; (1 found)
0x6e387084: add  [ecx], eax ; retn 0xF939 ; (1 found)
0x6e3841f2: add  [ecx], ebp ; ret ; (1 found)
0x6e38d035: add  [ecx], edi ; fidiv  [ebp-0x18] ; fstp st0 ; pop ebx ; pop esi ; ret ; (1 found)
0x6e3886b9: add  [ecx], edi ; retn 0x327F ; (1 found)
0x6e395221: add  [edi], ecx ; scasd ; ret ; (1 found)
0x6e3a0929: add  [edi], ecx ; scasd ; retn 0xC189 ; (1 found)
0x6e3884e9: add  [edi], ecx ; xchg eax, ebp ; ret ; (1 found)
0x6e388de9: add  [edi], ecx ; xchg eax, ebp ; ret ; (1 found)
0x6e389d2d: add  [edi], ecx ; xchg eax, ebp ; ret ; (1 found)
0x6e38c951: add  [edi], ecx ; xchg eax, ebp ; ret ; (1 found)
0x6e39f5df: add  [edi], ecx ; xchg eax, ebp ; retn 0xC085 ; (1 found)
0x6e38b256: add  [edi], ecx ; xchg eax, ebp ; retn 0xDB85 ; (1 found)
0x6e398890: add  [edi], ecx ; xchg eax, ebp ; rol  [ebp+0x0FCE89D2], 0xFFFFFF8E ; retn 0x0002 ; (1 found)
0x6e38148d: add al, 0x13 ; pushad ; cmp ch, byte [esi-0x77] ; xor al, 0x24 ; call  [0x6E3AB12C] ; (1 found)
0x6e381507: add al, 0x24 ; add byte [eax+0x3A], ah ; outsb ; call  [0x6E3AB128] ; (1 found)
0x6e381476: add al, 0x24 ; add byte [eax+0x3A], ah ; outsb ; call  [0x6E3AB140] ; (1 found)
0x6e38145f: add al, 0x24 ; add byte [eax+0x3A], ah ; outsb ; call ebx ; (1 found)
0x6e38154c: add al, 0x24 ; call  [0x6E3AB114] ; (1 found)
0x6e3814da: add al, 0x24 ; call  [0x6E3AB12C] ; (1 found)
0x6e381528: add al, 0x24 ; call  [0x6E3AB12C] ; (1 found)
0x6e3a3a97: add al, 0x24 ; call  [0x6E3AB130] ; (1 found)
0x6e3a3ac7: add al, 0x24 ; call  [0x6E3AB144] ; (1 found)
0x6e3a3b87: add al, 0x24 ; call  [0x6E3AB150] ; (1 found)
0x6e3a3dd0: add al, 0x24 ; call  [0x6E3AB15C] ; (1 found)
0x6e3a3ff6: add al, 0x24 ; call  [0x6E3AB15C] ; (1 found)
0x6e3a3d8e: add al, 0x24 ; call  [0x6E3AB160] ; (1 found)
0x6e3a3fc5: add al, 0x24 ; call  [0x6E3AB160] ; (1 found)
0x6e3a3985: add al, 0x24 ; call  [0x6E3AB188] ; (1 found)
0x6e3a4133: add al, 0x24 ; call ebp ; (1 found)
0x6e3a3b69: add al, 0x24 ; lock popad ; cmp ch, byte [esi-0x01] ; adc eax, 0x6E3AB158 ; sub esp, 0x04 ; call  [0x6E3AB118] ; (1 found)
0x6e388c91: add al, 0x24 ; retn 0x3A60 ; (1 found)
0x6e3814ec: add al, 0x24 ; sbb byte [eax+0x3A], dl ; outsb ; call edx ; (1 found)
0x6e3814bd: add al, 0x24 ; sub  [eax+0x3A], esp ; outsb ; call ebx ; (1 found)
0x6e3814d4: add al, 0x37 ; pushad ; cmp ch, byte [esi-0x77] ; add al, 0x24 ; call  [0x6E3AB12C] ; (1 found)
0x6e381522: add al, 0x4B ; pushad ; cmp ch, byte [esi-0x77] ; add al, 0x24 ; call  [0x6E3AB12C] ; (1 found)
0x6e3a47e4: add al, 0x63 ; cmp ch, byte [esi-0x15] ; mov eax, 0x90909090 ; nop ; nop ; jmp  [0x6E3AB1B8] ; (1 found)
0x6e3a4353: add al, 0x66 ; cmp  [eax], 0x05745A4D ; xor eax, eax ; ret ; (1 found)
0x6e3a41da: add al, 0x83 ; les ebx,  [eax] ; pop ebx ; ret ; (1 found)
0x6e3a4250: add al, 0x83 ; les ebx,  [eax] ; xor eax, eax ; pop ebx ; ret ; (1 found)
0x6e3a4164: add al, 0x83 ; les ebx,  [ebx+ebx*2] ; pop esi ; pop edi ; pop ebp ; ret ; (1 found)
0x6e38e3b1: add al, 0x83 ; ret ; (1 found)
0x6e38f8ef: add al, 0x83 ; ret ; (1 found)
0x6e395b72: add al, 0x83 ; ret ; (1 found)
0x6e3968f9: add al, 0x83 ; ret ; (1 found)
0x6e396ae1: add al, 0x83 ; ret ; (1 found)
0x6e39c945: add al, 0x83 ; ret ; (1 found)
0x6e38dd61: add al, 0x83 ; retn 0xBF01 ; (1 found)
0x6e38df2d: add al, 0x83 ; retn 0xC101 ; (1 found)
0x6e398a97: add al, 0x83 ; retn 0xD918 ; (1 found)
0x6e397d8f: add al, 0x83 ; ror byte [eax], 0x8D ; outsd ; add  [ecx], eax ; ret ; (1 found)
0x6e39bc48: add al, 0x83 ; ror byte [eax], 0x8D ; outsd ; add  [ecx], eax ; ret ; (1 found)
0x6e3814c7: add al, 0x85 ; sar byte [edx+0x00000000], 0x74 ; push ss ; mov  [esp+0x04], 0x6E3A6037 ; mov  [esp+0x00], eax ; call  [0x6E3AB12C] ; (1 found)
0x6e381515: add al, 0x85 ; sar byte [edx+0x00000000], 0x74 ; push ss ; mov  [esp+0x04], 0x6E3A604B ; mov  [esp+0x00], eax ; call  [0x6E3AB12C] ; (1 found)
0x6e3a3d8c: add al, 0x89 ; add al, 0x24 ; call  [0x6E3AB160] ; (1 found)
0x6e3a3fc3: add al, 0x89 ; add al, 0x24 ; call  [0x6E3AB160] ; (1 found)
0x6e39283c: add al, 0x89 ; ret ; (1 found)
0x6e3983de: add al, 0x89 ; ret ; (1 found)
0x6e39c24a: add al, 0x89 ; ret ; (1 found)
0x6e394379: add al, 0x89 ; retn 0x448B ; (1 found)
0x6e393c2e: add al, 0x89 ; retn 0xF001 ; (1 found)
0x6e3a41bf: add al, 0x89 ; sbb eax, 0x6E3A93E0 ; mov  [esp+0x00], 0x6E3A93E8 ; mov  [ebx+0x08], eax ; call  [0x6E3AB13C] ; (1 found)
0x6e3a4148: add al, 0x89 ; xor al, 0x24 ; call eax ; (1 found)
0x6e3a3fc0: add al, 0x8B ; inc eax ; add al, 0x89 ; add al, 0x24 ; call  [0x6E3AB160] ; (1 found)
0x6e3a3ff1: add al, 0x8B ; inc ebp ; int3 ; mov  [esp+0x00], eax ; call  [0x6E3AB15C] ; (1 found)
0x6e3a3dc6: add al, 0x8B ; inc esp ; and al, 0x14 ; mov  [esp+0x0C], ebx ; mov  [esp+0x00], eax ; call  [0x6E3AB15C] ; (1 found)
0x6e3a3aa1: add al, 0x8B ; pop esp ; and al, 0x10 ; xor ebx,  [esp+0x14] ; call  [0x6E3AB11C] ; (1 found)
0x6e3a3d83: add al, 0xA1 ; fcom qword [ebx+0x448B6E3A] ; sbb byte [ecx+ecx*4], al ; add al, 0x24 ; call  [0x6E3AB160] ; (1 found)
0x6e3a3c83: add al, 0xC3 ; lea esi,  [esi+0x00] ; lea edi,  [edi+0x00000000] ; mov eax,  [esp+0x04] ; ret ; (1 found)
0x6e381556: add al, 0xC9 ; ret ; (1 found)
0x6e38527c: add al, 0xDD ; fcomp st0, st5 ; fadd  [ebx+0x5E5B4CC4] ; pop edi ; pop ebp ; ret ; (1 found)
0x6e38e2cf: add al, 0xDD ; fcomp st0, st5 ; fadd  [ebx+0x5E5B4CC4] ; pop edi ; pop ebp ; ret ; (1 found)
0x6e3969ff: add al, 0xDD ; fcomp st0, st5 ; fadd  [ebx+0x5E5B4CC4] ; pop edi ; pop ebp ; ret ; (1 found)
0x6e38620f: add al, 0xDD ; fcomp st0, st5 ; fadd  [ebx+0x5E5B6CC4] ; pop edi ; pop ebp ; ret ; (1 found)
0x6e387bbd: add al, 0xDD ; fcomp st0, st5 ; fadd  [ebx+0x5E5B6CC4] ; pop edi ; pop ebp ; ret ; (1 found)
0x6e38b9c0: add al, 0xDD ; fcomp st0, st5 ; fadd  [ebx+0x5E5B6CC4] ; pop edi ; pop ebp ; ret ; (1 found)
0x6e390fac: add al, 0xDD ; fcomp st0, st5 ; fadd  [ebx+0x5E5B7CC4] ; pop edi ; pop ebp ; ret ; (1 found)
0x6e38d3c3: add al, 0xDD ; fcomp st0, st5 ; fcomp  [ebx+0x5E] ; pop edi ; ret ; (1 found)
0x6e392524: add al, 0xE8 ; and al, 0x01 ; add byte [ebx+0x5E5B5CC4], al ; pop edi ; pop ebp ; ret ; (1 found)
0x6e3929aa: add al, 0xF7 ; fimul word [ebp-0x7607C484] ; ret ; (1 found)
0x6e39eb3f: add al, 0xF7 ; fmul  [ecx-0x76C3DBBC] ; enter 0xD9F7, 0x0F ; scasd ; ret ; (1 found)
0x6e3a3b77: add al, 0xFF ; adc eax, 0x6E3AB118 ; mov  [esp+0x04], 0xC0000409 ; mov  [esp+0x00], eax ; call  [0x6E3AB150] ; (1 found)
0x6e3a3b84: add al, al ; mov  [esp+0x00], eax ; call  [0x6E3AB150] ; (1 found)
0x6e381146: add al, byte [eax] ; add byte [eax], al ; mov  [esp+0x08], edx ; mov edx,  [esp+0x20] ; mov  [esp+0x00], edx ; call eax ; (1 found)
0x6e386392: add al, byte [eax] ; add byte [ebx-0x7AF0FE07], al ; retn 0x0000 ; (1 found)
0x6e391fe7: add al, byte [eax] ; add byte [ecx], al ; fmul  [ebx-0x76CBDBAC] ; ret ; (1 found)
0x6e38d397: add al, byte [ecx] ; fcmovu st0, st1 ; ret ; (1 found)
0x6e394fd1: add al, byte [ecx] ; fidivr  [ecx] ; int 0xD9 ; ret ; (1 found)
0x6e395092: add al, byte [ecx] ; fidivr  [ecx] ; int 0xD9 ; ret ; (1 found)
0x6e3952c0: add al, byte [ecx] ; fidivr  [ecx] ; int 0xD9 ; ret ; (1 found)
0x6e395382: add al, byte [ecx] ; fidivr  [ecx] ; int 0xD9 ; ret ; (1 found)
0x6e381949: add al, byte [ecx] ; retn 0x4403 ; (1 found)
0x6e388c8f: add bh, al ; add al, 0x24 ; retn 0x3A60 ; (1 found)
0x6e3a263f: add bh, al ; inc esp ; and al, 0x7C ; or eax, 0xE9000000 ; ret ; (1 found)
0x6e3a4031: add bh, bh ; jmp  [esi-0x7D] ; (1 found)
0x6e388c9f: add bl, ch ; add bl, ch ; fadd  [ebx+0x5E5B4CC4] ; pop edi ; pop ebp ; ret ; (1 found)
0x6e382c0e: add bl, ch ; add bl, ch ; fadd  [ebx+0x5E5B5CC4] ; pop edi ; pop ebp ; ret ; (1 found)
0x6e38315a: add bl, ch ; add eax, 0xDD00768D ; fadd  [ebx+0x5E5B3CC4] ; pop edi ; pop ebp ; ret ; (1 found)
0x6e3a3c6b: add bl, ch ; cmpsd ; nop ; xor eax, eax ; ret ; (1 found)
0x6e388ca1: add bl, ch ; fadd  [ebx+0x5E5B4CC4] ; pop edi ; pop ebp ; ret ; (1 found)
0x6e382c10: add bl, ch ; fadd  [ebx+0x5E5B5CC4] ; pop edi ; pop ebp ; ret ; (1 found)
0x6e382510: add bl, ch ; fadd  [ebx+0x5E5B6CC4] ; pop edi ; pop ebp ; ret ; (1 found)
0x6e3837c3: add bl, ch ; fcomp  [ebx+0x5E] ; pop edi ; pop ebp ; ret ; (1 found)
0x6e381a62: add bl, ch ; fstp  [ebx+0x5E] ; pop edi ; ret ; (1 found)
0x6e3815e1: add bl, ch ; fstp  [ebx+0x5E] ; ret ; (1 found)
0x6e399f0e: add bl, ch ; inc ebp ; add byte [ecx], bh ; ret ; (1 found)
0x6e397b56: add bl, ch ; ret ; (1 found)
0x6e39ba16: add bl, ch ; ret ; (1 found)
0x6e39b1d4: add bl, cl ; ret ; (1 found)
0x6e3810a8: add byte [eax+0x00000001], bh ; add esp, 0x10 ; pop ebx ; pop esi ; pop edi ; retn 0x000C ; (1 found)
0x6e3a42f6: add byte [eax+0x00000001], bh ; add esp, 0x1C ; ret ; (1 found)
0x6e3a3bd7: add byte [eax+0x00000001], bh ; add esp, 0x1C ; retn 0x000C ; (1 found)
0x6e381067: add byte [eax+0x0FEB6E3A], dl ; lea esi,  [esi+0x00] ; mov  [esp+0x00], 0x000003E8 ; call esi ; (1 found)
0x6e381509: add byte [eax+0x3A], ah ; outsb ; call  [0x6E3AB128] ; (1 found)
0x6e381478: add byte [eax+0x3A], ah ; outsb ; call  [0x6E3AB140] ; (1 found)
0x6e381461: add byte [eax+0x3A], ah ; outsb ; call ebx ; (1 found)
0x6e3a46a6: add byte [eax+0x59], bl ; ret ; (1 found)
0x6e3a46b7: add byte [eax-0x6F6F6F70], dl ; nop ; nop ; nop ; mov eax, 0x00000001 ; retn 0x000C ; (1 found)
0x6e3823c1: add byte [eax-0x7BF0AB06], al ; add eax, 0x83000001 ; call  [edi+ecx-0x7C] ; (1 found)
0x6e391aae: add byte [eax-0x7C07BD23], dl ; rol  [ecx], 0xFFFFFF83 ; rcl byte [eax], 0x83 ; retn 0xDD10 ; (1 found)
0x6e388c8d: add byte [eax], al ; add bh, al ; add al, 0x24 ; retn 0x3A60 ; (1 found)
0x6e3a263d: add byte [eax], al ; add bh, al ; inc esp ; and al, 0x7C ; or eax, 0xE9000000 ; ret ; (1 found)
0x6e397b54: add byte [eax], al ; add bl, ch ; ret ; (1 found)
0x6e39ba14: add byte [eax], al ; add bl, ch ; ret ; (1 found)
0x6e3a42f4: add byte [eax], al ; add byte [eax+0x00000001], bh ; add esp, 0x1C ; ret ; (1 found)
0x6e391aac: add byte [eax], al ; add byte [eax-0x7C07BD23], dl ; rol  [ecx], 0xFFFFFF83 ; rcl byte [eax], 0x83 ; retn 0xDD10 ; (1 found)
0x6e38d0bc: add byte [eax], al ; add byte [eax], al ; add esp, 0x10 ; fldz ; pop ebx ; ret ; (1 found)
0x6e38102a: add byte [eax], al ; add byte [eax], al ; add esp, 0x18 ; xor eax, eax ; pop ebx ; ret ; (1 found)
0x6e3833fc: add byte [eax], al ; add byte [eax], al ; fldz ; add esp, 0x2C ; ret ; (1 found)
0x6e3815ec: add byte [eax], al ; add byte [eax], al ; fldz ; pop ebx ; pop esi ; ret ; (1 found)
0x6e3a479c: add byte [eax], al ; add byte [eax], al ; fstp st1 ; add esp, 0x3C ; ret ; (1 found)
0x6e3a42ce: add byte [eax], al ; add byte [eax], al ; mov  [esp+0x00], 0x6E3A93E8 ; call  [0x6E3AB10C] ; (1 found)
0x6e3a420b: add byte [eax], al ; add byte [eax], al ; mov  [esp+0x00], 0x6E3A93E8 ; call  [0x6E3AB110] ; (1 found)
0x6e3a420c: add byte [eax], al ; add byte [eax], al ; mov  [esp+0x00], 0x6E3A93E8 ; call  [0x6E3AB110] ; (1 found)
0x6e3a3c8c: add byte [eax], al ; add byte [eax], al ; mov eax,  [esp+0x04] ; ret ; (1 found)
0x6e38175c: add byte [eax], al ; add byte [eax], al ; pop ebx ; pop esi ; pop edi ; ret ; (1 found)
0x6e3845ec: add byte [eax], al ; add byte [eax], al ; pop ebx ; pop esi ; ret ; (1 found)
0x6e38bf24: add byte [eax], al ; add byte [ebp+0x048DD10C], cl ; ret ; (1 found)
0x6e385e9a: add byte [eax], al ; add byte [ebp+0x04DD0076], cl ; ret ; (1 found)
0x6e38c165: add byte [eax], al ; add byte [ebp+0x1C8D2A04], cl ; ret ; (1 found)
0x6e3a3f3d: add byte [eax], al ; add byte [ebp+0x5E5BF465], cl ; pop edi ; pop ebp ; ret ; (1 found)
0x6e38146e: add byte [eax], al ; add byte [ebp-0x38D68B0A], al ; add al, 0x24 ; add byte [eax+0x3A], ah ; outsb ; call  [0x6E3AB140] ; (1 found)
0x6e393d9f: add byte [eax], al ; add byte [ebp-0x76E7FCBC], cl ; ret ; (1 found)
0x6e389054: add byte [eax], al ; add byte [ebx+0x0F742454], cl ; scasd ; ret ; (1 found)
0x6e394617: add byte [eax], al ; add byte [ebx+0x0FD28511], cl ; mov ss, word [eax-0x7C000008] ; retn 0xB901 ; (1 found)
0x6e3810ab: add byte [eax], al ; add byte [ebx+0x5E5B10C4], al ; pop edi ; retn 0x000C ; (1 found)
0x6e3811e8: add byte [eax], al ; add byte [ebx+0x5E5B10C4], al ; pop edi ; retn 0x000C ; (1 found)
0x6e389c5d: add byte [eax], al ; add byte [ebx+0x5E5B4CC4], al ; pop edi ; pop ebp ; ret ; (1 found)
0x6e38484d: add byte [eax], al ; add byte [ebx+0x5E5B5CC4], al ; pop edi ; pop ebp ; ret ; (1 found)
0x6e38839d: add byte [eax], al ; add byte [ebx+0x5E5B5CC4], al ; pop edi ; pop ebp ; ret ; (1 found)
0x6e38c82d: add byte [eax], al ; add byte [ebx+0x5E5B5CC4], al ; pop edi ; pop ebp ; ret ; (1 found)
0x6e38e5d8: add byte [eax], al ; add byte [ebx+0x5E], bl ; pop edi ; pop ebp ; ret ; (1 found)
0x6e38f143: add byte [eax], al ; add byte [ebx+0x5E], bl ; pop edi ; pop ebp ; ret ; (1 found)
0x6e38f4d8: add byte [eax], al ; add byte [ebx+0x5E], bl ; pop edi ; pop ebp ; ret ; (1 found)
0x6e38fb43: add byte [eax], al ; add byte [ebx+0x5E], bl ; pop edi ; pop ebp ; ret ; (1 found)
0x6e3932a3: add byte [eax], al ; add byte [ebx+0x5E], bl ; pop edi ; pop ebp ; ret ; (1 found)
0x6e3935c8: add byte [eax], al ; add byte [ebx+0x5E], bl ; pop edi ; pop ebp ; ret ; (1 found)
0x6e396d17: add byte [eax], al ; add byte [ebx+0x5E], bl ; pop edi ; pop ebp ; ret ; (1 found)
0x6e397b44: add byte [eax], al ; add byte [ebx+0x5E], bl ; pop edi ; pop ebp ; ret ; (1 found)
0x6e398e48: add byte [eax], al ; add byte [ebx+0x5E], bl ; pop edi ; pop ebp ; ret ; (1 found)
0x6e399d93: add byte [eax], al ; add byte [ebx+0x5E], bl ; pop edi ; pop ebp ; ret ; (1 found)
0x6e39adc3: add byte [eax], al ; add byte [ebx+0x5E], bl ; pop edi ; pop ebp ; ret ; (1 found)
0x6e39b076: add byte [eax], al ; add byte [ebx+0x5E], bl ; pop edi ; pop ebp ; ret ; (1 found)
0x6e39ba04: add byte [eax], al ; add byte [ebx+0x5E], bl ; pop edi ; pop ebp ; ret ; (1 found)
0x6e39c743: add byte [eax], al ; add byte [ebx+0x5E], bl ; pop edi ; pop ebp ; ret ; (1 found)
0x6e39d823: add byte [eax], al ; add byte [ebx+0x5E], bl ; pop edi ; pop ebp ; ret ; (1 found)
0x6e3a2443: add byte [eax], al ; add byte [ebx+0x5E], bl ; pop edi ; pop ebp ; ret ; (1 found)
0x6e38175d: add byte [eax], al ; add byte [ebx+0x5E], bl ; pop edi ; ret ; (1 found)
0x6e381166: add byte [eax], al ; add byte [ebx+0x5E], bl ; pop edi ; retn 0x000C ; (1 found)
0x6e3845ed: add byte [eax], al ; add byte [ebx+0x5E], bl ; ret ; (1 found)
0x6e38d0bd: add byte [eax], al ; add byte [ebx-0x1126EF3C], al ; pop ebx ; ret ; (1 found)
0x6e38340d: add byte [eax], al ; add byte [ebx-0x22CBDBBC], cl ; add byte [ebx-0x1E26D33C], al ; ret ; (1 found)
0x6e381b8d: add byte [eax], al ; add byte [ebx-0x27], bl ; out dx, al ; pop esi ; pop edi ; ret ; (1 found)
0x6e38102b: add byte [eax], al ; add byte [ebx-0x3FCEE73C], al ; pop ebx ; ret ; (1 found)
0x6e381ec8: add byte [eax], al ; add byte [ebx-0x7AE3DBB4], cl ; ror byte [edi], 0x4E ; retn 0x548B ; (1 found)
0x6e39329d: add byte [eax], al ; add byte [ecx+0x00008CC4], al ; add byte [ebx+0x5E], bl ; pop edi ; pop ebp ; ret ; (1 found)
0x6e399d8d: add byte [eax], al ; add byte [ecx+0x00008CC4], al ; add byte [ebx+0x5E], bl ; pop edi ; pop ebp ; ret ; (1 found)
0x6e39d81d: add byte [eax], al ; add byte [ecx+0x00008CC4], al ; add byte [ebx+0x5E], bl ; pop edi ; pop ebp ; ret ; (1 found)
0x6e3a243d: add byte [eax], al ; add byte [ecx+0x00008CC4], al ; add byte [ebx+0x5E], bl ; pop edi ; pop ebp ; ret ; (1 found)
0x6e39adbd: add byte [eax], al ; add byte [ecx+0x00009CC4], al ; add byte [ebx+0x5E], bl ; pop edi ; pop ebp ; ret ; (1 found)
0x6e38f13d: add byte [eax], al ; add byte [ecx+0x0000ACC4], al ; add byte [ebx+0x5E], bl ; pop edi ; pop ebp ; ret ; (1 found)
0x6e39630d: add byte [eax], al ; add byte [ecx+0x0FF029E8], cl ; scasd ; retn 0x688D ; (1 found)
0x6e39b2c5: add byte [eax], al ; add byte [ecx+0x2910245C], cl ; retn 0xD089 ; (1 found)
0x6e3a3d7d: add byte [eax], al ; add byte [ecx-0x5EFBDBBC], cl ; fcom qword [ebx+0x448B6E3A] ; sbb byte [ecx+ecx*4], al ; add al, 0x24 ; call  [0x6E3AB160] ; (1 found)
0x6e381147: add byte [eax], al ; add byte [ecx-0x74F7DBAC], cl ; push esp ; and al, 0x20 ; mov  [esp+0x00], edx ; call eax ; (1 found)
0x6e3a3fba: add byte [eax], al ; add byte [ecx-0x74FBDBB4], cl ; inc eax ; add al, 0x89 ; add al, 0x24 ; call  [0x6E3AB160] ; (1 found)
0x6e385fab: add byte [eax], al ; add byte [ecx-0x76BFDBA4], cl ; ret ; (1 found)
0x6e385e0c: add byte [eax], al ; add byte [ecx-0x76E3DBA4], cl ; ret ; (1 found)
0x6e38ed78: add byte [eax], al ; add byte [ecx-0x7CD7DB94], cl ; rcl byte [eax], 0x83 ; retn 0xBD10 ; (1 found)
0x6e385d89: add byte [eax], al ; add byte [ecx-0x7CF7DB94], cl ; ret ; (1 found)
0x6e39ceaa: add byte [eax], al ; add byte [ecx], ah ; retn 0x848B ; (1 found)
0x6e382ac6: add byte [eax], al ; add byte [ecx], al ; ret ; (1 found)
0x6e38bfef: add byte [eax], al ; add byte [ecx], al ; ret ; (1 found)
0x6e39f6d8: add byte [eax], al ; add byte [ecx], ch ; retn 0x5489 ; (1 found)
0x6e3a01be: add byte [eax], al ; add byte [ecx], ch ; retn 0x5489 ; (1 found)
0x6e38ea12: add byte [eax], al ; add byte [ecx], ch ; retn 0xAF0F ; (1 found)
0x6e38ea32: add byte [eax], al ; add byte [ecx], ch ; retn 0xAF0F ; (1 found)
0x6e3971e2: add byte [eax], al ; add byte [ecx], ch ; retn 0xAF0F ; (1 found)
0x6e397202: add byte [eax], al ; add byte [ecx], ch ; retn 0xAF0F ; (1 found)
0x6e397b50: add byte [eax], al ; add byte [edi], al ; add byte [eax], al ; add bl, ch ; ret ; (1 found)
0x6e39ba10: add byte [eax], al ; add byte [edi], al ; add byte [eax], al ; add bl, ch ; ret ; (1 found)
0x6e3831ee: add byte [eax], al ; add byte [edi], cl ; dec eax ; rol  [ebx-0x7BF0FE02], 1 ; ret ; (1 found)
0x6e386d3b: add byte [eax], al ; add byte [edi], cl ; dec ecx ; ret ; (1 found)
0x6e382bdf: add byte [eax], al ; add byte [edi], cl ; dec edi ; ret ; (1 found)
0x6e38f161: add byte [eax], al ; add byte [edi], cl ; dec edi ; retn 0x0739 ; (1 found)
0x6e389fc8: add byte [eax], al ; add byte [edi], cl ; scasd ; ret ; (1 found)
0x6e39d243: add byte [eax], al ; add byte [edi], cl ; wait ; ror byte [edi], 0x45 ; retn 0x548B ; (1 found)
0x6e39e003: add byte [eax], al ; add byte [edi], cl ; wait ; ror byte [edi], 0x45 ; retn 0x548B ; (1 found)
0x6e38595f: add byte [eax], al ; add byte [edi], cl ; xchg eax, esp ; ret ; (1 found)
0x6e385a6f: add byte [eax], al ; add byte [edi], cl ; xchg eax, esp ; ret ; (1 found)
0x6e39bd54: add byte [eax], al ; add ch, bl ; add ch, bl ; inc eax ; or cl, bl ; ret ; (1 found)
0x6e3a281b: add byte [eax], al ; add ch, bl ; add ebx, ecx ; retn 0xCAD8 ; (1 found)
0x6e3a349b: add byte [eax], al ; add ch, bl ; add ebx, ecx ; retn 0xCAD8 ; (1 found)
0x6e38950d: add byte [eax], al ; add ch, bl ; fadd  [ebx+0x5E5B4CC4] ; pop edi ; pop ebp ; ret ; (1 found)
0x6e381ccd: add byte [eax], al ; add ch, bl ; fadd  [ebx+0x5E5B5CC4] ; pop edi ; pop ebp ; ret ; (1 found)
0x6e38203d: add byte [eax], al ; add ch, bl ; inc esp ; ret ; (1 found)
0x6e384c21: add byte [eax], al ; add ch, bl ; inc esp ; ret ; (1 found)
0x6e3886cd: add byte [eax], al ; add ch, bl ; inc esp ; ret ; (1 found)
0x6e388a4d: add byte [eax], al ; add ch, bl ; inc esp ; retn 0x8308 ; (1 found)
0x6e3840dd: add byte [eax], al ; add ch, bl ; inc esp ; retn 0xD908 ; (1 found)
0x6e38899d: add byte [eax], al ; add ch, bl ; inc esp ; retn 0xDC10 ; (1 found)
0x6e38354d: add byte [eax], al ; add ch, bl ; inc esp ; retn 0xDDF8 ; (1 found)
0x6e3833fd: add byte [eax], al ; add cl, bl ; out dx, al ; add esp, 0x2C ; ret ; (1 found)
0x6e3815ed: add byte [eax], al ; add cl, bl ; out dx, al ; pop ebx ; pop esi ; ret ; (1 found)
0x6e386cf0: add byte [eax], al ; add cl, ch ; cmp bh, 0xFF ; call  [eax+0x0026B48D] ; (1 found)
0x6e3a2645: add byte [eax], al ; add cl, ch ; ret ; (1 found)
0x6e3a0906: add byte [eax], al ; add cl, ch ; retn 0xFFFD ; (1 found)
0x6e38d0be: add byte [eax], al ; add esp, 0x10 ; fldz ; pop ebx ; ret ; (1 found)
0x6e3810ac: add byte [eax], al ; add esp, 0x10 ; pop ebx ; pop esi ; pop edi ; retn 0x000C ; (1 found)
0x6e3811e9: add byte [eax], al ; add esp, 0x10 ; pop ebx ; pop esi ; pop edi ; retn 0x000C ; (1 found)
0x6e38102c: add byte [eax], al ; add esp, 0x18 ; xor eax, eax ; pop ebx ; ret ; (1 found)
0x6e3a42af: add byte [eax], al ; add esp, 0x1C ; ret ; (1 found)
0x6e3a42fa: add byte [eax], al ; add esp, 0x1C ; ret ; (1 found)
0x6e3a3bb3: add byte [eax], al ; add esp, 0x1C ; retn 0x000C ; (1 found)
0x6e3a3bdb: add byte [eax], al ; add esp, 0x1C ; retn 0x000C ; (1 found)
0x6e3a3976: add byte [eax], al ; add esp, 0x28 ; mov eax, ebx ; pop ebx ; ret ; (1 found)
0x6e3810ed: add byte [eax], al ; call edi ; (1 found)
0x6e381075: add byte [eax], al ; call esi ; (1 found)
0x6e3a4662: add byte [eax], al ; cmp byte [esi-0x77], ch ; clc ; pop edi ; ret ; (1 found)
0x6e3a405f: add byte [eax], al ; cmp byte [esi-0x7D], ch ; ret ; (1 found)
0x6e3833fe: add byte [eax], al ; fldz ; add esp, 0x2C ; ret ; (1 found)
0x6e3815ee: add byte [eax], al ; fldz ; pop ebx ; pop esi ; ret ; (1 found)
0x6e3a479e: add byte [eax], al ; fstp st1 ; add esp, 0x3C ; ret ; (1 found)
0x6e3810e6: add byte [eax], al ; mov  [esp+0x00], 0x000003E8 ; call edi ; (1 found)
0x6e3a42d0: add byte [eax], al ; mov  [esp+0x00], 0x6E3A93E8 ; call  [0x6E3AB10C] ; (1 found)
0x6e3a420e: add byte [eax], al ; mov  [esp+0x00], 0x6E3A93E8 ; call  [0x6E3AB110] ; (1 found)
0x6e3a426c: add byte [eax], al ; mov  [esp+0x00], 0x6E3A93E8 ; call  [0x6E3AB13C] ; (1 found)
0x6e3a3d7e: add byte [eax], al ; mov  [esp+0x04], eax ; mov eax,  [0x6E3A93DC] ; mov eax,  [eax+ebx+0x04] ; mov  [esp+0x00], eax ; call  [0x6E3AB160] ; (1 found)
0x6e3a3dc1: add byte [eax], al ; mov  [esp+0x04], eax ; mov eax,  [esp+0x14] ; mov  [esp+0x0C], ebx ; mov  [esp+0x00], eax ; call  [0x6E3AB15C] ; (1 found)
0x6e3a3fbb: add byte [eax], al ; mov  [esp+0x04], ecx ; mov eax,  [eax+0x04] ; mov  [esp+0x00], eax ; call  [0x6E3AB160] ; (1 found)
0x6e381148: add byte [eax], al ; mov  [esp+0x08], edx ; mov edx,  [esp+0x20] ; mov  [esp+0x00], edx ; call eax ; (1 found)
0x6e3a3c8e: add byte [eax], al ; mov eax,  [esp+0x04] ; ret ; (1 found)
0x6e38340e: add byte [eax], al ; mov eax,  [esp+0x34] ; fld qword [eax] ; add esp, 0x2C ; fabs ; ret ; (1 found)
0x6e3a42f5: add byte [eax], al ; mov eax, 0x00000001 ; add esp, 0x1C ; ret ; (1 found)
0x6e3a3bd6: add byte [eax], al ; mov eax, 0x00000001 ; add esp, 0x1C ; retn 0x000C ; (1 found)
0x6e381b8e: add byte [eax], al ; pop ebx ; fldz ; pop esi ; pop edi ; ret ; (1 found)
0x6e38e5d9: add byte [eax], al ; pop ebx ; pop esi ; pop edi ; pop ebp ; ret ; (1 found)
0x6e38f144: add byte [eax], al ; pop ebx ; pop esi ; pop edi ; pop ebp ; ret ; (1 found)
0x6e38f4d9: add byte [eax], al ; pop ebx ; pop esi ; pop edi ; pop ebp ; ret ; (1 found)
0x6e38fb44: add byte [eax], al ; pop ebx ; pop esi ; pop edi ; pop ebp ; ret ; (1 found)
0x6e3932a4: add byte [eax], al ; pop ebx ; pop esi ; pop edi ; pop ebp ; ret ; (1 found)
0x6e3935c9: add byte [eax], al ; pop ebx ; pop esi ; pop edi ; pop ebp ; ret ; (1 found)
0x6e396d18: add byte [eax], al ; pop ebx ; pop esi ; pop edi ; pop ebp ; ret ; (1 found)
0x6e397b45: add byte [eax], al ; pop ebx ; pop esi ; pop edi ; pop ebp ; ret ; (1 found)
0x6e398e49: add byte [eax], al ; pop ebx ; pop esi ; pop edi ; pop ebp ; ret ; (1 found)
0x6e399d94: add byte [eax], al ; pop ebx ; pop esi ; pop edi ; pop ebp ; ret ; (1 found)
0x6e39adc4: add byte [eax], al ; pop ebx ; pop esi ; pop edi ; pop ebp ; ret ; (1 found)
0x6e39b077: add byte [eax], al ; pop ebx ; pop esi ; pop edi ; pop ebp ; ret ; (1 found)
0x6e39ba05: add byte [eax], al ; pop ebx ; pop esi ; pop edi ; pop ebp ; ret ; (1 found)
0x6e39c744: add byte [eax], al ; pop ebx ; pop esi ; pop edi ; pop ebp ; ret ; (1 found)
0x6e39d824: add byte [eax], al ; pop ebx ; pop esi ; pop edi ; pop ebp ; ret ; (1 found)
0x6e3a2444: add byte [eax], al ; pop ebx ; pop esi ; pop edi ; pop ebp ; ret ; (1 found)
0x6e38175e: add byte [eax], al ; pop ebx ; pop esi ; pop edi ; ret ; (1 found)
0x6e381167: add byte [eax], al ; pop ebx ; pop esi ; pop edi ; retn 0x000C ; (1 found)
0x6e3845ee: add byte [eax], al ; pop ebx ; pop esi ; ret ; (1 found)
0x6e38103b: add byte [eax], al ; pop ebx ; ret ; (1 found)
0x6e3a3c1b: add byte [eax], al ; pop ebx ; retn 0x000C ; (1 found)
0x6e3a3c49: add byte [eax], al ; pop ebx ; retn 0x000C ; (1 found)
0x6e397b51: add byte [eax], al ; pop es ; add byte [eax], al ; add bl, ch ; ret ; (1 found)
0x6e39ba11: add byte [eax], al ; pop es ; add byte [eax], al ; add bl, ch ; ret ; (1 found)
0x6e3a46b3: add byte [eax], al ; retn 0x000C ; (1 found)
0x6e3a46c3: add byte [eax], al ; retn 0x000C ; (1 found)
0x6e3a4933: add byte [eax], al ; xor eax, eax ; add esp, 0x3C ; ret ; (1 found)
0x6e3a4570: add byte [eax], bh ; outsb ; cmovne ebx, eax ; mov eax, ebx ; pop ebx ; ret ; (1 found)
0x6e3a4663: add byte [eax], bh ; outsb ; mov eax, edi ; pop edi ; ret ; (1 found)
0x6e3a44c0: add byte [eax], bh ; outsb ; movzx eax, word [eax+0x6E380006] ; ret ; (1 found)
0x6e3a44c7: add byte [eax], bh ; outsb ; ret ; (1 found)
0x6e38d0b8: add byte [ebp+0x000027BC], cl ; add byte [eax], al ; add esp, 0x10 ; fldz ; pop ebx ; ret ; (1 found)
0x6e3a3c87: add byte [ebp+0x000027BC], cl ; add byte [eax], al ; mov eax,  [esp+0x04] ; ret ; (1 found)
0x6e3a3c88: add byte [ebp+0x000027BC], cl ; add byte [eax], al ; mov eax,  [esp+0x04] ; ret ; (1 found)
0x6e381758: add byte [ebp+0x000027BC], cl ; add byte [eax], al ; pop ebx ; pop esi ; pop edi ; ret ; (1 found)
0x6e38bf26: add byte [ebp+0x048DD10C], cl ; ret ; (1 found)
0x6e385e9c: add byte [ebp+0x04DD0076], cl ; ret ; (1 found)
0x6e38c167: add byte [ebp+0x1C8D2A04], cl ; ret ; (1 found)
0x6e39f0c1: add byte [ebp+0x244489C0], al ; sbb al, 0x89 ; ret ; (1 found)
0x6e38a0d6: add byte [ebp+0x538D061C], cl ; dec byte [ecx+0x3920245C] ; retn 0x5489 ; (1 found)
0x6e3a3f3f: add byte [ebp+0x5E5BF465], cl ; pop edi ; pop ebp ; ret ; (1 found)
0x6e381470: add byte [ebp-0x38D68B0A], al ; add al, 0x24 ; add byte [eax+0x3A], ah ; outsb ; call  [0x6E3AB140] ; (1 found)
0x6e393da1: add byte [ebp-0x76E7FCBC], cl ; ret ; (1 found)
0x6e3a442d: add byte [ebp-0x7C218A40], al ; les ebx,  [ecx+ecx*4] ; fimul word [ecx+0x5F5E5BF0] ; pop ebp ; ret ; (1 found)
0x6e3a39c6: add byte [ebp-0x7CE08B40], al ; in al, dx ; or al, 0x66 ; nop ; call eax ; (1 found)
0x6e389056: add byte [ebx+0x0F742454], cl ; scasd ; ret ; (1 found)
0x6e394619: add byte [ebx+0x0FD28511], cl ; mov ss, word [eax-0x7C000008] ; retn 0xB901 ; (1 found)
0x6e3a412f: add byte [ebx+0x24048903], cl ; call ebp ; (1 found)
0x6e3810ad: add byte [ebx+0x5E5B10C4], al ; pop edi ; retn 0x000C ; (1 found)
0x6e3811ea: add byte [ebx+0x5E5B10C4], al ; pop edi ; retn 0x000C ; (1 found)
0x6e389c5f: add byte [ebx+0x5E5B4CC4], al ; pop edi ; pop ebp ; ret ; (1 found)
0x6e39aa1e: add byte [ebx+0x5E5B4CC4], al ; pop edi ; pop ebp ; ret ; (1 found)
0x6e39aa1f: add byte [ebx+0x5E5B4CC4], al ; pop edi ; pop ebp ; ret ; (1 found)
0x6e3a06eb: add byte [ebx+0x5E5B4CC4], al ; pop edi ; pop ebp ; ret ; (1 found)
0x6e3a13ec: add byte [ebx+0x5E5B4CC4], al ; pop edi ; pop ebp ; ret ; (1 found)
0x6e38484f: add byte [ebx+0x5E5B5CC4], al ; pop edi ; pop ebp ; ret ; (1 found)
0x6e38839f: add byte [ebx+0x5E5B5CC4], al ; pop edi ; pop ebp ; ret ; (1 found)
0x6e38b134: add byte [ebx+0x5E5B5CC4], al ; pop edi ; pop ebp ; ret ; (1 found)
0x6e38b6e3: add byte [ebx+0x5E5B5CC4], al ; pop edi ; pop ebp ; ret ; (1 found)
0x6e38c82f: add byte [ebx+0x5E5B5CC4], al ; pop edi ; pop ebp ; ret ; (1 found)
0x6e38d8f5: add byte [ebx+0x5E5B5CC4], al ; pop edi ; pop ebp ; ret ; (1 found)
0x6e392529: add byte [ebx+0x5E5B5CC4], al ; pop edi ; pop ebp ; ret ; (1 found)
0x6e39e4fb: add byte [ebx+0x5E5B5CC4], al ; pop edi ; pop ebp ; ret ; (1 found)
0x6e39f41b: add byte [ebx+0x5E5B5CC4], al ; pop edi ; pop ebp ; ret ; (1 found)
0x6e383eae: add byte [ebx+0x5E5B6CC4], al ; pop edi ; pop ebp ; ret ; (1 found)
0x6e383eaf: add byte [ebx+0x5E5B6CC4], al ; pop edi ; pop ebp ; ret ; (1 found)
0x6e3859be: add byte [ebx+0x5E5B6CC4], al ; pop edi ; pop ebp ; ret ; (1 found)
0x6e3859bf: add byte [ebx+0x5E5B6CC4], al ; pop edi ; pop ebp ; ret ; (1 found)
0x6e395e63: add byte [ebx+0x5E5B7CC4], al ; pop edi ; pop ebp ; ret ; (1 found)
0x6e38e5da: add byte [ebx+0x5E], bl ; pop edi ; pop ebp ; ret ; (1 found)
0x6e38f145: add byte [ebx+0x5E], bl ; pop edi ; pop ebp ; ret ; (1 found)
0x6e38f4da: add byte [ebx+0x5E], bl ; pop edi ; pop ebp ; ret ; (1 found)
0x6e38fb45: add byte [ebx+0x5E], bl ; pop edi ; pop ebp ; ret ; (1 found)
0x6e3932a5: add byte [ebx+0x5E], bl ; pop edi ; pop ebp ; ret ; (1 found)
0x6e3935ca: add byte [ebx+0x5E], bl ; pop edi ; pop ebp ; ret ; (1 found)
0x6e396d19: add byte [ebx+0x5E], bl ; pop edi ; pop ebp ; ret ; (1 found)
0x6e397b46: add byte [ebx+0x5E], bl ; pop edi ; pop ebp ; ret ; (1 found)
0x6e398e4a: add byte [ebx+0x5E], bl ; pop edi ; pop ebp ; ret ; (1 found)
0x6e399d95: add byte [ebx+0x5E], bl ; pop edi ; pop ebp ; ret ; (1 found)
0x6e39adc5: add byte [ebx+0x5E], bl ; pop edi ; pop ebp ; ret ; (1 found)
0x6e39b078: add byte [ebx+0x5E], bl ; pop edi ; pop ebp ; ret ; (1 found)
0x6e39ba06: add byte [ebx+0x5E], bl ; pop edi ; pop ebp ; ret ; (1 found)
0x6e39c745: add byte [ebx+0x5E], bl ; pop edi ; pop ebp ; ret ; (1 found)
0x6e39d825: add byte [ebx+0x5E], bl ; pop edi ; pop ebp ; ret ; (1 found)
0x6e3a2445: add byte [ebx+0x5E], bl ; pop edi ; pop ebp ; ret ; (1 found)
0x6e38175f: add byte [ebx+0x5E], bl ; pop edi ; ret ; (1 found)
0x6e381168: add byte [ebx+0x5E], bl ; pop edi ; retn 0x000C ; (1 found)
0x6e3845ef: add byte [ebx+0x5E], bl ; ret ; (1 found)
0x6e3a434f: add byte [ebx+0x66042444], cl ; cmp  [eax], 0x05745A4D ; xor eax, eax ; ret ; (1 found)
0x6e3a466f: add byte [ebx-0x00CEF73C], al ; mov eax, edi ; pop ebx ; pop esi ; pop edi ; ret ; (1 found)
0x6e38d0bf: add byte [ebx-0x1126EF3C], al ; pop ebx ; ret ; (1 found)
0x6e383415: add byte [ebx-0x1E26D33C], al ; ret ; (1 found)
0x6e38340f: add byte [ebx-0x22CBDBBC], cl ; add byte [ebx-0x1E26D33C], al ; ret ; (1 found)
0x6e3a3977: add byte [ebx-0x2776D73C], al ; pop ebx ; ret ; (1 found)
0x6e381b8f: add byte [ebx-0x27], bl ; out dx, al ; pop esi ; pop edi ; ret ; (1 found)
0x6e38102d: add byte [ebx-0x3FCEE73C], al ; pop ebx ; ret ; (1 found)
0x6e39f5dc: add byte [ebx-0x6AF0FE08], al ; retn 0xC085 ; (1 found)
0x6e381eca: add byte [ebx-0x7AE3DBB4], cl ; ror byte [edi], 0x4E ; retn 0x548B ; (1 found)
0x6e386394: add byte [ebx-0x7AF0FE07], al ; retn 0x0000 ; (1 found)
0x6e38ed73: add byte [ebx], al ; mov word [esp+ebp*4+0x00], fs ; add byte [eax], al ; add byte [ecx-0x7CD7DB94], cl ; rcl byte [eax], 0x83 ; retn 0xBD10 ; (1 found)
0x6e39329f: add byte [ecx+0x00008CC4], al ; add byte [ebx+0x5E], bl ; pop edi ; pop ebp ; ret ; (1 found)
0x6e399d8f: add byte [ecx+0x00008CC4], al ; add byte [ebx+0x5E], bl ; pop edi ; pop ebp ; ret ; (1 found)
0x6e39d81f: add byte [ecx+0x00008CC4], al ; add byte [ebx+0x5E], bl ; pop edi ; pop ebp ; ret ; (1 found)
0x6e3a243f: add byte [ecx+0x00008CC4], al ; add byte [ebx+0x5E], bl ; pop edi ; pop ebp ; ret ; (1 found)
0x6e39adbf: add byte [ecx+0x00009CC4], al ; add byte [ebx+0x5E], bl ; pop edi ; pop ebp ; ret ; (1 found)
0x6e38f13f: add byte [ecx+0x0000ACC4], al ; add byte [ebx+0x5E], bl ; pop edi ; pop ebp ; ret ; (1 found)
0x6e38fb3e: add byte [ecx+0x0000CCC4], al ; add byte [ebx+0x5E], bl ; pop edi ; pop ebp ; ret ; (1 found)
0x6e38fb3f: add byte [ecx+0x0000CCC4], al ; add byte [ebx+0x5E], bl ; pop edi ; pop ebp ; ret ; (1 found)
0x6e39c73e: add byte [ecx+0x0000CCC4], al ; add byte [ebx+0x5E], bl ; pop edi ; pop ebp ; ret ; (1 found)
0x6e39c73f: add byte [ecx+0x0000CCC4], al ; add byte [ebx+0x5E], bl ; pop edi ; pop ebp ; ret ; (1 found)
0x6e39630f: add byte [ecx+0x0FF029E8], cl ; scasd ; retn 0x688D ; (1 found)
0x6e393eb3: add byte [ecx+0x24448BC5], cl ; xor byte [ecx], al ; ret ; (1 found)
0x6e39b2c7: add byte [ecx+0x2910245C], cl ; retn 0xD089 ; (1 found)
0x6e3a3d7f: add byte [ecx-0x5EFBDBBC], cl ; fcom qword [ebx+0x448B6E3A] ; sbb byte [ecx+ecx*4], al ; add al, 0x24 ; call  [0x6E3AB160] ; (1 found)
0x6e381149: add byte [ecx-0x74F7DBAC], cl ; push esp ; and al, 0x20 ; mov  [esp+0x00], edx ; call eax ; (1 found)
0x6e3a3fbc: add byte [ecx-0x74FBDBB4], cl ; inc eax ; add al, 0x89 ; add al, 0x24 ; call  [0x6E3AB160] ; (1 found)
0x6e3a3dc2: add byte [ecx-0x74FBDBBC], cl ; inc esp ; and al, 0x14 ; mov  [esp+0x0C], ebx ; mov  [esp+0x00], eax ; call  [0x6E3AB15C] ; (1 found)
0x6e385fad: add byte [ecx-0x76BFDBA4], cl ; ret ; (1 found)
0x6e385e0e: add byte [ecx-0x76E3DBA4], cl ; ret ; (1 found)
0x6e3a1a4f: add byte [ecx-0x7C01FE16], cl ; ret ; (1 found)
0x6e38ed7a: add byte [ecx-0x7CD7DB94], cl ; rcl byte [eax], 0x83 ; retn 0xBD10 ; (1 found)
0x6e385d8b: add byte [ecx-0x7CF7DB94], cl ; ret ; (1 found)
0x6e3a2e92: add byte [ecx], ah ; retn 0x448B ; (1 found)
0x6e3a3062: add byte [ecx], ah ; retn 0x448B ; (1 found)
0x6e3a3604: add byte [ecx], ah ; retn 0x448B ; (1 found)
0x6e3a37b9: add byte [ecx], ah ; retn 0x448B ; (1 found)
0x6e3a2cbb: add byte [ecx], ah ; retn 0x5489 ; (1 found)
0x6e3a321d: add byte [ecx], ah ; retn 0x5489 ; (1 found)
0x6e39ceac: add byte [ecx], ah ; retn 0x848B ; (1 found)
0x6e3a1910: add byte [ecx], al ; enter 0xEF39, 0xD9 ; ret ; (1 found)
0x6e3a1b32: add byte [ecx], al ; enter 0xEF39, 0xD9 ; ret ; (1 found)
0x6e3a09f0: add byte [ecx], al ; fdivr  [ecx] ; rcr ecx, 1 ; ret ; (1 found)
0x6e391fe9: add byte [ecx], al ; fmul  [ebx-0x76CBDBAC] ; ret ; (1 found)
0x6e384749: add byte [ecx], al ; int 0x39 ; ret ; (1 found)
0x6e382ac8: add byte [ecx], al ; ret ; (1 found)
0x6e38bff1: add byte [ecx], al ; ret ; (1 found)
0x6e3810df: add byte [ecx], bh ; fmul  [edi] ; test byte [ecx+eax], cl ; add byte [eax], al ; mov  [esp+0x00], 0x000003E8 ; call edi ; (1 found)
0x6e399f11: add byte [ecx], bh ; ret ; (1 found)
0x6e39f6da: add byte [ecx], ch ; retn 0x5489 ; (1 found)
0x6e3a01c0: add byte [ecx], ch ; retn 0x5489 ; (1 found)
0x6e38ea14: add byte [ecx], ch ; retn 0xAF0F ; (1 found)
0x6e38ea34: add byte [ecx], ch ; retn 0xAF0F ; (1 found)
0x6e3971e4: add byte [ecx], ch ; retn 0xAF0F ; (1 found)
0x6e397204: add byte [ecx], ch ; retn 0xAF0F ; (1 found)
0x6e3a4934: add byte [ecx], dh ; rol byte [ebx-0x6F3CC33C], 0x90 ; nop ; nop ; nop ; jmp  [0x6E3AB198] ; (1 found)
0x6e3a469f: add byte [edi-0x15], dh ; sub ecx, eax ; or  [ecx], 0x00000000 ; pop eax ; pop ecx ; ret ; (1 found)
0x6e397b52: add byte [edi], al ; add byte [eax], al ; add bl, ch ; ret ; (1 found)
0x6e39ba12: add byte [edi], al ; add byte [eax], al ; add bl, ch ; ret ; (1 found)
0x6e3831f0: add byte [edi], cl ; dec eax ; rol  [ebx-0x7BF0FE02], 1 ; ret ; (1 found)
0x6e386d3d: add byte [edi], cl ; dec ecx ; ret ; (1 found)
0x6e382be1: add byte [edi], cl ; dec edi ; ret ; (1 found)
0x6e38f163: add byte [edi], cl ; dec edi ; retn 0x0739 ; (1 found)
0x6e389fca: add byte [edi], cl ; scasd ; ret ; (1 found)
0x6e390938: add byte [edi], cl ; test  [ecx-0x26FFFFFF], ebp ; ret ; (1 found)
0x6e39d245: add byte [edi], cl ; wait ; ror byte [edi], 0x45 ; retn 0x548B ; (1 found)
0x6e39e005: add byte [edi], cl ; wait ; ror byte [edi], 0x45 ; retn 0x548B ; (1 found)
0x6e385961: add byte [edi], cl ; xchg eax, esp ; ret ; (1 found)
0x6e385a71: add byte [edi], cl ; xchg eax, esp ; ret ; (1 found)
0x6e39bd56: add ch, bl ; add ch, bl ; inc eax ; or cl, bl ; ret ; (1 found)
0x6e3a281d: add ch, bl ; add ebx, ecx ; retn 0xCAD8 ; (1 found)
0x6e3a349d: add ch, bl ; add ebx, ecx ; retn 0xCAD8 ; (1 found)
0x6e383a18: add ch, bl ; add ecx, ebx ; ret ; (1 found)
0x6e38315f: add ch, bl ; fadd  [ebx+0x5E5B3CC4] ; pop edi ; pop ebp ; ret ; (1 found)
0x6e38950f: add ch, bl ; fadd  [ebx+0x5E5B4CC4] ; pop edi ; pop ebp ; ret ; (1 found)
0x6e381ccf: add ch, bl ; fadd  [ebx+0x5E5B5CC4] ; pop edi ; pop ebp ; ret ; (1 found)
0x6e38a42e: add ch, bl ; fadd  [ebx+0x5E5B6CC4] ; pop edi ; pop ebp ; ret ; (1 found)
0x6e38a42f: add ch, bl ; fadd  [ebx+0x5E5B6CC4] ; pop edi ; pop ebp ; ret ; (1 found)
0x6e3a47be: add ch, bl ; fcomp st0, st1 ; out dx, al ; add esp, 0x3C ; fchs ; ret ; (1 found)
0x6e3a47bf: add ch, bl ; fcomp st0, st1 ; out dx, al ; add esp, 0x3C ; fchs ; ret ; (1 found)
0x6e384f1f: add ch, bl ; fcomp st0, st5 ; fadd  [ebx+0x5E5B3CC4] ; pop edi ; pop ebp ; ret ; (1 found)
0x6e394c8e: add ch, bl ; fcomp st0, st5 ; fadd  [ebx+0x5E5B5CC4] ; pop edi ; pop ebp ; ret ; (1 found)
0x6e394c8f: add ch, bl ; fcomp st0, st5 ; fadd  [ebx+0x5E5B5CC4] ; pop edi ; pop ebp ; ret ; (1 found)
0x6e3a1d87: add ch, bl ; fcomp st0, st5 ; fmul  [ebx-0x7CE7DBA4] ; retn 0x2910 ; (1 found)
0x6e39bd58: add ch, bl ; inc eax ; or cl, bl ; ret ; (1 found)
0x6e381efe: add ch, bl ; inc esp ; ret ; (1 found)
0x6e381eff: add ch, bl ; inc esp ; ret ; (1 found)
0x6e38203f: add ch, bl ; inc esp ; ret ; (1 found)
0x6e384c23: add ch, bl ; inc esp ; ret ; (1 found)
0x6e3886cf: add ch, bl ; inc esp ; ret ; (1 found)
0x6e3887ef: add ch, bl ; inc esp ; ret ; (1 found)
0x6e388a4f: add ch, bl ; inc esp ; retn 0x8308 ; (1 found)
0x6e3840df: add ch, bl ; inc esp ; retn 0xD908 ; (1 found)
0x6e38899f: add ch, bl ; inc esp ; retn 0xDC10 ; (1 found)
0x6e38354f: add ch, bl ; inc esp ; retn 0xDDF8 ; (1 found)
0x6e38b6e0: add ch, bl ; pop ebp ; add byte [ebx+0x5E5B5CC4], al ; pop edi ; pop ebp ; ret ; (1 found)
0x6e389a40: add ch, bl ; sbb byte [ecx-0x7C8BDBBC], cl ; les ecx,  [ebx+ebx*2+0x5E] ; pop edi ; pop ebp ; ret ; (1 found)
0x6e38190e: add ch, byte [ecx] ; ret ; (1 found)
0x6e3a472e: add cl, bl ; cli ; add esp, 0x3C ; ret ; (1 found)
0x6e3a472f: add cl, bl ; cli ; add esp, 0x3C ; ret ; (1 found)
0x6e3833ff: add cl, bl ; out dx, al ; add esp, 0x2C ; ret ; (1 found)
0x6e3815ef: add cl, bl ; out dx, al ; pop ebx ; pop esi ; ret ; (1 found)
0x6e38df47: add cl, bl ; ret ; (1 found)
0x6e39093e: add cl, bl ; ret ; (1 found)
0x6e3965b7: add cl, bl ; ret ; (1 found)
0x6e39c0aa: add cl, bl ; ret ; (1 found)
0x6e39ec16: add cl, bl ; ret ; (1 found)
0x6e39f1c6: add cl, bl ; ret ; (1 found)
0x6e386cf2: add cl, ch ; cmp bh, 0xFF ; call  [eax+0x0026B48D] ; (1 found)
0x6e3a2647: add cl, ch ; ret ; (1 found)
0x6e3a0908: add cl, ch ; retn 0xFFFD ; (1 found)
0x6e387437: add dh, bl ; retn 0x04DD ; (1 found)
0x6e39c18f: add dh, bl ; retn 0xCAD9 ; (1 found)
0x6e381029: add eax,  [eax] ; add byte [eax], al ; add byte [ebx-0x3FCEE73C], al ; pop ebx ; ret ; (1 found)
0x6e3a442b: add eax,  [eax] ; add byte [ebp-0x7C218A40], al ; les ebx,  [ecx+ecx*4] ; fimul word [ecx+0x5F5E5BF0] ; pop ebp ; ret ; (1 found)
0x6e3a1d85: add eax,  [eax] ; add ch, bl ; fcomp st0, st5 ; fmul  [ebx-0x7CE7DBA4] ; retn 0x2910 ; (1 found)
0x6e3a433a: add eax, 0x66C3C031 ; nop ; cmp word [eax+0x18], 0x010B ; sete al ; movzx eax, al ; ret ; (1 found)
0x6e383c1b: add eax, 0x6E3A60FC ; fstp qword [eax] ; add esp, 0x2C ; pop ebx ; pop esi ; ret ; (1 found)
0x6e38115b: add eax, 0x6E3A9000 ; add  [ebx+0x01B810C4], eax ; add byte [eax], al ; add byte [ebx+0x5E], bl ; pop edi ; retn 0x000C ; (1 found)
0x6e3a3de0: add eax, 0x6E3A93D8 ; add  [ebx+0x5E5B30C4], eax ; pop edi ; ret ; (1 found)
0x6e3a42ee: add eax, 0x6E3A93E4 ; add  [eax], eax ; add byte [eax], al ; mov eax, 0x00000001 ; add esp, 0x1C ; ret ; (1 found)
0x6e3a42c9: add eax, 0x6E3A93E4 ; add byte [eax], al ; add byte [eax], al ; mov  [esp+0x00], 0x6E3A93E8 ; call  [0x6E3AB10C] ; (1 found)
0x6e3823c7: add eax, 0x83000001 ; call  [edi+ecx-0x7C] ; (1 found)
0x6e38315c: add eax, 0xDD00768D ; fadd  [ebx+0x5E5B3CC4] ; pop edi ; pop ebp ; ret ; (1 found)
0x6e38d395: add ebp, ebx ; add al, byte [ecx] ; fcmovu st0, st1 ; ret ; (1 found)
0x6e38df45: add ebp, ebx ; add cl, bl ; ret ; (1 found)
0x6e3965b5: add ebp, ebx ; add cl, bl ; ret ; (1 found)
0x6e389454: add ebp, ebx ; inc esp ; ret ; (1 found)
0x6e3893a7: add ebp, ebx ; inc esp ; retn 0x3910 ; (1 found)
0x6e3a281f: add ebx, ecx ; retn 0xCAD8 ; (1 found)
0x6e3a349f: add ebx, ecx ; retn 0xCAD8 ; (1 found)
0x6e38897b: add ebx, esp ; dec edx ; or byte [ebx-0x7CDBDBBC], cl ; ret ; (1 found)
0x6e3a4131: add ecx,  [ecx-0x2A00DBFC] ; sub esp, 0x04 ; mov esi, eax ; call edi ; (1 found)
0x6e3832cf: add ecx,  [ecx-0x7CEFDBBC] ; ret ; (1 found)
0x6e38902e: add ecx, ebp ; ret ; (1 found)
0x6e383a1a: add ecx, ebx ; ret ; (1 found)
0x6e3917e9: add ecx, ebx ; ret ; (1 found)
0x6e391e1c: add ecx, ebx ; ret ; (1 found)
0x6e39289c: add ecx, ebx ; ret ; (1 found)
0x6e39293a: add ecx, ebx ; ret ; (1 found)
0x6e392b0e: add ecx, ebx ; ret ; (1 found)
0x6e392d45: add ecx, ebx ; ret ; (1 found)
0x6e392dcd: add ecx, ebx ; ret ; (1 found)
0x6e392e5c: add ecx, ebx ; ret ; (1 found)
0x6e393099: add ecx, ebx ; ret ; (1 found)
0x6e3930e5: add ecx, ebx ; ret ; (1 found)
0x6e3a0efa: add ecx, ebx ; ret ; (1 found)
0x6e3a1257: add ecx, ebx ; ret ; (1 found)
0x6e3a4660: add edi, 0x6E380000 ; mov eax, edi ; pop edi ; ret ; (1 found)
0x6e3a3bad: add esi,  [eax+edx-0x48] ; add  [eax], eax ; add byte [eax], al ; add esp, 0x1C ; retn 0x000C ; (1 found)
0x6e3a44ac: add esi, ebx ; ret ; (1 found)
0x6e38e5d5: add esp, 0x0000008C ; pop ebx ; pop esi ; pop edi ; pop ebp ; ret ; (1 found)
0x6e3932a0: add esp, 0x0000008C ; pop ebx ; pop esi ; pop edi ; pop ebp ; ret ; (1 found)
0x6e3935c5: add esp, 0x0000008C ; pop ebx ; pop esi ; pop edi ; pop ebp ; ret ; (1 found)
0x6e398e45: add esp, 0x0000008C ; pop ebx ; pop esi ; pop edi ; pop ebp ; ret ; (1 found)
0x6e399d90: add esp, 0x0000008C ; pop ebx ; pop esi ; pop edi ; pop ebp ; ret ; (1 found)
0x6e39d820: add esp, 0x0000008C ; pop ebx ; pop esi ; pop edi ; pop ebp ; ret ; (1 found)
0x6e3a2440: add esp, 0x0000008C ; pop ebx ; pop esi ; pop edi ; pop ebp ; ret ; (1 found)
0x6e396d14: add esp, 0x0000009C ; pop ebx ; pop esi ; pop edi ; pop ebp ; ret ; (1 found)
0x6e39adc0: add esp, 0x0000009C ; pop ebx ; pop esi ; pop edi ; pop ebp ; ret ; (1 found)
0x6e39b073: add esp, 0x0000009C ; pop ebx ; pop esi ; pop edi ; pop ebp ; ret ; (1 found)
0x6e38f140: add esp, 0x000000AC ; pop ebx ; pop esi ; pop edi ; pop ebp ; ret ; (1 found)
0x6e38f4d5: add esp, 0x000000AC ; pop ebx ; pop esi ; pop edi ; pop ebp ; ret ; (1 found)
0x6e39ba01: add esp, 0x000000AC ; pop ebx ; pop esi ; pop edi ; pop ebp ; ret ; (1 found)
0x6e397b41: add esp, 0x000000BC ; pop ebx ; pop esi ; pop edi ; pop ebp ; ret ; (1 found)
0x6e38fb40: add esp, 0x000000CC ; pop ebx ; pop esi ; pop edi ; pop ebp ; ret ; (1 found)
0x6e39c740: add esp, 0x000000CC ; pop ebx ; pop esi ; pop edi ; pop ebp ; ret ; (1 found)
0x6e3a4461: add esp, 0x08 ; mov eax, ebx ; pop ebx ; ret ; (1 found)
0x6e3a45f7: add esp, 0x08 ; mov eax, edi ; pop ebx ; pop esi ; pop edi ; ret ; (1 found)
0x6e3a4497: add esp, 0x08 ; mov ebx, eax ; mov eax, ebx ; pop ebx ; ret ; (1 found)
0x6e3a45c6: add esp, 0x08 ; ret ; (1 found)
0x6e3834eb: add esp, 0x0C ; pop ebx ; pop esi ; pop edi ; pop ebp ; ret ; (1 found)
0x6e3a39e7: add esp, 0x0C ; rep ret ; (1 found)
0x6e38d0c0: add esp, 0x10 ; fldz ; pop ebx ; ret ; (1 found)
0x6e381161: add esp, 0x10 ; mov eax, 0x00000001 ; pop ebx ; pop esi ; pop edi ; retn 0x000C ; (1 found)
0x6e3810ae: add esp, 0x10 ; pop ebx ; pop esi ; pop edi ; retn 0x000C ; (1 found)
0x6e3811eb: add esp, 0x10 ; pop ebx ; pop esi ; pop edi ; retn 0x000C ; (1 found)
0x6e38d0b1: add esp, 0x10 ; pop ebx ; ret ; (1 found)
0x6e38d102: add esp, 0x10 ; pop ebx ; ret ; (1 found)
0x6e38d04e: add esp, 0x14 ; fabs ; fxch st0, st1 ; fabs ; faddp st1, st0 ; ret ; (1 found)
0x6e38d28d: add esp, 0x14 ; pop ebx ; pop esi ; ret ; (1 found)
0x6e38d2ee: add esp, 0x14 ; pop ebx ; pop esi ; ret ; (1 found)
0x6e38d293: add esp, 0x14 ; xor eax, eax ; pop ebx ; pop esi ; ret ; (1 found)
0x6e381035: add esp, 0x18 ; mov eax, 0x00000001 ; pop ebx ; ret ; (1 found)
0x6e3a3c15: add esp, 0x18 ; mov eax, 0x00000001 ; pop ebx ; retn 0x000C ; (1 found)
0x6e3a3c43: add esp, 0x18 ; mov eax, 0x00000001 ; pop ebx ; retn 0x000C ; (1 found)
0x6e395c15: add esp, 0x18 ; pop ebx ; pop esi ; pop edi ; ret ; (1 found)
0x6e3a3a1b: add esp, 0x18 ; pop ebx ; ret ; (1 found)
0x6e3a41db: add esp, 0x18 ; pop ebx ; ret ; (1 found)
0x6e38102e: add esp, 0x18 ; xor eax, eax ; pop ebx ; ret ; (1 found)
0x6e3a4201: add esp, 0x18 ; xor eax, eax ; pop ebx ; ret ; (1 found)
0x6e3a4251: add esp, 0x18 ; xor eax, eax ; pop ebx ; ret ; (1 found)
0x6e3a39b4: add esp, 0x1C ; movzx eax, al ; neg eax ; ret ; (1 found)
0x6e3a4165: add esp, 0x1C ; pop ebx ; pop esi ; pop edi ; pop ebp ; ret ; (1 found)
0x6e3a42b1: add esp, 0x1C ; ret ; (1 found)
0x6e3a42fc: add esp, 0x1C ; ret ; (1 found)
0x6e381433: add esp, 0x1C ; retn 0x000C ; (1 found)
0x6e3a3bb5: add esp, 0x1C ; retn 0x000C ; (1 found)
0x6e3a3bdd: add esp, 0x1C ; retn 0x000C ; (1 found)
0x6e3a3978: add esp, 0x28 ; mov eax, ebx ; pop ebx ; ret ; (1 found)
0x6e3a398d: add esp, 0x28 ; pop ebx ; ret ; (1 found)
0x6e383416: add esp, 0x2C ; fabs ; ret ; (1 found)
0x6e3a3a8a: add esp, 0x2C ; pop ebx ; pop esi ; pop edi ; pop ebp ; ret ; (1 found)
0x6e3a3af7: add esp, 0x2C ; pop ebx ; pop esi ; pop edi ; pop ebp ; ret ; (1 found)
0x6e383b5c: add esp, 0x2C ; pop ebx ; pop esi ; ret ; (1 found)
0x6e383c22: add esp, 0x2C ; pop ebx ; pop esi ; ret ; (1 found)
0x6e383d66: add esp, 0x2C ; pop ebx ; pop esi ; ret ; (1 found)
0x6e383d89: add esp, 0x2C ; pop ebx ; pop esi ; ret ; (1 found)
0x6e3833f3: add esp, 0x2C ; ret ; (1 found)
0x6e383402: add esp, 0x2C ; ret ; (1 found)
0x6e38d1e0: add esp, 0x2C ; ret ; (1 found)
0x6e38d1e6: add esp, 0x2C ; ret ; (1 found)
0x6e3a3de6: add esp, 0x30 ; pop ebx ; pop esi ; pop edi ; ret ; (1 found)
0x6e3a47c4: add esp, 0x3C ; fchs ; ret ; (1 found)
0x6e383162: add esp, 0x3C ; pop ebx ; pop esi ; pop edi ; pop ebp ; ret ; (1 found)
0x6e383297: add esp, 0x3C ; pop ebx ; pop esi ; pop edi ; pop ebp ; ret ; (1 found)
0x6e384f24: add esp, 0x3C ; pop ebx ; pop esi ; pop edi ; pop ebp ; ret ; (1 found)
0x6e386960: add esp, 0x3C ; pop ebx ; pop esi ; pop edi ; pop ebp ; ret ; (1 found)
0x6e3a4732: add esp, 0x3C ; ret ; (1 found)
0x6e3a47a2: add esp, 0x3C ; ret ; (1 found)
0x6e3a48c7: add esp, 0x3C ; ret ; (1 found)
0x6e3a4937: add esp, 0x3C ; ret ; (1 found)
0x6e383666: add esp, 0x44 ; pop ebx ; pop esi ; ret ; (1 found)
0x6e3836b0: add esp, 0x44 ; pop ebx ; pop esi ; ret ; (1 found)
0x6e385281: add esp, 0x4C ; pop ebx ; pop esi ; pop edi ; pop ebp ; ret ; (1 found)
0x6e3853f5: add esp, 0x4C ; pop ebx ; pop esi ; pop edi ; pop ebp ; ret ; (1 found)
0x6e38554c: add esp, 0x4C ; pop ebx ; pop esi ; pop edi ; pop ebp ; ret ; (1 found)
0x6e386cb0: add esp, 0x4C ; pop ebx ; pop esi ; pop edi ; pop ebp ; ret ; (1 found)
0x6e386f8d: add esp, 0x4C ; pop ebx ; pop esi ; pop edi ; pop ebp ; ret ; (1 found)
0x6e388ca4: add esp, 0x4C ; pop ebx ; pop esi ; pop edi ; pop ebp ; ret ; (1 found)
0x6e389512: add esp, 0x4C ; pop ebx ; pop esi ; pop edi ; pop ebp ; ret ; (1 found)
0x6e389a47: add esp, 0x4C ; pop ebx ; pop esi ; pop edi ; pop ebp ; ret ; (1 found)
0x6e389c60: add esp, 0x4C ; pop ebx ; pop esi ; pop edi ; pop ebp ; ret ; (1 found)
0x6e38e2d4: add esp, 0x4C ; pop ebx ; pop esi ; pop edi ; pop ebp ; ret ; (1 found)
0x6e38e45e: add esp, 0x4C ; pop ebx ; pop esi ; pop edi ; pop ebp ; ret ; (1 found)
0x6e396a04: add esp, 0x4C ; pop ebx ; pop esi ; pop edi ; pop ebp ; ret ; (1 found)
0x6e396b8e: add esp, 0x4C ; pop ebx ; pop esi ; pop edi ; pop ebp ; ret ; (1 found)
0x6e398851: add esp, 0x4C ; pop ebx ; pop esi ; pop edi ; pop ebp ; ret ; (1 found)
0x6e39aa20: add esp, 0x4C ; pop ebx ; pop esi ; pop edi ; pop ebp ; ret ; (1 found)
0x6e3a06ec: add esp, 0x4C ; pop ebx ; pop esi ; pop edi ; pop ebp ; ret ; (1 found)
0x6e3a0e88: add esp, 0x4C ; pop ebx ; pop esi ; pop edi ; pop ebp ; ret ; (1 found)
0x6e3a13ed: add esp, 0x4C ; pop ebx ; pop esi ; pop edi ; pop ebp ; ret ; (1 found)
0x6e381cd2: add esp, 0x5C ; pop ebx ; pop esi ; pop edi ; pop ebp ; ret ; (1 found)
0x6e382c13: add esp, 0x5C ; pop ebx ; pop esi ; pop edi ; pop ebp ; ret ; (1 found)
0x6e384850: add esp, 0x5C ; pop ebx ; pop esi ; pop edi ; pop ebp ; ret ; (1 found)
0x6e3883a0: add esp, 0x5C ; pop ebx ; pop esi ; pop edi ; pop ebp ; ret ; (1 found)
0x6e38b135: add esp, 0x5C ; pop ebx ; pop esi ; pop edi ; pop ebp ; ret ; (1 found)
0x6e38b619: add esp, 0x5C ; pop ebx ; pop esi ; pop edi ; pop ebp ; ret ; (1 found)
0x6e38b6e4: add esp, 0x5C ; pop ebx ; pop esi ; pop edi ; pop ebp ; ret ; (1 found)
0x6e38c830: add esp, 0x5C ; pop ebx ; pop esi ; pop edi ; pop ebp ; ret ; (1 found)
0x6e38d8f6: add esp, 0x5C ; pop ebx ; pop esi ; pop edi ; pop ebp ; ret ; (1 found)
0x6e39252a: add esp, 0x5C ; pop ebx ; pop esi ; pop edi ; pop ebp ; ret ; (1 found)
0x6e392d78: add esp, 0x5C ; pop ebx ; pop esi ; pop edi ; pop ebp ; ret ; (1 found)
0x6e394c94: add esp, 0x5C ; pop ebx ; pop esi ; pop edi ; pop ebp ; ret ; (1 found)
0x6e39e4fc: add esp, 0x5C ; pop ebx ; pop esi ; pop edi ; pop ebp ; ret ; (1 found)
0x6e39f41c: add esp, 0x5C ; pop ebx ; pop esi ; pop edi ; pop ebp ; ret ; (1 found)
0x6e39b7ac: add esp, 0x60 ; pop ebx ; pop esi ; pop edi ; ret ; (1 found)
0x6e39b7d6: add esp, 0x60 ; pop ebx ; pop esi ; pop edi ; ret ; (1 found)
0x6e382513: add esp, 0x6C ; pop ebx ; pop esi ; pop edi ; pop ebp ; ret ; (1 found)
0x6e383eb0: add esp, 0x6C ; pop ebx ; pop esi ; pop edi ; pop ebp ; ret ; (1 found)
0x6e3859c0: add esp, 0x6C ; pop ebx ; pop esi ; pop edi ; pop ebp ; ret ; (1 found)
0x6e386214: add esp, 0x6C ; pop ebx ; pop esi ; pop edi ; pop ebp ; ret ; (1 found)
0x6e387bc2: add esp, 0x6C ; pop ebx ; pop esi ; pop edi ; pop ebp ; ret ; (1 found)
0x6e38a432: add esp, 0x6C ; pop ebx ; pop esi ; pop edi ; pop ebp ; ret ; (1 found)
0x6e38a695: add esp, 0x6C ; pop ebx ; pop esi ; pop edi ; pop ebp ; ret ; (1 found)
0x6e38b9c5: add esp, 0x6C ; pop ebx ; pop esi ; pop edi ; pop ebp ; ret ; (1 found)
0x6e38bc25: add esp, 0x6C ; pop ebx ; pop esi ; pop edi ; pop ebp ; ret ; (1 found)
0x6e3871d0: add esp, 0x7C ; pop ebx ; pop esi ; pop edi ; pop ebp ; ret ; (1 found)
0x6e390fb1: add esp, 0x7C ; pop ebx ; pop esi ; pop edi ; pop ebp ; ret ; (1 found)
0x6e3912d5: add esp, 0x7C ; pop ebx ; pop esi ; pop edi ; pop ebp ; ret ; (1 found)
0x6e395e64: add esp, 0x7C ; pop ebx ; pop esi ; pop edi ; pop ebp ; ret ; (1 found)
0x6e392526: and al, 0x01 ; add byte [ebx+0x5E5B5CC4], al ; pop edi ; pop ebp ; ret ; (1 found)
0x6e392527: and al, 0x01 ; add byte [ebx+0x5E5B5CC4], al ; pop edi ; pop ebp ; ret ; (1 found)
0x6e3814d3: and al, 0x04 ; aaa ; pushad ; cmp ch, byte [esi-0x77] ; add al, 0x24 ; call  [0x6E3AB12C] ; (1 found)
0x6e38148c: and al, 0x04 ; adc esp,  [eax+0x3A] ; outsb ; mov  [esp+0x00], esi ; call  [0x6E3AB12C] ; (1 found)
0x6e381521: and al, 0x04 ; dec ebx ; pushad ; cmp ch, byte [esi-0x77] ; add al, 0x24 ; call  [0x6E3AB12C] ; (1 found)
0x6e3a3d82: and al, 0x04 ; mov eax,  [0x6E3A93DC] ; mov eax,  [eax+ebx+0x04] ; mov  [esp+0x00], eax ; call  [0x6E3AB160] ; (1 found)
0x6e3a3fbf: and al, 0x04 ; mov eax,  [eax+0x04] ; mov  [esp+0x00], eax ; call  [0x6E3AB160] ; (1 found)
0x6e3a3ff0: and al, 0x04 ; mov eax,  [ebp-0x34] ; mov  [esp+0x00], eax ; call  [0x6E3AB15C] ; (1 found)
0x6e3a3dc5: and al, 0x04 ; mov eax,  [esp+0x14] ; mov  [esp+0x0C], ebx ; mov  [esp+0x00], eax ; call  [0x6E3AB15C] ; (1 found)
0x6e3a3c82: and al, 0x04 ; ret ; (1 found)
0x6e3a3c92: and al, 0x04 ; ret ; (1 found)
0x6e3a3fe9: and al, 0x08 ; mov eax,  [ebp-0x28] ; mov  [esp+0x04], eax ; mov eax,  [ebp-0x34] ; mov  [esp+0x00], eax ; call  [0x6E3AB15C] ; (1 found)
0x6e38114c: and al, 0x08 ; mov edx,  [esp+0x20] ; mov  [esp+0x00], edx ; call eax ; (1 found)
0x6e388c8a: and al, 0x08 ; push es ; add byte [eax], al ; add bh, al ; add al, 0x24 ; retn 0x3A60 ; (1 found)
0x6e3a3dcd: and al, 0x0C ; mov  [esp+0x00], eax ; call  [0x6E3AB15C] ; (1 found)
0x6e391fe3: and al, 0x0F ; lea edi,  [ebx+0x01000002] ; fmul  [ebx-0x76CBDBAC] ; ret ; (1 found)
0x6e3a1873: and al, 0x0F ; scasd ; ret ; (1 found)
0x6e3894b0: and al, 0x0F ; xchg eax, esp ; ret ; (1 found)
0x6e398d0e: and al, 0x10 ; add  [ebx-0x397CEF3D], eax ; adc cl, bl ; retn 0xC9D8 ; (1 found)
0x6e3a3a94: and al, 0x10 ; mov  [esp+0x00], eax ; call  [0x6E3AB130] ; (1 found)
0x6e3a48b8: and al, 0x10 ; mov  [esp+0x00], edx ; call eax ; (1 found)
0x6e3a3aa4: and al, 0x10 ; xor ebx,  [esp+0x14] ; call  [0x6E3AB11C] ; (1 found)
0x6e3a3aa8: and al, 0x14 ; call  [0x6E3AB11C] ; (1 found)
0x6e3a48b4: and al, 0x14 ; lea edx,  [esp+0x10] ; mov  [esp+0x00], edx ; call eax ; (1 found)
0x6e3a3dc9: and al, 0x14 ; mov  [esp+0x0C], ebx ; mov  [esp+0x00], eax ; call  [0x6E3AB15C] ; (1 found)
0x6e39ac12: and al, 0x18 ; add  [ebx-0x3C7CEF3E], eax ; adc cl, bl ; retn 0xC9D8 ; (1 found)
0x6e3a0ef8: and al, 0x18 ; add ecx, ebx ; ret ; (1 found)
0x6e3a1255: and al, 0x18 ; add ecx, ebx ; ret ; (1 found)
0x6e3a3ac4: and al, 0x18 ; mov  [esp+0x00], eax ; call  [0x6E3AB144] ; (1 found)
0x6e3814ed: and al, 0x18 ; push eax ; cmp ch, byte [esi-0x01] ; ror byte [ebp+0x5E5BF865], cl ; pop ebp ; ret ; (1 found)
0x6e392dcb: and al, 0x1C ; add ecx, ebx ; ret ; (1 found)
0x6e3930e3: and al, 0x1C ; add ecx, ebx ; ret ; (1 found)
0x6e3a41a0: and al, 0x20 ; mov  [esp+0x00], 0x6E3A93E8 ; mov  [ebx], eax ; mov eax,  [esp+0x24] ; mov  [ebx+0x04], eax ; call  [0x6E3AB110] ; (1 found)
0x6e381150: and al, 0x20 ; mov  [esp+0x00], edx ; call eax ; (1 found)
0x6e392938: and al, 0x24 ; add ecx, ebx ; ret ; (1 found)
0x6e393097: and al, 0x24 ; add ecx, ebx ; ret ; (1 found)
0x6e3a41ad: and al, 0x24 ; mov  [ebx+0x04], eax ; call  [0x6E3AB110] ; (1 found)
0x6e381140: and al, 0x28 ; mov  [esp+0x04], 0x00000002 ; mov  [esp+0x08], edx ; mov edx,  [esp+0x20] ; mov  [esp+0x00], edx ; call eax ; (1 found)
0x6e3a48b0: and al, 0x28 ; mov  [esp+0x14], edx ; lea edx,  [esp+0x10] ; mov  [esp+0x00], edx ; call eax ; (1 found)
0x6e389aea: and al, 0x29 ; retn 0x448B ; (1 found)
0x6e3a3982: and al, 0x30 ; mov  [esp+0x00], eax ; call  [0x6E3AB188] ; (1 found)
0x6e38b977: and al, 0x31 ; fild  [ebx-0x6BF0AA02] ; ret ; (1 found)
0x6e383412: and al, 0x34 ; fld qword [eax] ; add esp, 0x2C ; fabs ; ret ; (1 found)
0x6e3a48ac: and al, 0x44 ; fstp qword [esp+0x28] ; mov  [esp+0x14], edx ; lea edx,  [esp+0x10] ; mov  [esp+0x00], edx ; call eax ; (1 found)
0x6e39e0a4: and al, 0x60 ; add  [ebx-0x7CE7DB94], ecx ; retn 0x0110 ; (1 found)
0x6e3a2642: and al, 0x7C ; or eax, 0xE9000000 ; ret ; (1 found)
0x6e388982: and al, 0x83 ; ret ; (1 found)
0x6e39ed22: and al, 0x89 ; int 0x39 ; ror byte [edi], 1 ; dec edi ; retn 0x148D ; (1 found)
0x6e39edd6: and al, 0x89 ; int 0x39 ; ror byte [edi], 1 ; dec edi ; retn 0x148D ; (1 found)
0x6e3a3d40: and al, 0x89 ; ret ; (1 found)
0x6e3a0b35: and al, 0x89 ; retn 0xEAC1 ; (1 found)
0x6e39cea8: and al, 0x94 ; add byte [eax], al ; add byte [ecx], ah ; retn 0x848B ; (1 found)
0x6e38bf22: and al, 0x9C ; add byte [eax], al ; add byte [ebp+0x048DD10C], cl ; ret ; (1 found)
0x6e38c163: and al, 0x9C ; add byte [eax], al ; add byte [ebp+0x1C8D2A04], cl ; ret ; (1 found)
0x6e39ba0e: and al, 0x9C ; add byte [eax], al ; add byte [edi], al ; add byte [eax], al ; add bl, ch ; ret ; (1 found)
0x6e385d87: and al, 0xA8 ; add byte [eax], al ; add byte [ecx-0x7CF7DB94], cl ; ret ; (1 found)
0x6e38ed76: and al, 0xAC ; add byte [eax], al ; add byte [ecx-0x7CD7DB94], cl ; rcl byte [eax], 0x83 ; retn 0xBD10 ; (1 found)
0x6e397b4e: and al, 0xAC ; add byte [eax], al ; add byte [edi], al ; add byte [eax], al ; add bl, ch ; ret ; (1 found)
0x6e394615: and al, 0xB0 ; add byte [eax], al ; add byte [ebx+0x0FD28511], cl ; mov ss, word [eax-0x7C000008] ; retn 0xB901 ; (1 found)
0x6e393d9d: and al, 0xBC ; add byte [eax], al ; add byte [ebp-0x76E7FCBC], cl ; ret ; (1 found)
0x6e383d60: and al, 0xDD ; pop eax ; sbb ch, bl ; sbb byte [ebx+0x5E5B2CC4], al ; ret ; (1 found)
0x6e395bef: and al, 0xDE ; retn 0xC9D9 ; (1 found)
0x6e3a3bd2: and al, 0xE8 ; mov eax, 0xB8000006 ; add  [eax], eax ; add byte [eax], al ; add esp, 0x1C ; retn 0x000C ; (1 found)
0x6e3a492f: and al, 0xE8 ; or eax,  [eax] ; add byte [eax], al ; xor eax, eax ; add esp, 0x3C ; ret ; (1 found)
0x6e3a3b6a: and al, 0xF0 ; popad ; cmp ch, byte [esi-0x01] ; adc eax, 0x6E3AB158 ; sub esp, 0x04 ; call  [0x6E3AB118] ; (1 found)
0x6e38154d: and al, 0xFF ; adc eax, 0x6E3AB114 ; sub esp, 0x04 ; leave ; ret ; (1 found)
0x6e3a3a98: and al, 0xFF ; adc eax, 0x6E3AB130 ; sub esp, 0x04 ; mov ebx,  [esp+0x10] ; xor ebx,  [esp+0x14] ; call  [0x6E3AB11C] ; (1 found)
0x6e3a3986: and al, 0xFF ; adc eax, 0x6E3AB188 ; add esp, 0x28 ; pop ebx ; ret ; (1 found)
0x6e389451: and al, byte [ebx+0x44DD01C6] ; ret ; (1 found)
0x6e3a41fc: and byte [ebp-0x7CF08A40], al ; les ebx,  [eax] ; xor eax, eax ; pop ebx ; ret ; (1 found)
0x6e3884e0: and byte [ebx+0x311C2474], cl ; fild  [ebx-0x6AF0FE02] ; ret ; (1 found)
0x6e39e977: and byte [ebx-0x22DFDBBC], cl ; inc eax ; or ch, bl ; inc eax ; adc cl, bl ; ret ; (1 found)
0x6e389a13: and byte [ebx-0x76E3DB94], cl ; retn 0xC689 ; (1 found)
0x6e38bbe0: and byte [ebx-0x7CE3DBBC], cl ; ret ; (1 found)
0x6e3a3ab4: and byte [ecx-0x387691C6], dh ; call  [0x6E3AB134] ; (1 found)
0x6e389866: and byte [ecx-0x76D3DBBC], cl ; sar  [eax+0x00000001], 0xFFFFFF83 ; ret ; (1 found)
0x6e38b840: and byte [ecx-0x76D7DBAC], cl ; retn 0x04DD ; (1 found)
0x6e39ac03: and byte [ecx-0x76D7DBBC], cl ; ret ; (1 found)
0x6e38a0e0: and byte [ecx], bh ; retn 0x5489 ; (1 found)
0x6e384be8: and byte [edi], cl ; scasd ; mov byte [ebx+0x448901C0], 0x24 ; sbb al, 0xE9 ; sar ah, 0xFF ; call  [eax+0x0026B48D] ; (1 found)
0x6e3a2ca3: and byte [edi], cl ; wait ; retn 0x450F ; (1 found)
0x6e3a2e7a: and byte [edi], cl ; wait ; retn 0x450F ; (1 found)
0x6e3a304a: and byte [edi], cl ; wait ; retn 0x450F ; (1 found)
0x6e3a3205: and byte [edi], cl ; wait ; retn 0x450F ; (1 found)
0x6e3a35ec: and byte [edi], cl ; wait ; retn 0x450F ; (1 found)
0x6e3a37a1: and byte [edi], cl ; wait ; retn 0x450F ; (1 found)
0x6e39e97b: and ch, bl ; inc eax ; or ch, bl ; inc eax ; adc cl, bl ; ret ; (1 found)
0x6e383b59: and ch, bl ; sbb byte [ebx+0x5E5B2CC4], al ; ret ; (1 found)
0x6e383d86: and ch, bl ; sbb byte [ebx+0x5E5B2CC4], al ; ret ; (1 found)
0x6e386e42: and cl, bl ; ret ; (1 found)
0x6e397ed8: and dh, bl ; retn 0xC1DE ; (1 found)
0x6e3964d1: and dh, bl ; retn 0xC9D9 ; (1 found)
0x6e3a4949: and eax, 0x6E3AB16C ; nop ; nop ; jmp  [0x6E3AB1C0] ; (1 found)
0x6e3a4869: and eax, 0x6E3AB170 ; nop ; nop ; jmp  [0x6E3AB168] ; (1 found)
0x6e3a4861: and eax, 0x6E3AB174 ; nop ; nop ; jmp  [0x6E3AB170] ; (1 found)
0x6e3a4859: and eax, 0x6E3AB178 ; nop ; nop ; jmp  [0x6E3AB174] ; (1 found)
0x6e3a4851: and eax, 0x6E3AB17C ; nop ; nop ; jmp  [0x6E3AB178] ; (1 found)
0x6e3a4849: and eax, 0x6E3AB184 ; nop ; nop ; jmp  [0x6E3AB17C] ; (1 found)
0x6e3a4841: and eax, 0x6E3AB18C ; nop ; nop ; jmp  [0x6E3AB184] ; (1 found)
0x6e3a4839: and eax, 0x6E3AB190 ; nop ; nop ; jmp  [0x6E3AB18C] ; (1 found)
0x6e3a4831: and eax, 0x6E3AB194 ; nop ; nop ; jmp  [0x6E3AB190] ; (1 found)
0x6e3a4941: and eax, 0x6E3AB198 ; nop ; nop ; jmp  [0x6E3AB16C] ; (1 found)
0x6e3a4829: and eax, 0x6E3AB19C ; nop ; nop ; jmp  [0x6E3AB194] ; (1 found)
0x6e3a4821: and eax, 0x6E3AB1A0 ; nop ; nop ; jmp  [0x6E3AB19C] ; (1 found)
0x6e3a4819: and eax, 0x6E3AB1A4 ; nop ; nop ; jmp  [0x6E3AB1A0] ; (1 found)
0x6e3a4811: and eax, 0x6E3AB1A8 ; nop ; nop ; jmp  [0x6E3AB1A4] ; (1 found)
0x6e3a4809: and eax, 0x6E3AB1AC ; nop ; nop ; jmp  [0x6E3AB1A8] ; (1 found)
0x6e3a4801: and eax, 0x6E3AB1B0 ; nop ; nop ; jmp  [0x6E3AB1AC] ; (1 found)
0x6e3a47f9: and eax, 0x6E3AB1B4 ; nop ; nop ; jmp  [0x6E3AB1B0] ; (1 found)
0x6e3a47f1: and eax, 0x6E3AB1B8 ; nop ; nop ; jmp  [0x6E3AB1B4] ; (1 found)
0x6e3a3a03: call  [0x6E3A4980+ebx*4] ; (1 found)
0x6e3a42d9: call  [0x6E3AB10C] ; (1 found)
0x6e3a410e: call  [0x6E3AB110] ; (1 found)
0x6e3a41b2: call  [0x6E3AB110] ; (1 found)
0x6e3a4217: call  [0x6E3AB110] ; (1 found)
0x6e38154e: call  [0x6E3AB114] ; (1 found)
0x6e3a3b78: call  [0x6E3AB118] ; (1 found)
0x6e3a3aaa: call  [0x6E3AB11C] ; (1 found)
0x6e3a3ab2: call  [0x6E3AB120] ; (1 found)
0x6e3a3df4: call  [0x6E3AB124] ; (1 found)
0x6e38150d: call  [0x6E3AB128] ; (1 found)
0x6e381495: call  [0x6E3AB12C] ; (1 found)
0x6e3814dc: call  [0x6E3AB12C] ; (1 found)
0x6e38152a: call  [0x6E3AB12C] ; (1 found)
0x6e3a3a99: call  [0x6E3AB130] ; (1 found)
0x6e3a3aba: call  [0x6E3AB134] ; (1 found)
0x6e3a4307: call  [0x6E3AB138] ; (1 found)
0x6e3a415c: call  [0x6E3AB13C] ; (1 found)
0x6e3a41d0: call  [0x6E3AB13C] ; (1 found)
0x6e3a4248: call  [0x6E3AB13C] ; (1 found)
0x6e3a4275: call  [0x6E3AB13C] ; (1 found)
0x6e38147c: call  [0x6E3AB140] ; (1 found)
0x6e3a3ac9: call  [0x6E3AB144] ; (1 found)
0x6e3a3b5f: call  [0x6E3AB148] ; (1 found)
0x6e3a3b89: call  [0x6E3AB150] ; (1 found)
0x6e3a3b6f: call  [0x6E3AB158] ; (1 found)
0x6e3a3dd2: call  [0x6E3AB15C] ; (1 found)
0x6e3a3ff8: call  [0x6E3AB15C] ; (1 found)
0x6e3a3d90: call  [0x6E3AB160] ; (1 found)
0x6e3a3fc7: call  [0x6E3AB160] ; (1 found)
0x6e3a3987: call  [0x6E3AB188] ; (1 found)
0x6e38208e: call  [eax+0x000001B8] ; (1 found)
0x6e39631e: call  [eax+0x000001B9] ; (1 found)
0x6e389f7e: call  [eax+0x000001BA] ; (1 found)
0x6e38120a: call  [eax+0x0026748D] ; (1 found)
0x6e381f9a: call  [eax+0x0026748D] ; (1 found)
0x6e38368a: call  [eax+0x0026748D] ; (1 found)
0x6e38546a: call  [eax+0x0026748D] ; (1 found)
0x6e3883fa: call  [eax+0x0026748D] ; (1 found)
0x6e38911a: call  [eax+0x0026748D] ; (1 found)
0x6e38c88a: call  [eax+0x0026748D] ; (1 found)
0x6e38d79a: call  [eax+0x0026748D] ; (1 found)
0x6e3923fa: call  [eax+0x0026748D] ; (1 found)
0x6e3946ea: call  [eax+0x0026748D] ; (1 found)
0x6e39624a: call  [eax+0x0026748D] ; (1 found)
0x6e3964fa: call  [eax+0x0026748D] ; (1 found)
0x6e39d08a: call  [eax+0x0026748D] ; (1 found)
0x6e39fd9a: call  [eax+0x0026748D] ; (1 found)
0x6e3a1f9a: call  [eax+0x0026748D] ; (1 found)
0x6e3a261a: call  [eax+0x0026748D] ; (1 found)
0x6e3a32ca: call  [eax+0x0026748D] ; (1 found)
0x6e3820a7: call  [eax+0x0026B48D] ; (1 found)
0x6e3822a7: call  [eax+0x0026B48D] ; (1 found)
0x6e383927: call  [eax+0x0026B48D] ; (1 found)
0x6e383df7: call  [eax+0x0026B48D] ; (1 found)
0x6e384bf7: call  [eax+0x0026B48D] ; (1 found)
0x6e386617: call  [eax+0x0026B48D] ; (1 found)
0x6e386a37: call  [eax+0x0026B48D] ; (1 found)
0x6e386cf7: call  [eax+0x0026B48D] ; (1 found)
0x6e388317: call  [eax+0x0026B48D] ; (1 found)
0x6e388747: call  [eax+0x0026B48D] ; (1 found)
0x6e389837: call  [eax+0x0026B48D] ; (1 found)
0x6e389cb7: call  [eax+0x0026B48D] ; (1 found)
0x6e389f97: call  [eax+0x0026B48D] ; (1 found)
0x6e38b4c7: call  [eax+0x0026B48D] ; (1 found)
0x6e38cbb7: call  [eax+0x0026B48D] ; (1 found)
0x6e38d457: call  [eax+0x0026B48D] ; (1 found)
0x6e38ea27: call  [eax+0x0026B48D] ; (1 found)
0x6e3971f7: call  [eax+0x0026B48D] ; (1 found)
0x6e39b5f7: call  [eax+0x0026B48D] ; (1 found)
0x6e39d387: call  [eax+0x0026B48D] ; (1 found)
0x6e3a05c7: call  [eax+0x0026B48D] ; (1 found)
0x6e3a11e7: call  [eax+0x0026B48D] ; (1 found)
0x6e3a12c7: call  [eax+0x0026B48D] ; (1 found)
0x6e3a19c7: call  [eax+0x0026B48D] ; (1 found)
0x6e3a1a97: call  [eax+0x0026B48D] ; (1 found)
0x6e3a24c7: call  [eax+0x0026B48D] ; (1 found)
0x6e38b59e: call  [eax+0x0F01FB83] ; (1 found)
0x6e39450e: call  [eax+0x3B74C085] ; (1 found)
0x6e39a0ce: call  [eax+0x41DD01DD] ; (1 found)
0x6e38afce: call  [eax+0x4483D8DD] ; (1 found)
0x6e382c7e: call  [eax+0x4C2444C7] ; (1 found)
0x6e38f08e: call  [eax+0x53565755] ; (1 found)
0x6e390e6e: call  [eax+0x53565755] ; (1 found)
0x6e39ad1e: call  [eax+0x53565755] ; (1 found)
0x6e383f0e: call  [eax+0x5C2444C7] ; (1 found)
0x6e39f77e: call  [eax-0x01E22418] ; (1 found)
0x6e398a4e: call  [eax-0x077CFF75] ; (1 found)
0x6e39aa6e: call  [eax-0x077CFF75] ; (1 found)
0x6e3a1d3e: call  [eax-0x127AD775] ; (1 found)
0x6e38fbde: call  [eax-0x1BDB7B75] ; (1 found)
0x6e39c7de: call  [eax-0x1BDB7B75] ; (1 found)
0x6e383d9e: call  [eax-0x1F261727] ; (1 found)
0x6e3903de: call  [eax-0x2207B823] ; (1 found)
0x6e39710e: call  [eax-0x2FDB6B75] ; (1 found)
0x6e3955be: call  [eax-0x3C763F7B] ; (1 found)
0x6e39a17e: call  [eax-0x50F03CD7] ; (1 found)
0x6e38f1be: call  [eax-0x63DB7B39] ; (1 found)
0x6e3a38d5: call  [eax-0x6F6F6F70] ; (1 found)
0x6e3a40f6: call  [eax-0x6F6F6F70] ; (1 found)
0x6e3a0f2e: call  [eax-0x71F0247B] ; (1 found)
0x6e38844e: call  [eax-0x722649F1] ; (1 found)
0x6e39b0be: call  [eax-0x73DB7B39] ; (1 found)
0x6e389e52: call  [ebp+0x0F] ; (1 found)
0x6e39795f: call  [ebp+0x57] ; (1 found)
0x6e383e40: call  [ebp+0x74] ; (1 found)
0x6e3a45e3: call  [ebx-0x7D] ; (1 found)
0x6e3819ef: call  [edi+0x56] ; (1 found)
0x6e3823cc: call  [edi+ecx-0x7C] ; (1 found)
0x6e382526: call  [edi+ecx-0x7C] ; (1 found)
0x6e38baa0: call  [edi+ecx-0x7C] ; (1 found)
0x6e385990: call  [edx+0x74] ; (1 found)
0x6e38459f: call  [esi+0x53] ; (1 found)
0x6e38b16e: call  [esp+esi*2+0x13] ; (1 found)
0x6e387218: call  [esp+esi*2+0x16] ; (1 found)
0x6e387c08: call  [esp+esi*2+0x16] ; (1 found)
0x6e3883e0: call  [esp+esi*2+0x1C] ; (1 found)
0x6e388ce0: call  [esp+esi*2+0x1C] ; (1 found)
0x6e38c870: call  [esp+esi*2+0x1C] ; (1 found)
0x6e381155: call eax ; (1 found)
0x6e3814b1: call eax ; (1 found)
0x6e3a39d0: call eax ; (1 found)
0x6e3a3c36: call eax ; (1 found)
0x6e3a414c: call eax ; (1 found)
0x6e3a48bd: call eax ; (1 found)
0x6e3a4135: call ebp ; (1 found)
0x6e381465: call ebx ; (1 found)
0x6e3814c3: call ebx ; (1 found)
0x6e3810ef: call edi ; (1 found)
0x6e3a413c: call edi ; (1 found)
0x6e3811b2: call edx ; (1 found)
0x6e3814f2: call edx ; (1 found)
0x6e381540: call edx ; (1 found)
0x6e381077: call esi ; (1 found)
0x6e3a42c4: clc ; add  [ebp-0x1C], esi ; mov  [0x6E3A93E4], 0x00000000 ; mov  [esp+0x00], 0x6E3A93E8 ; call  [0x6E3AB10C] ; (1 found)
0x6e3a3c11: clc ; add  [ebx+edi-0x7D], esi ; les ebx,  [eax] ; mov eax, 0x00000001 ; pop ebx ; retn 0x000C ; (1 found)
0x6e39f5de: clc ; add  [edi], ecx ; xchg eax, ebp ; retn 0xC085 ; (1 found)
0x6e3a3bac: clc ; add esi,  [eax+edx-0x48] ; add  [eax], eax ; add byte [eax], al ; add esp, 0x1C ; retn 0x000C ; (1 found)
0x6e3814f5: clc ; pop ebx ; pop esi ; pop ebp ; ret ; (1 found)
0x6e3814f6: clc ; pop ebx ; pop esi ; pop ebp ; ret ; (1 found)
0x6e3a45fb: clc ; pop ebx ; pop esi ; pop edi ; ret ; (1 found)
0x6e3a4676: clc ; pop ebx ; pop esi ; pop edi ; ret ; (1 found)
0x6e3a4667: clc ; pop edi ; ret ; (1 found)
0x6e383c1c: cld ; pushad ; cmp ch, byte [esi-0x23] ; sbb byte [ebx+0x5E5B2CC4], al ; ret ; (1 found)
0x6e39888f: cli ; add  [edi], ecx ; xchg eax, ebp ; rol  [ebp+0x0FCE89D2], 0xFFFFFF8E ; retn 0x0002 ; (1 found)
0x6e3a4731: cli ; add esp, 0x3C ; ret ; (1 found)
0x6e381590: cmovbe edx, ecx ; cmp eax, edx ; sete al ; movzx eax, al ; pop ebx ; ret ; (1 found)
0x6e3a4573: cmovne ebx, eax ; mov eax, ebx ; pop ebx ; ret ; (1 found)
0x6e3a44a3: cmp  [0x6E380000], 0x03745A4D ; rep ret ; (1 found)
0x6e3a4583: cmp  [0x6E380000], 0x03745A4D ; ret ; (1 found)
0x6e3a4554: cmp  [0x6E380000], 0x04745A4D ; mov eax, ebx ; pop ebx ; ret ; (1 found)
0x6e3a4457: cmp  [0x6E380000], 0x0F745A4D ; add esp, 0x08 ; mov eax, ebx ; pop ebx ; ret ; (1 found)
0x6e3a4355: cmp  [eax], 0x05745A4D ; xor eax, eax ; ret ; (1 found)
0x6e386cee: cmp al, 0x01 ; add byte [eax], al ; add cl, ch ; cmp bh, 0xFF ; call  [eax+0x0026B48D] ; (1 found)
0x6e3a0904: cmp al, 0x04 ; add byte [eax], al ; add cl, ch ; retn 0xFFFD ; (1 found)
0x6e393698: cmp al, 0x09 ; ret ; (1 found)
0x6e383164: cmp al, 0x5B ; pop esi ; pop edi ; pop ebp ; ret ; (1 found)
0x6e383299: cmp al, 0x5B ; pop esi ; pop edi ; pop ebp ; ret ; (1 found)
0x6e384f26: cmp al, 0x5B ; pop esi ; pop edi ; pop ebp ; ret ; (1 found)
0x6e386962: cmp al, 0x5B ; pop esi ; pop edi ; pop ebp ; ret ; (1 found)
0x6e39eb45: cmp al, 0x89 ; enter 0xD9F7, 0x0F ; scasd ; ret ; (1 found)
0x6e3a0d05: cmp al, 0x89 ; retn 0xF089 ; (1 found)
0x6e3a41d2: cmp al, 0xB1 ; cmp ch, byte [esi+0x31] ; rol byte [ebx-0x3B7CFB14], 0x18 ; pop ebx ; ret ; (1 found)
0x6e38190b: cmp al, cl ; sti ; add ch, byte [ecx] ; ret ; (1 found)
0x6e386cf4: cmp bh, 0xFF ; call  [eax+0x0026B48D] ; (1 found)
0x6e3814bb: cmp bh, al ; add al, 0x24 ; sub  [eax+0x3A], esp ; outsb ; call ebx ; (1 found)
0x6e394373: cmp byte [ebp-0x1A3EFE86], cl ; add al, 0x89 ; retn 0x448B ; (1 found)
0x6e384d71: cmp byte [ebx-0x7CD7DB8C], cl ; retn 0x8901 ; (1 found)
0x6e39bfe7: cmp byte [ecx], ah ; retn 0x448B ; (1 found)
0x6e39d24f: cmp byte [ecx], ah ; retn 0xF089 ; (1 found)
0x6e3a44c1: cmp byte [esi+0x0F], ch ; mov bh, 0x80 ; push es ; add byte [eax], bh ; outsb ; ret ; (1 found)
0x6e3a4664: cmp byte [esi-0x77], ch ; clc ; pop edi ; ret ; (1 found)
0x6e3a4061: cmp byte [esi-0x7D], ch ; ret ; (1 found)
0x6e3a42f1: cmp ch, byte [esi+0x01] ; add byte [eax], al ; add byte [eax+0x00000001], bh ; add esp, 0x1C ; ret ; (1 found)
0x6e3a3de3: cmp ch, byte [esi+0x01] ; add esp, 0x30 ; pop ebx ; pop esi ; pop edi ; ret ; (1 found)
0x6e3a41d4: cmp ch, byte [esi+0x31] ; rol byte [ebx-0x3B7CFB14], 0x18 ; pop ebx ; ret ; (1 found)
0x6e3a3c3f: cmp ch, byte [esi+0x75] ; in eax, dx ; add esp, 0x18 ; mov eax, 0x00000001 ; pop ebx ; retn 0x000C ; (1 found)
0x6e3a3b6d: cmp ch, byte [esi-0x01] ; adc eax, 0x6E3AB158 ; sub esp, 0x04 ; call  [0x6E3AB118] ; (1 found)
0x6e3814f0: cmp ch, byte [esi-0x01] ; ror byte [ebp+0x5E5BF865], cl ; pop ebp ; ret ; (1 found)
0x6e3a47e6: cmp ch, byte [esi-0x15] ; mov eax, 0x90909090 ; nop ; nop ; jmp  [0x6E3AB1B8] ; (1 found)
0x6e3a3971: cmp ch, byte [esi-0x18] ; enter 0x000E, 0x00 ; add esp, 0x28 ; mov eax, ebx ; pop ebx ; ret ; (1 found)
0x6e38d65c: cmp ch, byte [esi-0x23] ; pop eax ; or byte [ebx+0x5E], bl ; pop edi ; pop ebp ; ret ; (1 found)
0x6e38d7ac: cmp ch, byte [esi-0x23] ; pop eax ; or byte [ebx+0x5E], bl ; pop edi ; pop ebp ; ret ; (1 found)
0x6e383c1e: cmp ch, byte [esi-0x23] ; sbb byte [ebx+0x5E5B2CC4], al ; ret ; (1 found)
0x6e38145c: cmp ch, byte [esi-0x39] ; add al, 0x24 ; add byte [eax+0x3A], ah ; outsb ; call ebx ; (1 found)
0x6e381064: cmp ch, byte [esi-0x5D] ; add byte [eax+0x0FEB6E3A], dl ; lea esi,  [esi+0x00] ; mov  [esp+0x00], 0x000003E8 ; call esi ; (1 found)
0x6e3a486c: cmp ch, byte [esi-0x70] ; nop ; jmp  [0x6E3AB168] ; (1 found)
0x6e3a4944: cmp ch, byte [esi-0x70] ; nop ; jmp  [0x6E3AB16C] ; (1 found)
0x6e3a4864: cmp ch, byte [esi-0x70] ; nop ; jmp  [0x6E3AB170] ; (1 found)
0x6e3a485c: cmp ch, byte [esi-0x70] ; nop ; jmp  [0x6E3AB174] ; (1 found)
0x6e3a4854: cmp ch, byte [esi-0x70] ; nop ; jmp  [0x6E3AB178] ; (1 found)
0x6e3a484c: cmp ch, byte [esi-0x70] ; nop ; jmp  [0x6E3AB17C] ; (1 found)
0x6e3a4844: cmp ch, byte [esi-0x70] ; nop ; jmp  [0x6E3AB184] ; (1 found)
0x6e3a483c: cmp ch, byte [esi-0x70] ; nop ; jmp  [0x6E3AB18C] ; (1 found)
0x6e3a4834: cmp ch, byte [esi-0x70] ; nop ; jmp  [0x6E3AB190] ; (1 found)
0x6e3a482c: cmp ch, byte [esi-0x70] ; nop ; jmp  [0x6E3AB194] ; (1 found)
0x6e3a4824: cmp ch, byte [esi-0x70] ; nop ; jmp  [0x6E3AB19C] ; (1 found)
0x6e3a481c: cmp ch, byte [esi-0x70] ; nop ; jmp  [0x6E3AB1A0] ; (1 found)
0x6e3a4814: cmp ch, byte [esi-0x70] ; nop ; jmp  [0x6E3AB1A4] ; (1 found)
0x6e3a480c: cmp ch, byte [esi-0x70] ; nop ; jmp  [0x6E3AB1A8] ; (1 found)
0x6e3a4804: cmp ch, byte [esi-0x70] ; nop ; jmp  [0x6E3AB1AC] ; (1 found)
0x6e3a47fc: cmp ch, byte [esi-0x70] ; nop ; jmp  [0x6E3AB1B0] ; (1 found)
0x6e3a47f4: cmp ch, byte [esi-0x70] ; nop ; jmp  [0x6E3AB1B4] ; (1 found)
0x6e3a494c: cmp ch, byte [esi-0x70] ; nop ; jmp  [0x6E3AB1C0] ; (1 found)
0x6e3a39c3: cmp ch, byte [esi-0x75] ; add byte [ebp-0x7CE08B40], al ; in al, dx ; or al, 0x66 ; nop ; call eax ; (1 found)
0x6e3a3d87: cmp ch, byte [esi-0x75] ; inc esp ; sbb byte [ecx+ecx*4], al ; add al, 0x24 ; call  [0x6E3AB160] ; (1 found)
0x6e3814d7: cmp ch, byte [esi-0x77] ; add al, 0x24 ; call  [0x6E3AB12C] ; (1 found)
0x6e381525: cmp ch, byte [esi-0x77] ; add al, 0x24 ; call  [0x6E3AB12C] ; (1 found)
0x6e3a3b5a: cmp ch, byte [esi-0x77] ; inc ebp ; hlt ; call  [0x6E3AB148] ; (1 found)
0x6e3a3b52: cmp ch, byte [esi-0x77] ; inc ebp ; lock mov eax,  [0x6E3A5014] ; mov  [ebp-0x0C], eax ; call  [0x6E3AB148] ; (1 found)
0x6e381490: cmp ch, byte [esi-0x77] ; xor al, 0x24 ; call  [0x6E3AB12C] ; (1 found)
0x6e3a42a6: cmp ch, byte [esi-0x7B] ; sal byte [ebp+0x66], 0xB8 ; add  [eax], eax ; add byte [eax], al ; add esp, 0x1C ; ret ; (1 found)
0x6e3a39e1: cmp ch, byte [esi-0x7B] ; sal byte [ebp-0x17], 0x83 ; les ecx,  [ebx+esi*8] ; ret ; (1 found)
0x6e3a42c1: cmp ch, byte [esi-0x7D] ; clc ; add  [ebp-0x1C], esi ; mov  [0x6E3A93E4], 0x00000000 ; mov  [esp+0x00], 0x6E3A93E8 ; call  [0x6E3AB10C] ; (1 found)
0x6e381552: cmp ch, byte [esi-0x7D] ; in al, dx ; add al, 0xC9 ; ret ; (1 found)
0x6e3a398b: cmp ch, byte [esi-0x7D] ; les ebp,  [eax] ; pop ebx ; ret ; (1 found)
0x6e3a3a88: cmp ch, byte [esi-0x7D] ; les ebp,  [ebx+ebx*2] ; pop esi ; pop edi ; pop ebp ; ret ; (1 found)
0x6e3a3af5: cmp ch, byte [esi-0x7D] ; les ebp,  [ebx+ebx*2] ; pop esi ; pop edi ; pop ebp ; ret ; (1 found)
0x6e39b173: cmp cl, byte [ecx-0x76CFDBBC] ; retn 0x4483 ; (1 found)
0x6e39e340: cmp dh, bl ; retn 0xC1DE ; (1 found)
0x6e381593: cmp eax, edx ; sete al ; movzx eax, al ; pop ebx ; ret ; (1 found)
0x6e3994b9: cmp ecx, ebx ; ret ; (1 found)
0x6e39ddf7: cmp ecx, ebx ; ret ; (1 found)
0x6e3a4703: cmp edx, 0x840F4000 ; ret ; (1 found)
0x6e3a4340: cmp word [eax+0x18], 0x010B ; sete al ; movzx eax, al ; ret ; (1 found)
0x6e3a3c6d: cmpsd ; nop ; xor eax, eax ; ret ; (1 found)
0x6e3a4942: cwde ; mov cl, 0x3A ; outsb ; nop ; nop ; jmp  [0x6E3AB16C] ; (1 found)
0x6e3833fb: daa ; add byte [eax], al ; add byte [eax], al ; fldz ; add esp, 0x2C ; ret ; (1 found)
0x6e3a3c8b: daa ; add byte [eax], al ; add byte [eax], al ; mov eax,  [esp+0x04] ; ret ; (1 found)
0x6e3833ec: das ; fstp st2 ; fxch st0, st1 ; fmulp st1, st0 ; add esp, 0x2C ; ret ; (1 found)
0x6e3a2639: dec  [ebp+0x000000B6] ; add bh, al ; inc esp ; and al, 0x7C ; or eax, 0xE9000000 ; ret ; (1 found)
0x6e3a3f39: dec  [ebp+0x000000B6] ; add byte [ebp+0x5E5BF465], cl ; pop edi ; pop ebp ; ret ; (1 found)
0x6e381b89: dec  [ebp+0x000000B6] ; add byte [ebx-0x27], bl ; out dx, al ; pop esi ; pop edi ; ret ; (1 found)
0x6e392293: dec  [ebx+0x01302444] ; fmul  [ecx-0x76CBDBBC] ; ret ; (1 found)
0x6e39f0bb: dec  [ebx-0x7483DBBC] ; add byte [ebp+0x244489C0], al ; sbb al, 0x89 ; ret ; (1 found)
0x6e39864b: dec  [ebx-0x7ACBDBBC] ; ror byte [edi], 0x8E ; ret ; (1 found)
0x6e383532: dec  [ebx-0x7CCBDBBC] ; ret ; (1 found)
0x6e3a4674: dec  [ecx+0x5F5E5BF8] ; ret ; (1 found)
0x6e3a18b7: dec  [ecx-0x76D3DBBC] ; ret ; (1 found)
0x6e392821: dec  [edi] ; scasd ; retn 0xC701 ; (1 found)
0x6e38a0dc: dec byte [ecx+0x3920245C] ; retn 0x5489 ; (1 found)
0x6e38ada3: dec eax ; add  [ecx-0x76CFDBAC], ecx ; retn 0x4C89 ; (1 found)
0x6e3995f8: dec eax ; add  [ecx], eax ; retn 0x848B ; (1 found)
0x6e3a3b61: dec eax ; mov cl, 0x3A ; outsb ; sub esp, 0x04 ; mov  [esp+0x00], 0x6E3A61F0 ; call  [0x6E3AB158] ; (1 found)
0x6e3831f2: dec eax ; rol  [ebx-0x7BF0FE02], 1 ; ret ; (1 found)
0x6e384748: dec ebp ; add byte [ecx], al ; int 0x39 ; ret ; (1 found)
0x6e39c18e: dec ebp ; add dh, bl ; retn 0xCAD9 ; (1 found)
0x6e385ede: dec ebp ; or dh, bl ; ret ; (1 found)
0x6e3a405a: dec ebp ; shl byte [esi-0x77], 0x81 ; add byte [eax], al ; cmp byte [esi-0x7D], ch ; ret ; (1 found)
0x6e381523: dec ebx ; pushad ; cmp ch, byte [esi-0x77] ; add al, 0x24 ; call  [0x6E3AB12C] ; (1 found)
0x6e386d3f: dec ecx ; ret ; (1 found)
0x6e3a4976: dec ecx ; ret ; (1 found)
0x6e382be3: dec edi ; ret ; (1 found)
0x6e38f165: dec edi ; retn 0x0739 ; (1 found)
0x6e3a24f4: dec edi ; retn 0x0739 ; (1 found)
0x6e39ed28: dec edi ; retn 0x148D ; (1 found)
0x6e39eddc: dec edi ; retn 0x148D ; (1 found)
0x6e38897d: dec edx ; or byte [ebx-0x7CDBDBBC], cl ; ret ; (1 found)
0x6e396223: dec esi ; ret ; (1 found)
0x6e3886b5: dec esi ; retn 0x518D ; (1 found)
0x6e3887d9: dec esi ; retn 0x518D ; (1 found)
0x6e388ecf: dec esi ; retn 0x518D ; (1 found)
0x6e389191: dec esi ; retn 0x518D ; (1 found)
0x6e381ed2: dec esi ; retn 0x548B ; (1 found)
0x6e3964a8: dec esi ; retn 0xC783 ; (1 found)
0x6e3a3fbe: dec esp ; and al, 0x04 ; mov eax,  [eax+0x04] ; mov  [esp+0x00], eax ; call  [0x6E3AB160] ; (1 found)
0x6e392290: dec esp ; idiv edi ; dec  [ebx+0x01302444] ; fmul  [ecx-0x76CBDBBC] ; ret ; (1 found)
0x6e385283: dec esp ; pop ebx ; pop esi ; pop edi ; pop ebp ; ret ; (1 found)
0x6e3853f7: dec esp ; pop ebx ; pop esi ; pop edi ; pop ebp ; ret ; (1 found)
0x6e38554e: dec esp ; pop ebx ; pop esi ; pop edi ; pop ebp ; ret ; (1 found)
0x6e386cb2: dec esp ; pop ebx ; pop esi ; pop edi ; pop ebp ; ret ; (1 found)
0x6e386f8f: dec esp ; pop ebx ; pop esi ; pop edi ; pop ebp ; ret ; (1 found)
0x6e388ca6: dec esp ; pop ebx ; pop esi ; pop edi ; pop ebp ; ret ; (1 found)
0x6e389514: dec esp ; pop ebx ; pop esi ; pop edi ; pop ebp ; ret ; (1 found)
0x6e389a49: dec esp ; pop ebx ; pop esi ; pop edi ; pop ebp ; ret ; (1 found)
0x6e389c62: dec esp ; pop ebx ; pop esi ; pop edi ; pop ebp ; ret ; (1 found)
0x6e38e2d6: dec esp ; pop ebx ; pop esi ; pop edi ; pop ebp ; ret ; (1 found)
0x6e38e460: dec esp ; pop ebx ; pop esi ; pop edi ; pop ebp ; ret ; (1 found)
0x6e396a06: dec esp ; pop ebx ; pop esi ; pop edi ; pop ebp ; ret ; (1 found)
0x6e396b90: dec esp ; pop ebx ; pop esi ; pop edi ; pop ebp ; ret ; (1 found)
0x6e398853: dec esp ; pop ebx ; pop esi ; pop edi ; pop ebp ; ret ; (1 found)
0x6e39aa22: dec esp ; pop ebx ; pop esi ; pop edi ; pop ebp ; ret ; (1 found)
0x6e3a06ee: dec esp ; pop ebx ; pop esi ; pop edi ; pop ebp ; ret ; (1 found)
0x6e3a0e8a: dec esp ; pop ebx ; pop esi ; pop edi ; pop ebp ; ret ; (1 found)
0x6e3a13ef: dec esp ; pop ebx ; pop esi ; pop edi ; pop ebp ; ret ; (1 found)
0x6e38a3d3: div  [ecx] ; fild  [ebx-0x6BF0AA02] ; ret ; (1 found)
0x6e3a4143: div byte [eax+ecx-0x75] ; inc ebx ; add al, 0x89 ; xor al, 0x24 ; call eax ; (1 found)
0x6e381472: div byte [ecx+ebp-0x39] ; add al, 0x24 ; add byte [eax+0x3A], ah ; outsb ; call  [0x6E3AB140] ; (1 found)
0x6e3a3974: enter 0x000E, 0x00 ; add esp, 0x28 ; mov eax, ebx ; pop ebx ; ret ; (1 found)
0x6e3886b1: enter 0xC239, 0x0F ; dec esi ; retn 0x518D ; (1 found)
0x6e388ecb: enter 0xC239, 0x0F ; dec esi ; retn 0x518D ; (1 found)
0x6e389f5d: enter 0xD829, 0x83 ; ret ; (1 found)
0x6e3a17ef: enter 0xD829, 0x83 ; ret ; (1 found)
0x6e38d28a: enter 0xD8DD, 0x83 ; les edx,  [ebx+ebx*2] ; pop esi ; ret ; (1 found)
0x6e39eb47: enter 0xD9F7, 0x0F ; scasd ; ret ; (1 found)
0x6e3a1912: enter 0xEF39, 0xD9 ; ret ; (1 found)
0x6e3a1b34: enter 0xEF39, 0xD9 ; ret ; (1 found)
0x6e38d055: fabs ; faddp st1, st0 ; ret ; (1 found)
0x6e38d051: fabs ; fxch st0, st1 ; fabs ; faddp st1, st0 ; ret ; (1 found)
0x6e383419: fabs ; ret ; (1 found)
0x6e3834ea: fadd  [ebx+0x5E5B0CC4] ; pop edi ; pop ebp ; ret ; (1 found)
0x6e38d28c: fadd  [ebx+0x5E5B14C4] ; ret ; (1 found)
0x6e38d2ed: fadd  [ebx+0x5E5B14C4] ; ret ; (1 found)
0x6e395c14: fadd  [ebx+0x5E5B18C4] ; pop edi ; ret ; (1 found)
0x6e383161: fadd  [ebx+0x5E5B3CC4] ; pop edi ; pop ebp ; ret ; (1 found)
0x6e383296: fadd  [ebx+0x5E5B3CC4] ; pop edi ; pop ebp ; ret ; (1 found)
0x6e384f23: fadd  [ebx+0x5E5B3CC4] ; pop edi ; pop ebp ; ret ; (1 found)
0x6e385280: fadd  [ebx+0x5E5B4CC4] ; pop edi ; pop ebp ; ret ; (1 found)
0x6e3853f4: fadd  [ebx+0x5E5B4CC4] ; pop edi ; pop ebp ; ret ; (1 found)
0x6e38554b: fadd  [ebx+0x5E5B4CC4] ; pop edi ; pop ebp ; ret ; (1 found)
0x6e386f8c: fadd  [ebx+0x5E5B4CC4] ; pop edi ; pop ebp ; ret ; (1 found)
0x6e388ca3: fadd  [ebx+0x5E5B4CC4] ; pop edi ; pop ebp ; ret ; (1 found)
0x6e389511: fadd  [ebx+0x5E5B4CC4] ; pop edi ; pop ebp ; ret ; (1 found)
0x6e38e2d3: fadd  [ebx+0x5E5B4CC4] ; pop edi ; pop ebp ; ret ; (1 found)
0x6e38e45d: fadd  [ebx+0x5E5B4CC4] ; pop edi ; pop ebp ; ret ; (1 found)
0x6e396a03: fadd  [ebx+0x5E5B4CC4] ; pop edi ; pop ebp ; ret ; (1 found)
0x6e396b8d: fadd  [ebx+0x5E5B4CC4] ; pop edi ; pop ebp ; ret ; (1 found)
0x6e398850: fadd  [ebx+0x5E5B4CC4] ; pop edi ; pop ebp ; ret ; (1 found)
0x6e381cd1: fadd  [ebx+0x5E5B5CC4] ; pop edi ; pop ebp ; ret ; (1 found)
0x6e382c12: fadd  [ebx+0x5E5B5CC4] ; pop edi ; pop ebp ; ret ; (1 found)
0x6e394c93: fadd  [ebx+0x5E5B5CC4] ; pop edi ; pop ebp ; ret ; (1 found)
0x6e382512: fadd  [ebx+0x5E5B6CC4] ; pop edi ; pop ebp ; ret ; (1 found)
0x6e386213: fadd  [ebx+0x5E5B6CC4] ; pop edi ; pop ebp ; ret ; (1 found)
0x6e387bc1: fadd  [ebx+0x5E5B6CC4] ; pop edi ; pop ebp ; ret ; (1 found)
0x6e38a431: fadd  [ebx+0x5E5B6CC4] ; pop edi ; pop ebp ; ret ; (1 found)
0x6e38b9c4: fadd  [ebx+0x5E5B6CC4] ; pop edi ; pop ebp ; ret ; (1 found)
0x6e390fb0: fadd  [ebx+0x5E5B7CC4] ; pop edi ; pop ebp ; ret ; (1 found)
0x6e38e5d4: fadd  [ecx+0x00008CC4] ; add byte [ebx+0x5E], bl ; pop edi ; pop ebp ; ret ; (1 found)
0x6e398e44: fadd  [ecx+0x00008CC4] ; add byte [ebx+0x5E], bl ; pop edi ; pop ebp ; ret ; (1 found)
0x6e396d13: fadd  [ecx+0x00009CC4] ; add byte [ebx+0x5E], bl ; pop edi ; pop ebp ; ret ; (1 found)
0x6e39ba00: fadd  [ecx+0x0000ACC4] ; add byte [ebx+0x5E], bl ; pop edi ; pop ebp ; ret ; (1 found)
0x6e397b40: fadd  [ecx+0x0000BCC4] ; add byte [ebx+0x5E], bl ; pop edi ; pop ebp ; ret ; (1 found)
0x6e38d057: faddp st1, st0 ; ret ; (1 found)
0x6e3a47c7: fchs ; ret ; (1 found)
0x6e3833ee: fcmovu st0, st1 ; leave ; fmulp st1, st0 ; add esp, 0x2C ; ret ; (1 found)
0x6e38d1db: fcmovu st0, st1 ; leave ; fmulp st1, st0 ; add esp, 0x2C ; ret ; (1 found)
0x6e38d399: fcmovu st0, st1 ; ret ; (1 found)
0x6e389c57: fcom  [eax+0x0026B48D] ; add byte [eax], al ; add byte [ebx+0x5E5B4CC4], al ; pop edi ; pop ebp ; ret ; (1 found)
0x6e38c827: fcom  [eax+0x0026B48D] ; add byte [eax], al ; add byte [ebx+0x5E5B5CC4], al ; pop edi ; pop ebp ; ret ; (1 found)
0x6e3871ce: fcom  [eax+0x5B7CC483] ; pop esi ; pop edi ; pop ebp ; ret ; (1 found)
0x6e3a3de1: fcom  [ebx-0x7CFE91C6] ; les esi,  [eax] ; pop ebx ; pop esi ; pop edi ; ret ; (1 found)
0x6e3a3d85: fcom qword [ebx+0x448B6E3A] ; sbb byte [ecx+ecx*4], al ; add al, 0x24 ; call  [0x6E3AB160] ; (1 found)
0x6e3837c5: fcomp  [ebx+0x5E] ; pop edi ; pop ebp ; ret ; (1 found)
0x6e3838b0: fcomp  [ebx+0x5E] ; pop edi ; pop ebp ; ret ; (1 found)
0x6e38d3c7: fcomp  [ebx+0x5E] ; pop edi ; ret ; (1 found)
0x6e38d009: fcomp  [ebx+0x5E] ; ret ; (1 found)
0x6e38d03b: fcomp  [ebx+0x5E] ; ret ; (1 found)
0x6e3a397c: fcomp  [ebx-0x3D] ; nop ; mov eax,  [esp+0x30] ; mov  [esp+0x00], eax ; call  [0x6E3AB188] ; (1 found)
0x6e3a47c1: fcomp st0, st1 ; out dx, al ; add esp, 0x3C ; fchs ; ret ; (1 found)
0x6e39f2ba: fcomp st0, st1 ; ret ; (1 found)
0x6e39f368: fcomp st0, st1 ; ret ; (1 found)
0x6e3834e8: fcomp st0, st5 ; fadd  [ebx+0x5E5B0CC4] ; pop edi ; pop ebp ; ret ; (1 found)
0x6e395c12: fcomp st0, st5 ; fadd  [ebx+0x5E5B18C4] ; pop edi ; ret ; (1 found)
0x6e383294: fcomp st0, st5 ; fadd  [ebx+0x5E5B3CC4] ; pop edi ; pop ebp ; ret ; (1 found)
0x6e384f21: fcomp st0, st5 ; fadd  [ebx+0x5E5B3CC4] ; pop edi ; pop ebp ; ret ; (1 found)
0x6e38527e: fcomp st0, st5 ; fadd  [ebx+0x5E5B4CC4] ; pop edi ; pop ebp ; ret ; (1 found)
0x6e3853f2: fcomp st0, st5 ; fadd  [ebx+0x5E5B4CC4] ; pop edi ; pop ebp ; ret ; (1 found)
0x6e385549: fcomp st0, st5 ; fadd  [ebx+0x5E5B4CC4] ; pop edi ; pop ebp ; ret ; (1 found)
0x6e386f8a: fcomp st0, st5 ; fadd  [ebx+0x5E5B4CC4] ; pop edi ; pop ebp ; ret ; (1 found)
0x6e38e2d1: fcomp st0, st5 ; fadd  [ebx+0x5E5B4CC4] ; pop edi ; pop ebp ; ret ; (1 found)
0x6e38e45b: fcomp st0, st5 ; fadd  [ebx+0x5E5B4CC4] ; pop edi ; pop ebp ; ret ; (1 found)
0x6e396a01: fcomp st0, st5 ; fadd  [ebx+0x5E5B4CC4] ; pop edi ; pop ebp ; ret ; (1 found)
0x6e396b8b: fcomp st0, st5 ; fadd  [ebx+0x5E5B4CC4] ; pop edi ; pop ebp ; ret ; (1 found)
0x6e39884e: fcomp st0, st5 ; fadd  [ebx+0x5E5B4CC4] ; pop edi ; pop ebp ; ret ; (1 found)
0x6e394c91: fcomp st0, st5 ; fadd  [ebx+0x5E5B5CC4] ; pop edi ; pop ebp ; ret ; (1 found)
0x6e386211: fcomp st0, st5 ; fadd  [ebx+0x5E5B6CC4] ; pop edi ; pop ebp ; ret ; (1 found)
0x6e387bbf: fcomp st0, st5 ; fadd  [ebx+0x5E5B6CC4] ; pop edi ; pop ebp ; ret ; (1 found)
0x6e38b9c2: fcomp st0, st5 ; fadd  [ebx+0x5E5B6CC4] ; pop edi ; pop ebp ; ret ; (1 found)
0x6e390fae: fcomp st0, st5 ; fadd  [ebx+0x5E5B7CC4] ; pop edi ; pop ebp ; ret ; (1 found)
0x6e38e5d2: fcomp st0, st5 ; fadd  [ecx+0x00008CC4] ; add byte [ebx+0x5E], bl ; pop edi ; pop ebp ; ret ; (1 found)
0x6e398e42: fcomp st0, st5 ; fadd  [ecx+0x00008CC4] ; add byte [ebx+0x5E], bl ; pop edi ; pop ebp ; ret ; (1 found)
0x6e396d11: fcomp st0, st5 ; fadd  [ecx+0x00009CC4] ; add byte [ebx+0x5E], bl ; pop edi ; pop ebp ; ret ; (1 found)
0x6e39b9fe: fcomp st0, st5 ; fadd  [ecx+0x0000ACC4] ; add byte [ebx+0x5E], bl ; pop edi ; pop ebp ; ret ; (1 found)
0x6e397b3e: fcomp st0, st5 ; fadd  [ecx+0x0000BCC4] ; add byte [ebx+0x5E], bl ; pop edi ; pop ebp ; ret ; (1 found)
0x6e3871cc: fcomp st0, st5 ; fcom  [eax+0x5B7CC483] ; pop esi ; pop edi ; pop ebp ; ret ; (1 found)
0x6e3838ae: fcomp st0, st5 ; fcomp  [ebx+0x5E] ; pop edi ; pop ebp ; ret ; (1 found)
0x6e38d3c5: fcomp st0, st5 ; fcomp  [ebx+0x5E] ; pop edi ; ret ; (1 found)
0x6e395c10: fcomp st0, st5 ; fcomp st0, st5 ; fadd  [ebx+0x5E5B18C4] ; pop edi ; ret ; (1 found)
0x6e39884c: fcomp st0, st5 ; fcomp st0, st5 ; fadd  [ebx+0x5E5B4CC4] ; pop edi ; pop ebp ; ret ; (1 found)
0x6e3838ac: fcomp st0, st5 ; fcomp st0, st5 ; fcomp  [ebx+0x5E] ; pop edi ; pop ebp ; ret ; (1 found)
0x6e384847: fcomp st0, st5 ; fmul  [ebp+0x000000B6] ; add byte [ebx+0x5E5B5CC4], al ; pop edi ; pop ebp ; ret ; (1 found)
0x6e39aa19: fcomp st0, st5 ; fmul  [ebp-0x7CFFD98C] ; les ecx,  [ebx+ebx*2+0x5E] ; pop edi ; pop ebp ; ret ; (1 found)
0x6e3a1d89: fcomp st0, st5 ; fmul  [ebx-0x7CE7DBA4] ; retn 0x2910 ; (1 found)
0x6e3a09f2: fdivr  [ecx] ; rcr ecx, 1 ; ret ; (1 found)
0x6e38d037: fidiv  [ebp-0x18] ; fstp st0 ; pop ebx ; pop esi ; ret ; (1 found)
0x6e394fd3: fidivr  [ecx] ; int 0xD9 ; ret ; (1 found)
0x6e395094: fidivr  [ecx] ; int 0xD9 ; ret ; (1 found)
0x6e3952c2: fidivr  [ecx] ; int 0xD9 ; ret ; (1 found)
0x6e395384: fidivr  [ecx] ; int 0xD9 ; ret ; (1 found)
0x6e38a694: fild  [ebx+0x5E5B6CC4] ; pop edi ; pop ebp ; ret ; (1 found)
0x6e38bc24: fild  [ebx+0x5E5B6CC4] ; pop edi ; pop ebp ; ret ; (1 found)
0x6e3912d4: fild  [ebx+0x5E5B7CC4] ; pop edi ; pop ebp ; ret ; (1 found)
0x6e3884e6: fild  [ebx-0x6AF0FE02] ; ret ; (1 found)
0x6e388de6: fild  [ebx-0x6AF0FE02] ; ret ; (1 found)
0x6e389d2a: fild  [ebx-0x6AF0FE02] ; ret ; (1 found)
0x6e38c94e: fild  [ebx-0x6AF0FE03] ; ret ; (1 found)
0x6e38a3d5: fild  [ebx-0x6BF0AA02] ; ret ; (1 found)
0x6e38b979: fild  [ebx-0x6BF0AA02] ; ret ; (1 found)
0x6e389d1a: fild  [ebx-0x6BF0B106] ; ret ; (1 found)
0x6e3884d6: fild  [ebx-0x6BF0B107] ; ret ; (1 found)
0x6e388dd6: fild  [ebx-0x6BF0B107] ; ret ; (1 found)
0x6e38c942: fild  [ebx-0x6BF0B107] ; ret ; (1 found)
0x6e382307: fild  [ebx-0x6BF0B108] ; ret ; (1 found)
0x6e3935c4: fild  [ecx+0x00008CC4] ; add byte [ebx+0x5E], bl ; pop edi ; pop ebp ; ret ; (1 found)
0x6e38e956: fimul  [edi] ; wait ; retn 0x450F ; (1 found)
0x6e397121: fimul  [edi] ; wait ; retn 0x450F ; (1 found)
0x6e39d98f: fimul  [edi] ; wait ; ror byte [edi], 0x45 ; retn 0xC085 ; (1 found)
0x6e3929ac: fimul word [ebp-0x7607C484] ; ret ; (1 found)
0x6e3a4436: fimul word [ecx+0x5F5E5BF0] ; pop ebp ; ret ; (1 found)
0x6e390de9: fistp  [ebx+0x5E] ; pop edi ; pop ebp ; ret ; (1 found)
0x6e3993bd: fisttp  [ecx-0x76B7DBA4] ; ret ; (1 found)
0x6e38a234: fisttp word [ecx-0x76E3DBA4] ; ret ; (1 found)
0x6e384609: fisubr  [ecx] ; retn 0x448B ; (1 found)
0x6e383c1a: fld  [0x6E3A60FC] ; fstp qword [eax] ; add esp, 0x2C ; pop ebx ; pop esi ; ret ; (1 found)
0x6e383414: fld qword [eax] ; add esp, 0x2C ; fabs ; ret ; (1 found)
0x6e383400: fldz ; add esp, 0x2C ; ret ; (1 found)
0x6e38d1e4: fldz ; add esp, 0x2C ; ret ; (1 found)
0x6e3a47c2: fldz ; add esp, 0x3C ; fchs ; ret ; (1 found)
0x6e3815f0: fldz ; pop ebx ; pop esi ; ret ; (1 found)
0x6e38d0c3: fldz ; pop ebx ; ret ; (1 found)
0x6e384784: fldz ; pop esi ; pop edi ; pop ebp ; ret ; (1 found)
0x6e381b91: fldz ; pop esi ; pop edi ; ret ; (1 found)
0x6e384849: fmul  [ebp+0x000000B6] ; add byte [ebx+0x5E5B5CC4], al ; pop edi ; pop ebp ; ret ; (1 found)
0x6e3845e9: fmul  [ebp+0x000000B6] ; add byte [ebx+0x5E], bl ; ret ; (1 found)
0x6e399d89: fmul  [ebp+0x000000B6] ; add byte [ecx+0x00008CC4], al ; add byte [ebx+0x5E], bl ; pop edi ; pop ebp ; ret ; (1 found)
0x6e38c56c: fmul  [ebp+0x04DD0076] ; rcr esp, 0x0C ; retn 0xC083 ; (1 found)
0x6e3a472b: fmul  [ebp-0x26FFD98C] ; cli ; add esp, 0x3C ; ret ; (1 found)
0x6e383eab: fmul  [ebp-0x7CFFD98C] ; les ebp,  [ebx+ebx*2+0x5E] ; pop edi ; pop ebp ; ret ; (1 found)
0x6e3859bb: fmul  [ebp-0x7CFFD98C] ; les ebp,  [ebx+ebx*2+0x5E] ; pop edi ; pop ebp ; ret ; (1 found)
0x6e39aa1b: fmul  [ebp-0x7CFFD98C] ; les ecx,  [ebx+ebx*2+0x5E] ; pop edi ; pop ebp ; ret ; (1 found)
0x6e391feb: fmul  [ebx-0x76CBDBAC] ; ret ; (1 found)
0x6e387642: fmul  [ebx-0x7CC7DBB4] ; ret ; (1 found)
0x6e3a1d8b: fmul  [ebx-0x7CE7DBA4] ; retn 0x2910 ; (1 found)
0x6e3a3fed: fmul  [ecx-0x74FBDBBC] ; inc ebp ; int3 ; mov  [esp+0x00], eax ; call  [0x6E3AB15C] ; (1 found)
0x6e39eb41: fmul  [ecx-0x76C3DBBC] ; enter 0xD9F7, 0x0F ; scasd ; ret ; (1 found)
0x6e392299: fmul  [ecx-0x76CBDBBC] ; ret ; (1 found)
0x6e390932: fmul  [edi] ; mov ch, byte [edi+0x0F000001] ; test  [ecx-0x26FFFFFF], ebp ; ret ; (1 found)
0x6e3810e1: fmul  [edi] ; test byte [ecx+eax], cl ; add byte [eax], al ; mov  [esp+0x00], 0x000003E8 ; call edi ; (1 found)
0x6e395f22: fmul  [edi] ; wait ; retn 0x440F ; (1 found)
0x6e3983b4: fmul  [edi] ; wait ; retn 0x440F ; (1 found)
0x6e39ae11: fmul  [edi] ; wait ; retn 0x440F ; (1 found)
0x6e39c227: fmul  [edi] ; wait ; retn 0x440F ; (1 found)
0x6e39ccff: fmul  [edi] ; wait ; retn 0x440F ; (1 found)
0x6e39dcc0: fmul  [edi] ; wait ; retn 0x440F ; (1 found)
0x6e395f0e: fmul  [edi] ; wait ; retn 0x450F ; (1 found)
0x6e39cce7: fmul  [edi] ; wait ; retn 0x450F ; (1 found)
0x6e39dca8: fmul  [edi] ; wait ; retn 0x450F ; (1 found)
0x6e39126e: fmul  [edi] ; wait ; retn 0xD689 ; (1 found)
0x6e39355e: fmul  [edi] ; wait ; retn 0xD689 ; (1 found)
0x6e38da15: fmul  [edi] ; wait ; ror byte [edi], 0x45 ; retn 0xC085 ; (1 found)
0x6e38da30: fmul  [edi] ; wait ; ror byte [edi], 0x45 ; retn 0xC085 ; (1 found)
0x6e3833f1: fmulp st1, st0 ; add esp, 0x2C ; ret ; (1 found)
0x6e38d1de: fmulp st1, st0 ; add esp, 0x2C ; ret ; (1 found)
0x6e3a4730: fsqrt ; add esp, 0x3C ; ret ; (1 found)
0x6e3a4235: fstenv  [eax+ebp-0x77] ; retn 0x428B ; (1 found)
0x6e38d2e9: fstenv  [ebp-0x3C] ; fstp st0 ; add esp, 0x14 ; pop ebx ; pop esi ; ret ; (1 found)
0x6e381a64: fstp  [ebx+0x5E] ; pop edi ; ret ; (1 found)
0x6e3815e3: fstp  [ebx+0x5E] ; ret ; (1 found)
0x6e38d5b8: fstp qword [eax+0x08] ; pop ebx ; pop esi ; pop edi ; pop ebp ; ret ; (1 found)
0x6e38d65e: fstp qword [eax+0x08] ; pop ebx ; pop esi ; pop edi ; pop ebp ; ret ; (1 found)
0x6e38d702: fstp qword [eax+0x08] ; pop ebx ; pop esi ; pop edi ; pop ebp ; ret ; (1 found)
0x6e38d7ae: fstp qword [eax+0x08] ; pop ebx ; pop esi ; pop edi ; pop ebp ; ret ; (1 found)
0x6e383d61: fstp qword [eax+0x18] ; fstp qword [eax] ; add esp, 0x2C ; pop ebx ; pop esi ; ret ; (1 found)
0x6e383b57: fstp qword [eax+0x20] ; fstp qword [eax] ; add esp, 0x2C ; pop ebx ; pop esi ; ret ; (1 found)
0x6e383d84: fstp qword [eax+0x20] ; fstp qword [eax] ; add esp, 0x2C ; pop ebx ; pop esi ; ret ; (1 found)
0x6e383b5a: fstp qword [eax] ; add esp, 0x2C ; pop ebx ; pop esi ; ret ; (1 found)
0x6e383c20: fstp qword [eax] ; add esp, 0x2C ; pop ebx ; pop esi ; ret ; (1 found)
0x6e383d64: fstp qword [eax] ; add esp, 0x2C ; pop ebx ; pop esi ; ret ; (1 found)
0x6e383d87: fstp qword [eax] ; add esp, 0x2C ; pop ebx ; pop esi ; ret ; (1 found)
0x6e39b7a9: fstp qword [ebx+0x08] ; add esp, 0x60 ; pop ebx ; pop esi ; pop edi ; ret ; (1 found)
0x6e39b7d3: fstp qword [ebx+0x08] ; add esp, 0x60 ; pop ebx ; pop esi ; pop edi ; ret ; (1 found)
0x6e384782: fstp qword [ebx-0x27] ; out dx, al ; pop esi ; pop edi ; pop ebp ; ret ; (1 found)
0x6e383664: fstp qword [ebx] ; add esp, 0x44 ; pop ebx ; pop esi ; ret ; (1 found)
0x6e3836ae: fstp qword [ebx] ; add esp, 0x44 ; pop ebx ; pop esi ; ret ; (1 found)
0x6e383662: fstp qword [esi] ; fstp qword [ebx] ; add esp, 0x44 ; pop ebx ; pop esi ; ret ; (1 found)
0x6e3836ac: fstp qword [esi] ; fstp qword [ebx] ; add esp, 0x44 ; pop ebx ; pop esi ; ret ; (1 found)
0x6e3a48ae: fstp qword [esp+0x28] ; mov  [esp+0x14], edx ; lea edx,  [esp+0x10] ; mov  [esp+0x00], edx ; call eax ; (1 found)
0x6e38d28b: fstp st0 ; add esp, 0x14 ; pop ebx ; pop esi ; ret ; (1 found)
0x6e38d2ec: fstp st0 ; add esp, 0x14 ; pop ebx ; pop esi ; ret ; (1 found)
0x6e395c13: fstp st0 ; add esp, 0x18 ; pop ebx ; pop esi ; pop edi ; ret ; (1 found)
0x6e3a48c5: fstp st0 ; add esp, 0x3C ; ret ; (1 found)
0x6e3a47c0: fstp st0 ; fldz ; add esp, 0x3C ; fchs ; ret ; (1 found)
0x6e3a48c3: fstp st0 ; fstp st0 ; add esp, 0x3C ; ret ; (1 found)
0x6e3a48c1: fstp st0 ; fstp st0 ; fstp st0 ; add esp, 0x3C ; ret ; (1 found)
0x6e38d3c4: fstp st0 ; fstp st0 ; pop ebx ; pop esi ; pop edi ; ret ; (1 found)
0x6e38d818: fstp st0 ; fstp st0 ; pop ebx ; ret ; (1 found)
0x6e38d857: fstp st0 ; fstp st0 ; pop ebx ; ret ; (1 found)
0x6e390d27: fstp st0 ; fstp st0 ; pop ebx ; ret ; (1 found)
0x6e390d67: fstp st0 ; fstp st0 ; pop ebx ; ret ; (1 found)
0x6e3845e8: fstp st0 ; lea esi,  [esi+0x00000000] ; pop ebx ; pop esi ; ret ; (1 found)
0x6e3a472a: fstp st0 ; lea esi,  [esi+0x00] ; fsqrt ; add esp, 0x3C ; ret ; (1 found)
0x6e3837c4: fstp st0 ; pop ebx ; pop esi ; pop edi ; pop ebp ; ret ; (1 found)
0x6e3838af: fstp st0 ; pop ebx ; pop esi ; pop edi ; pop ebp ; ret ; (1 found)
0x6e38d3c6: fstp st0 ; pop ebx ; pop esi ; pop edi ; ret ; (1 found)
0x6e38d008: fstp st0 ; pop ebx ; pop esi ; ret ; (1 found)
0x6e38d03a: fstp st0 ; pop ebx ; pop esi ; ret ; (1 found)
0x6e38d81a: fstp st0 ; pop ebx ; ret ; (1 found)
0x6e38d859: fstp st0 ; pop ebx ; ret ; (1 found)
0x6e390d29: fstp st0 ; pop ebx ; ret ; (1 found)
0x6e390d69: fstp st0 ; pop ebx ; ret ; (1 found)
0x6e3a47a0: fstp st1 ; add esp, 0x3C ; ret ; (1 found)
0x6e381a63: fstp st1 ; pop ebx ; pop esi ; pop edi ; ret ; (1 found)
0x6e3815e2: fstp st1 ; pop ebx ; pop esi ; ret ; (1 found)
0x6e38dc64: fstp st1 ; ret ; (1 found)
0x6e38dcf9: fstp st1 ; ret ; (1 found)
0x6e39f889: fstp st1 ; ret ; (1 found)
0x6e39fb94: fstp st1 ; ret ; (1 found)
0x6e39fcf6: fstp st1 ; ret ; (1 found)
0x6e39fdea: fstp st1 ; ret ; (1 found)
0x6e3833ed: fstp st2 ; fxch st0, st1 ; fmulp st1, st0 ; add esp, 0x2C ; ret ; (1 found)
0x6e38d1da: fstp st2 ; fxch st0, st1 ; fmulp st1, st0 ; add esp, 0x2C ; ret ; (1 found)
0x6e39aae3: fstp1 st1 ; retn 0xCDD8 ; (1 found)
0x6e3834e6: fstp1 st5 ; fcomp st0, st5 ; fadd  [ebx+0x5E5B0CC4] ; pop edi ; pop ebp ; ret ; (1 found)
0x6e39228e: fsubr st0, st1 ; dec esp ; idiv edi ; dec  [ebx+0x01302444] ; fmul  [ecx-0x76CBDBBC] ; ret ; (1 found)
0x6e38d3c1: fsubr st0, st3 ; add al, 0xDD ; fcomp st0, st5 ; fcomp  [ebx+0x5E] ; pop edi ; ret ; (1 found)
0x6e38250e: fsubr st0, st3 ; add bl, ch ; fadd  [ebx+0x5E5B6CC4] ; pop edi ; pop ebp ; ret ; (1 found)
0x6e3837c1: fsubr st0, st3 ; add bl, ch ; fcomp  [ebx+0x5E] ; pop edi ; pop ebp ; ret ; (1 found)
0x6e3845e5: fsubr st0, st3 ; or ch, bl ; fmul  [ebp+0x000000B6] ; add byte [ebx+0x5E], bl ; ret ; (1 found)
0x6e38d053: fxch st0, st1 ; fabs ; faddp st1, st0 ; ret ; (1 found)
0x6e3833ef: fxch st0, st1 ; fmulp st1, st0 ; add esp, 0x2C ; ret ; (1 found)
0x6e38d1dc: fxch st0, st1 ; fmulp st1, st0 ; add esp, 0x2C ; ret ; (1 found)
0x6e3a3b5e: hlt ; call  [0x6E3AB148] ; (1 found)
0x6e39472a: hlt ; idiv bh ; jmp  [esi-0x70] ; (1 found)
0x6e3a3f41: hlt ; pop ebx ; pop esi ; pop edi ; pop ebp ; ret ; (1 found)
0x6e3a3f42: hlt ; pop ebx ; pop esi ; pop edi ; pop ebp ; ret ; (1 found)
0x6e39472b: idiv bh ; jmp  [esi-0x70] ; (1 found)
0x6e3967cb: idiv bh ; jmp  [esi-0x70] ; (1 found)
0x6e392291: idiv edi ; dec  [ebx+0x01302444] ; fmul  [ecx-0x76CBDBBC] ; ret ; (1 found)
0x6e3a42ef: in al, 0x93 ; cmp ch, byte [esi+0x01] ; add byte [eax], al ; add byte [eax+0x00000001], bh ; add esp, 0x1C ; ret ; (1 found)
0x6e3a42c7: in al, 0xC7 ; add eax, 0x6E3A93E4 ; add byte [eax], al ; add byte [eax], al ; mov  [esp+0x00], 0x6E3A93E8 ; call  [0x6E3AB10C] ; (1 found)
0x6e3a3dd9: in al, dx ; adc byte [ebp-0x7CEA8B40], al ; add eax, 0x6E3A93D8 ; add  [ebx+0x5E5B30C4], eax ; pop edi ; ret ; (1 found)
0x6e381456: in al, dx ; adc byte [ebx+0x3AB1281D], cl ; outsb ; mov  [esp+0x00], 0x6E3A6000 ; call ebx ; (1 found)
0x6e3a41d9: in al, dx ; add al, 0x83 ; les ebx,  [eax] ; pop ebx ; ret ; (1 found)
0x6e3a424f: in al, dx ; add al, 0x83 ; les ebx,  [eax] ; xor eax, eax ; pop ebx ; ret ; (1 found)
0x6e3a41be: in al, dx ; add al, 0x89 ; sbb eax, 0x6E3A93E0 ; mov  [esp+0x00], 0x6E3A93E8 ; mov  [ebx+0x08], eax ; call  [0x6E3AB13C] ; (1 found)
0x6e3a3aa0: in al, dx ; add al, 0x8B ; pop esp ; and al, 0x10 ; xor ebx,  [esp+0x14] ; call  [0x6E3AB11C] ; (1 found)
0x6e381555: in al, dx ; add al, 0xC9 ; ret ; (1 found)
0x6e3a3b76: in al, dx ; add al, 0xFF ; adc eax, 0x6E3AB118 ; mov  [esp+0x04], 0xC0000409 ; mov  [esp+0x00], eax ; call  [0x6E3AB150] ; (1 found)
0x6e3a39cc: in al, dx ; or al, 0x66 ; nop ; call eax ; (1 found)
0x6e384703: in al, dx ; pop ebx ; pop esi ; pop edi ; pop ebp ; ret ; (1 found)
0x6e381504: in al, dx ; sbb bh, al ; add al, 0x24 ; add byte [eax+0x3A], ah ; outsb ; call  [0x6E3AB128] ; (1 found)
0x6e381452: in eax, 0x56 ; push ebx ; sub esp, 0x10 ; mov ebx,  [0x6E3AB128] ; mov  [esp+0x00], 0x6E3A6000 ; call ebx ; (1 found)
0x6e3a3c42: in eax, dx ; add esp, 0x18 ; mov eax, 0x00000001 ; pop ebx ; retn 0x000C ; (1 found)
0x6e385764: in eax, dx ; pop ebx ; pop esi ; pop edi ; ret ; (1 found)
0x6e3a39ae: inc  [ebp-0x3F6BF040] ; add esp, 0x1C ; movzx eax, al ; neg eax ; ret ; (1 found)
0x6e3a462c: inc  [ebp-0x7E398B40] ; ret ; (1 found)
0x6e3823ba: inc  [ebx+0x0F] ; test byte [esi], cl ; add  [eax], eax ; add byte [eax-0x7BF0AB06], al ; add eax, 0x83000001 ; call  [edi+ecx-0x7C] ; (1 found)
0x6e3812c0: inc  [ebx-0x0F76E33C] ; pop ebx ; pop esi ; pop edi ; pop ebp ; ret ; (1 found)
0x6e3a4496: inc  [ebx-0x3C76F73C] ; mov eax, ebx ; pop ebx ; ret ; (1 found)
0x6e39b072: inc  [ecx+0x00009CC4] ; add byte [ebx+0x5E], bl ; pop edi ; pop ebp ; ret ; (1 found)
0x6e38f4d4: inc  [ecx+0x0000ACC4] ; add byte [ebx+0x5E], bl ; pop edi ; pop ebp ; ret ; (1 found)
0x6e3a1c13: inc eax ; adc byte [ecx], bh ; int 0xD9 ; ret ; (1 found)
0x6e3a1cd5: inc eax ; adc byte [ecx], bh ; int 0xD9 ; ret ; (1 found)
0x6e39e980: inc eax ; adc cl, bl ; ret ; (1 found)
0x6e3a3fc2: inc eax ; add al, 0x89 ; add al, 0x24 ; call  [0x6E3AB160] ; (1 found)
0x6e3a1c10: inc eax ; or ch, bl ; inc eax ; adc byte [ecx], bh ; int 0xD9 ; ret ; (1 found)
0x6e3a1cd2: inc eax ; or ch, bl ; inc eax ; adc byte [ecx], bh ; int 0xD9 ; ret ; (1 found)
0x6e39e97d: inc eax ; or ch, bl ; inc eax ; adc cl, bl ; ret ; (1 found)
0x6e39bd5a: inc eax ; or cl, bl ; ret ; (1 found)
0x6e399f10: inc ebp ; add byte [ecx], bh ; ret ; (1 found)
0x6e39c0a9: inc ebp ; add cl, bl ; ret ; (1 found)
0x6e39ec15: inc ebp ; add cl, bl ; ret ; (1 found)
0x6e39f1c5: inc ebp ; add cl, bl ; ret ; (1 found)
0x6e3a3fec: inc ebp ; fmul  [ecx-0x74FBDBBC] ; inc ebp ; int3 ; mov  [esp+0x00], eax ; call  [0x6E3AB15C] ; (1 found)
0x6e3a3b5d: inc ebp ; hlt ; call  [0x6E3AB148] ; (1 found)
0x6e3a3ff3: inc ebp ; int3 ; mov  [esp+0x00], eax ; call  [0x6E3AB15C] ; (1 found)
0x6e3a3b55: inc ebp ; lock mov eax,  [0x6E3A5014] ; mov  [ebp-0x0C], eax ; call  [0x6E3AB148] ; (1 found)
0x6e391a2a: inc ebp ; ret ; (1 found)
0x6e391a6a: inc ebp ; ret ; (1 found)
0x6e393691: inc ebp ; ret ; (1 found)
0x6e393819: inc ebp ; ret ; (1 found)
0x6e393829: inc ebp ; ret ; (1 found)
0x6e39433a: inc ebp ; ret ; (1 found)
0x6e397e47: inc ebp ; ret ; (1 found)
0x6e39bd02: inc ebp ; ret ; (1 found)
0x6e3a3341: inc ebp ; ret ; (1 found)
0x6e3a334d: inc ebp ; ret ; (1 found)
0x6e39d24a: inc ebp ; retn 0x548B ; (1 found)
0x6e39db6c: inc ebp ; retn 0x548B ; (1 found)
0x6e39e00a: inc ebp ; retn 0x548B ; (1 found)
0x6e38362e: inc ebp ; retn 0xC085 ; (1 found)
0x6e387f23: inc ebp ; retn 0xC085 ; (1 found)
0x6e38d9f0: inc ebp ; retn 0xC085 ; (1 found)
0x6e38da00: inc ebp ; retn 0xC085 ; (1 found)
0x6e38da1a: inc ebp ; retn 0xC085 ; (1 found)
0x6e38da35: inc ebp ; retn 0xC085 ; (1 found)
0x6e38db34: inc ebp ; retn 0xC085 ; (1 found)
0x6e3919b0: inc ebp ; retn 0xC085 ; (1 found)
0x6e3919c4: inc ebp ; retn 0xC085 ; (1 found)
0x6e391d05: inc ebp ; retn 0xC085 ; (1 found)
0x6e391d19: inc ebp ; retn 0xC085 ; (1 found)
0x6e396044: inc ebp ; retn 0xC085 ; (1 found)
0x6e3965ea: inc ebp ; retn 0xC085 ; (1 found)
0x6e3965f8: inc ebp ; retn 0xC085 ; (1 found)
0x6e39913b: inc ebp ; retn 0xC085 ; (1 found)
0x6e39d994: inc ebp ; retn 0xC085 ; (1 found)
0x6e393f00: inc ebp ; retn 0xC389 ; (1 found)
0x6e393f10: inc ebp ; retn 0xFA89 ; (1 found)
0x6e3a4147: inc ebx ; add al, 0x89 ; xor al, 0x24 ; call eax ; (1 found)
0x6e39f2b7: inc ecx ; adc byte [ecx], bh ; fcomp st0, st1 ; ret ; (1 found)
0x6e39f365: inc ecx ; adc byte [ecx], bh ; fcomp st0, st1 ; ret ; (1 found)
0x6e39f17d: inc ecx ; adc cl, bl ; retn 0xCAD8 ; (1 found)
0x6e39f2b4: inc ecx ; or ch, bl ; inc ecx ; adc byte [ecx], bh ; fcomp st0, st1 ; ret ; (1 found)
0x6e39f362: inc ecx ; or ch, bl ; inc ecx ; adc byte [ecx], bh ; fcomp st0, st1 ; ret ; (1 found)
0x6e39f275: inc edi ; adc cl, bl ; ret ; (1 found)
0x6e39590b: inc edi ; adc cl, bl ; retn 0xC9D8 ; (1 found)
0x6e39f272: inc edi ; or ch, bl ; inc edi ; adc cl, bl ; ret ; (1 found)
0x6e3858da: inc edi ; retn 0xF883 ; (1 found)
0x6e392fad: inc edx ; adc cl, bl ; ret ; (1 found)
0x6e39ebca: inc edx ; adc cl, bl ; ret ; (1 found)
0x6e3a0bca: inc edx ; adc cl, bl ; ret ; (1 found)
0x6e3a0f8d: inc edx ; adc cl, bl ; ret ; (1 found)
0x6e3a0928: inc edx ; add  [edi], ecx ; scasd ; retn 0xC189 ; (1 found)
0x6e38cff9: inc edx ; retn 0xC1DA ; (1 found)
0x6e38d02d: inc edx ; retn 0xC1DA ; (1 found)
0x6e38a3d2: inc esi ; div  [ecx] ; fild  [ebx-0x6BF0AA02] ; ret ; (1 found)
0x6e382301: inc esi ; retn 0xB60F ; (1 found)
0x6e381d7c: inc esi ; retn 0xF883 ; (1 found)
0x6e385a44: inc esi ; retn 0xF883 ; (1 found)
0x6e388541: inc esi ; retn 0xF883 ; (1 found)
0x6e388616: inc esi ; retn 0xF883 ; (1 found)
0x6e388e41: inc esi ; retn 0xF883 ; (1 found)
0x6e388f47: inc esi ; retn 0xF883 ; (1 found)
0x6e389d4f: inc esi ; retn 0xF883 ; (1 found)
0x6e389d75: inc esi ; retn 0xF883 ; (1 found)
0x6e389eab: inc esi ; retn 0xF883 ; (1 found)
0x6e38a6f4: inc esi ; retn 0xF883 ; (1 found)
0x6e38a822: inc esi ; retn 0xF883 ; (1 found)
0x6e38b28e: inc esi ; retn 0xF883 ; (1 found)
0x6e38b2b4: inc esi ; retn 0xF883 ; (1 found)
0x6e38b3bb: inc esi ; retn 0xF883 ; (1 found)
0x6e38bc80: inc esi ; retn 0xF883 ; (1 found)
0x6e38bd8e: inc esi ; retn 0xF883 ; (1 found)
0x6e389d17: inc esi ; sal  [ecx], 1 ; fild  [ebx-0x6BF0B106] ; ret ; (1 found)
0x6e38148b: inc esp ; and al, 0x04 ; adc esp,  [eax+0x3A] ; outsb ; mov  [esp+0x00], esi ; call  [0x6E3AB12C] ; (1 found)
0x6e3a3d81: inc esp ; and al, 0x04 ; mov eax,  [0x6E3A93DC] ; mov eax,  [eax+ebx+0x04] ; mov  [esp+0x00], eax ; call  [0x6E3AB160] ; (1 found)
0x6e3a3fef: inc esp ; and al, 0x04 ; mov eax,  [ebp-0x34] ; mov  [esp+0x00], eax ; call  [0x6E3AB15C] ; (1 found)
0x6e3a3dc4: inc esp ; and al, 0x04 ; mov eax,  [esp+0x14] ; mov  [esp+0x0C], ebx ; mov  [esp+0x00], eax ; call  [0x6E3AB15C] ; (1 found)
0x6e3a3c81: inc esp ; and al, 0x04 ; ret ; (1 found)
0x6e3a3c91: inc esp ; and al, 0x04 ; ret ; (1 found)
0x6e398d0d: inc esp ; and al, 0x10 ; add  [ebx-0x397CEF3D], eax ; adc cl, bl ; retn 0xC9D8 ; (1 found)
0x6e3a3a93: inc esp ; and al, 0x10 ; mov  [esp+0x00], eax ; call  [0x6E3AB130] ; (1 found)
0x6e3a3dc8: inc esp ; and al, 0x14 ; mov  [esp+0x0C], ebx ; mov  [esp+0x00], eax ; call  [0x6E3AB15C] ; (1 found)
0x6e39ac11: inc esp ; and al, 0x18 ; add  [ebx-0x3C7CEF3E], eax ; adc cl, bl ; retn 0xC9D8 ; (1 found)
0x6e3a3ac3: inc esp ; and al, 0x18 ; mov  [esp+0x00], eax ; call  [0x6E3AB144] ; (1 found)
0x6e3a41ac: inc esp ; and al, 0x24 ; mov  [ebx+0x04], eax ; call  [0x6E3AB110] ; (1 found)
0x6e3a3981: inc esp ; and al, 0x30 ; mov  [esp+0x00], eax ; call  [0x6E3AB188] ; (1 found)
0x6e383411: inc esp ; and al, 0x34 ; fld qword [eax] ; add esp, 0x2C ; fabs ; ret ; (1 found)
0x6e39e0a3: inc esp ; and al, 0x60 ; add  [ebx-0x7CE7DB94], ecx ; retn 0x0110 ; (1 found)
0x6e3a2641: inc esp ; and al, 0x7C ; or eax, 0xE9000000 ; ret ; (1 found)
0x6e3a48ad: inc esp ; fstp qword [esp+0x28] ; mov  [esp+0x14], edx ; lea edx,  [esp+0x10] ; mov  [esp+0x00], edx ; call eax ; (1 found)
0x6e383668: inc esp ; pop ebx ; pop esi ; ret ; (1 found)
0x6e3836b2: inc esp ; pop ebx ; pop esi ; ret ; (1 found)
0x6e381f01: inc esp ; ret ; (1 found)
0x6e382041: inc esp ; ret ; (1 found)
0x6e3840e9: inc esp ; ret ; (1 found)
0x6e38454e: inc esp ; ret ; (1 found)
0x6e384c25: inc esp ; ret ; (1 found)
0x6e385601: inc esp ; ret ; (1 found)
0x6e3886d1: inc esp ; ret ; (1 found)
0x6e3887f1: inc esp ; ret ; (1 found)
0x6e388ee1: inc esp ; ret ; (1 found)
0x6e3891a3: inc esp ; ret ; (1 found)
0x6e389456: inc esp ; ret ; (1 found)
0x6e389860: inc esp ; ret ; (1 found)
0x6e39db59: inc esp ; retn 0x01BA ; (1 found)
0x6e3893a9: inc esp ; retn 0x3910 ; (1 found)
0x6e39c22c: inc esp ; retn 0x568D ; (1 found)
0x6e388a51: inc esp ; retn 0x8308 ; (1 found)
0x6e395f27: inc esp ; retn 0xC085 ; (1 found)
0x6e39cd04: inc esp ; retn 0xC085 ; (1 found)
0x6e39dcc5: inc esp ; retn 0xC085 ; (1 found)
0x6e3983b9: inc esp ; retn 0xC683 ; (1 found)
0x6e3840e1: inc esp ; retn 0xD908 ; (1 found)
0x6e3853ae: inc esp ; retn 0xD9F8 ; (1 found)
0x6e3889a1: inc esp ; retn 0xDC10 ; (1 found)
0x6e385607: inc esp ; retn 0xDDF0 ; (1 found)
0x6e383551: inc esp ; retn 0xDDF8 ; (1 found)
0x6e385517: inc esp ; retn 0xDDF8 ; (1 found)
0x6e3a3d8a: inc esp ; sbb byte [ecx+ecx*4], al ; add al, 0x24 ; call  [0x6E3AB160] ; (1 found)
0x6e3a0ef7: insb ; and al, 0x18 ; add ecx, ebx ; ret ; (1 found)
0x6e3a1254: insb ; and al, 0x18 ; add ecx, ebx ; ret ; (1 found)
0x6e392dca: insb ; and al, 0x1C ; add ecx, ebx ; ret ; (1 found)
0x6e3930e2: insb ; and al, 0x1C ; add ecx, ebx ; ret ; (1 found)
0x6e392937: insb ; and al, 0x24 ; add ecx, ebx ; ret ; (1 found)
0x6e393096: insb ; and al, 0x24 ; add ecx, ebx ; ret ; (1 found)
0x6e3a494a: insb ; mov cl, 0x3A ; outsb ; nop ; nop ; jmp  [0x6E3AB1C0] ; (1 found)
0x6e382515: insb ; pop ebx ; pop esi ; pop edi ; pop ebp ; ret ; (1 found)
0x6e383eb2: insb ; pop ebx ; pop esi ; pop edi ; pop ebp ; ret ; (1 found)
0x6e3859c2: insb ; pop ebx ; pop esi ; pop edi ; pop ebp ; ret ; (1 found)
0x6e386216: insb ; pop ebx ; pop esi ; pop edi ; pop ebp ; ret ; (1 found)
0x6e387bc4: insb ; pop ebx ; pop esi ; pop edi ; pop ebp ; ret ; (1 found)
0x6e38a434: insb ; pop ebx ; pop esi ; pop edi ; pop ebp ; ret ; (1 found)
0x6e38a697: insb ; pop ebx ; pop esi ; pop edi ; pop ebp ; ret ; (1 found)
0x6e38b9c7: insb ; pop ebx ; pop esi ; pop edi ; pop ebp ; ret ; (1 found)
0x6e38bc27: insb ; pop ebx ; pop esi ; pop edi ; pop ebp ; ret ; (1 found)
0x6e38474b: int 0x39 ; ret ; (1 found)
0x6e39ed24: int 0x39 ; ror byte [edi], 1 ; dec edi ; retn 0x148D ; (1 found)
0x6e39edd8: int 0x39 ; ror byte [edi], 1 ; dec edi ; retn 0x148D ; (1 found)
0x6e38f602: int 0xD9 ; ret ; (1 found)
0x6e393b36: int 0xD9 ; ret ; (1 found)
0x6e394538: int 0xD9 ; ret ; (1 found)
0x6e394fd5: int 0xD9 ; ret ; (1 found)
0x6e395096: int 0xD9 ; ret ; (1 found)
0x6e3952c4: int 0xD9 ; ret ; (1 found)
0x6e395386: int 0xD9 ; ret ; (1 found)
0x6e3957e6: int 0xD9 ; ret ; (1 found)
0x6e39589a: int 0xD9 ; ret ; (1 found)
0x6e39aaf1: int 0xD9 ; ret ; (1 found)
0x6e3a1c16: int 0xD9 ; ret ; (1 found)
0x6e3a1cd8: int 0xD9 ; ret ; (1 found)
0x6e3a1f16: int 0xD9 ; ret ; (1 found)
0x6e3a1fd8: int 0xD9 ; ret ; (1 found)
0x6e38efc6: int 0xD9 ; retn 0xCFD8 ; (1 found)
0x6e38f96b: int 0xD9 ; retn 0xCFD8 ; (1 found)
0x6e3981d5: int 0xD9 ; retn 0xCFD8 ; (1 found)
0x6e39b52a: int 0xD9 ; retn 0xCFD8 ; (1 found)
0x6e39c063: int 0xD9 ; retn 0xCFD8 ; (1 found)
0x6e38785b: int 0xDE ; ret ; (1 found)
0x6e39d5b5: int 0xDE ; ret ; (1 found)
0x6e39d70d: int 0xDE ; retn 0xC1DE ; (1 found)
0x6e385ee5: int 0xDE ; retn 0xC9D9 ; (1 found)
0x6e38dc95: int 0xDE ; retn 0xC9D9 ; (1 found)
0x6e38e1e3: int 0xDE ; retn 0xC9D9 ; (1 found)
0x6e3967a4: int 0xDE ; retn 0xC9D9 ; (1 found)
0x6e39735f: int 0xDE ; retn 0xC9D9 ; (1 found)
0x6e39764f: int 0xDE ; retn 0xC9D9 ; (1 found)
0x6e39a27d: int 0xDE ; retn 0xC9D9 ; (1 found)
0x6e3879e7: int 0xDE ; retn 0xCBD9 ; (1 found)
0x6e3a4240: int1 ; mov  [esp+0x00], 0x6E3A93E8 ; call  [0x6E3AB13C] ; (1 found)
0x6e3818be: int1 ; pop ebx ; pop esi ; pop edi ; pop ebp ; ret ; (1 found)
0x6e38fb42: int3 ; add byte [eax], al ; add byte [ebx+0x5E], bl ; pop edi ; pop ebp ; ret ; (1 found)
0x6e39c742: int3 ; add byte [eax], al ; add byte [ebx+0x5E], bl ; pop edi ; pop ebp ; ret ; (1 found)
0x6e3a3ff4: int3 ; mov  [esp+0x00], eax ; call  [0x6E3AB15C] ; (1 found)
0x6e3a3fb4: int3 ; mov  [esp+0x08], 0x0000001C ; mov  [esp+0x04], ecx ; mov eax,  [eax+0x04] ; mov  [esp+0x00], eax ; call  [0x6E3AB160] ; (1 found)
0x6e3a4870: jmp  [0x6E3AB168] ; (1 found)
0x6e3a4948: jmp  [0x6E3AB16C] ; (1 found)
0x6e3a4868: jmp  [0x6E3AB170] ; (1 found)
0x6e3a4860: jmp  [0x6E3AB174] ; (1 found)
0x6e3a4858: jmp  [0x6E3AB178] ; (1 found)
0x6e3a4850: jmp  [0x6E3AB17C] ; (1 found)
0x6e3a4848: jmp  [0x6E3AB184] ; (1 found)
0x6e3a4840: jmp  [0x6E3AB18C] ; (1 found)
0x6e3a4838: jmp  [0x6E3AB190] ; (1 found)
0x6e3a4830: jmp  [0x6E3AB194] ; (1 found)
0x6e3a4940: jmp  [0x6E3AB198] ; (1 found)
0x6e3a4828: jmp  [0x6E3AB19C] ; (1 found)
0x6e3a4820: jmp  [0x6E3AB1A0] ; (1 found)
0x6e3a4818: jmp  [0x6E3AB1A4] ; (1 found)
0x6e3a4810: jmp  [0x6E3AB1A8] ; (1 found)
0x6e3a4808: jmp  [0x6E3AB1AC] ; (1 found)
0x6e3a4800: jmp  [0x6E3AB1B0] ; (1 found)
0x6e3a47f8: jmp  [0x6E3AB1B4] ; (1 found)
0x6e3a47f0: jmp  [0x6E3AB1B8] ; (1 found)
0x6e3a4950: jmp  [0x6E3AB1C0] ; (1 found)
0x6e3a4983: jmp  [eax+0x49] ; (1 found)
0x6e3a3e09: jmp  [ecx+0x6E3A93DC] ; (1 found)
0x6e3811fd: jmp  [esi-0x70] ; (1 found)
0x6e38136d: jmp  [esi-0x70] ; (1 found)
0x6e381f4d: jmp  [esi-0x70] ; (1 found)
0x6e382a6d: jmp  [esi-0x70] ; (1 found)
0x6e384b7d: jmp  [esi-0x70] ; (1 found)
0x6e384e6d: jmp  [esi-0x70] ; (1 found)
0x6e3856fd: jmp  [esi-0x70] ; (1 found)
0x6e3865ad: jmp  [esi-0x70] ; (1 found)
0x6e3870ed: jmp  [esi-0x70] ; (1 found)
0x6e38970d: jmp  [esi-0x70] ; (1 found)
0x6e38980d: jmp  [esi-0x70] ; (1 found)
0x6e38c5ad: jmp  [esi-0x70] ; (1 found)
0x6e38df6d: jmp  [esi-0x70] ; (1 found)
0x6e38e97d: jmp  [esi-0x70] ; (1 found)
0x6e38eedd: jmp  [esi-0x70] ; (1 found)
0x6e392f2d: jmp  [esi-0x70] ; (1 found)
0x6e39472d: jmp  [esi-0x70] ; (1 found)
0x6e3967cd: jmp  [esi-0x70] ; (1 found)
0x6e396d9d: jmp  [esi-0x70] ; (1 found)
0x6e397a9d: jmp  [esi-0x70] ; (1 found)
0x6e398b5d: jmp  [esi-0x70] ; (1 found)
0x6e39a81d: jmp  [esi-0x70] ; (1 found)
0x6e39b95d: jmp  [esi-0x70] ; (1 found)
0x6e3a090d: jmp  [esi-0x70] ; (1 found)
0x6e3a2dbd: jmp  [esi-0x70] ; (1 found)
0x6e3a36bd: jmp  [esi-0x70] ; (1 found)
0x6e3a4033: jmp  [esi-0x7D] ; (1 found)
0x6e385fa9: lds eax,  [eax] ; add byte [eax], al ; add byte [ecx-0x76BFDBA4], cl ; ret ; (1 found)
0x6e385e0a: lds eax,  [eax] ; add byte [eax], al ; add byte [ecx-0x76E3DBA4], cl ; ret ; (1 found)
0x6e382ac4: lds eax,  [eax] ; add byte [eax], al ; add byte [ecx], al ; ret ; (1 found)
0x6e389fc6: lds eax,  [eax] ; add byte [eax], al ; add byte [edi], cl ; scasd ; ret ; (1 found)
0x6e38c15d: lds ecx,  [ebp-0x6374FCEC] ; and al, 0x9C ; add byte [eax], al ; add byte [ebp+0x1C8D2A04], cl ; ret ; (1 found)
0x6e393eb5: lds ecx,  [ebx+0x01302444] ; ret ; (1 found)
0x6e396403: lds edi,  [ecx] ; retn 0x448B ; (1 found)
0x6e3a1d83: lea eax,  [esi-0x22FFFFFD] ; fcomp st0, st5 ; fmul  [ebx-0x7CE7DBA4] ; retn 0x2910 ; (1 found)
0x6e3a3a92: lea eax,  [esp+0x10] ; mov  [esp+0x00], eax ; call  [0x6E3AB130] ; (1 found)
0x6e3a3ac2: lea eax,  [esp+0x18] ; mov  [esp+0x00], eax ; call  [0x6E3AB144] ; (1 found)
0x6e3a3fb2: lea ecx,  [ebp-0x34] ; mov  [esp+0x08], 0x0000001C ; mov  [esp+0x04], ecx ; mov eax,  [eax+0x04] ; mov  [esp+0x00], eax ; call  [0x6E3AB160] ; (1 found)
0x6e391fe5: lea edi,  [ebx+0x01000002] ; fmul  [ebx-0x76CBDBAC] ; ret ; (1 found)
0x6e38d0b9: lea edi,  [edi+0x00000000] ; add esp, 0x10 ; fldz ; pop ebx ; ret ; (1 found)
0x6e3833f9: lea edi,  [edi+0x00000000] ; fldz ; add esp, 0x2C ; ret ; (1 found)
0x6e3815e9: lea edi,  [edi+0x00000000] ; fldz ; pop ebx ; pop esi ; ret ; (1 found)
0x6e3a3c89: lea edi,  [edi+0x00000000] ; mov eax,  [esp+0x04] ; ret ; (1 found)
0x6e383409: lea edi,  [edi+0x00000000] ; mov eax,  [esp+0x34] ; fld qword [eax] ; add esp, 0x2C ; fabs ; ret ; (1 found)
0x6e381759: lea edi,  [edi+0x00000000] ; pop ebx ; pop esi ; pop edi ; ret ; (1 found)
0x6e3a48b6: lea edx,  [esp+0x10] ; mov  [esp+0x00], edx ; call eax ; (1 found)
0x6e3a479a: lea esi,  [esi+0x00000000] ; fstp st1 ; add esp, 0x3C ; ret ; (1 found)
0x6e3a4209: lea esi,  [esi+0x00000000] ; mov  [esp+0x00], 0x6E3A93E8 ; call  [0x6E3AB110] ; (1 found)
0x6e381b8a: lea esi,  [esi+0x00000000] ; pop ebx ; fldz ; pop esi ; pop edi ; ret ; (1 found)
0x6e3845ea: lea esi,  [esi+0x00000000] ; pop ebx ; pop esi ; ret ; (1 found)
0x6e3a472c: lea esi,  [esi+0x00] ; fsqrt ; add esp, 0x3C ; ret ; (1 found)
0x6e3a47bc: lea esi,  [esi+0x00] ; fstp st0 ; fldz ; add esp, 0x3C ; fchs ; ret ; (1 found)
0x6e38d0b6: lea esi,  [esi+0x00] ; lea edi,  [edi+0x00000000] ; add esp, 0x10 ; fldz ; pop ebx ; ret ; (1 found)
0x6e3a3c85: lea esi,  [esi+0x00] ; lea edi,  [edi+0x00000000] ; mov eax,  [esp+0x04] ; ret ; (1 found)
0x6e381756: lea esi,  [esi+0x00] ; lea edi,  [edi+0x00000000] ; pop ebx ; pop esi ; pop edi ; ret ; (1 found)
0x6e38106d: lea esi,  [esi+0x00] ; mov  [esp+0x00], 0x000003E8 ; call esi ; (1 found)
0x6e3a412d: lea esi,  [esi+0x00] ; mov eax,  [ebx] ; mov  [esp+0x00], eax ; call ebp ; (1 found)
0x6e3814fc: lea esi,  [esi+0x00] ; push ebp ; mov ebp, esp ; sub esp, 0x18 ; mov  [esp+0x00], 0x6E3A6000 ; call  [0x6E3AB128] ; (1 found)
0x6e38d00d: lea esi,  [esi+0x00] ; xor eax, eax ; pop ebx ; pop esi ; ret ; (1 found)
0x6e3814f4: lea esp,  [ebp-0x08] ; pop ebx ; pop esi ; pop ebp ; ret ; (1 found)
0x6e3a3f40: lea esp,  [ebp-0x0C] ; pop ebx ; pop esi ; pop edi ; pop ebp ; ret ; (1 found)
0x6e3833f2: leave ; add esp, 0x2C ; ret ; (1 found)
0x6e38d1df: leave ; add esp, 0x2C ; ret ; (1 found)
0x6e38d054: leave ; fabs ; faddp st1, st0 ; ret ; (1 found)
0x6e3833f0: leave ; fmulp st1, st0 ; add esp, 0x2C ; ret ; (1 found)
0x6e38d1dd: leave ; fmulp st1, st0 ; add esp, 0x2C ; ret ; (1 found)
0x6e381557: leave ; ret ; (1 found)
0x6e3a4977: leave ; ret ; (1 found)
0x6e383667: les eax,  [ebx+ebx*2+0x5E] ; ret ; (1 found)
0x6e3836b1: les eax,  [ebx+ebx*2+0x5E] ; ret ; (1 found)
0x6e38f141: les ebp,  [eax+eax+0x5E5B0000] ; pop edi ; pop ebp ; ret ; (1 found)
0x6e38f4d6: les ebp,  [eax+eax+0x5E5B0000] ; pop edi ; pop ebp ; ret ; (1 found)
0x6e39ba02: les ebp,  [eax+eax+0x5E5B0000] ; pop edi ; pop ebp ; ret ; (1 found)
0x6e3a3979: les ebp,  [eax] ; mov eax, ebx ; pop ebx ; ret ; (1 found)
0x6e3a398e: les ebp,  [eax] ; pop ebx ; ret ; (1 found)
0x6e38d1e1: les ebp,  [ebx+eax*8] ; fldz ; add esp, 0x2C ; ret ; (1 found)
0x6e3833f4: les ebp,  [ebx+eax*8] ; mov esi, esi ; lea edi,  [edi+0x00000000] ; fldz ; add esp, 0x2C ; ret ; (1 found)
0x6e382514: les ebp,  [ebx+ebx*2+0x5E] ; pop edi ; pop ebp ; ret ; (1 found)
0x6e383eb1: les ebp,  [ebx+ebx*2+0x5E] ; pop edi ; pop ebp ; ret ; (1 found)
0x6e3859c1: les ebp,  [ebx+ebx*2+0x5E] ; pop edi ; pop ebp ; ret ; (1 found)
0x6e386215: les ebp,  [ebx+ebx*2+0x5E] ; pop edi ; pop ebp ; ret ; (1 found)
0x6e387bc3: les ebp,  [ebx+ebx*2+0x5E] ; pop edi ; pop ebp ; ret ; (1 found)
0x6e38a433: les ebp,  [ebx+ebx*2+0x5E] ; pop edi ; pop ebp ; ret ; (1 found)
0x6e38a696: les ebp,  [ebx+ebx*2+0x5E] ; pop edi ; pop ebp ; ret ; (1 found)
0x6e38b9c6: les ebp,  [ebx+ebx*2+0x5E] ; pop edi ; pop ebp ; ret ; (1 found)
0x6e38bc26: les ebp,  [ebx+ebx*2+0x5E] ; pop edi ; pop ebp ; ret ; (1 found)
0x6e3a3a8b: les ebp,  [ebx+ebx*2] ; pop esi ; pop edi ; pop ebp ; ret ; (1 found)
0x6e3a3af8: les ebp,  [ebx+ebx*2] ; pop esi ; pop edi ; pop ebp ; ret ; (1 found)
0x6e383b5d: les ebp,  [ebx+ebx*2] ; pop esi ; ret ; (1 found)
0x6e383c23: les ebp,  [ebx+ebx*2] ; pop esi ; ret ; (1 found)
0x6e383d67: les ebp,  [ebx+ebx*2] ; pop esi ; ret ; (1 found)
0x6e383d8a: les ebp,  [ebx+ebx*2] ; pop esi ; ret ; (1 found)
0x6e396d15: les ebx,  [eax+eax+0x5E5B0000] ; pop edi ; pop ebp ; ret ; (1 found)
0x6e39adc1: les ebx,  [eax+eax+0x5E5B0000] ; pop edi ; pop ebp ; ret ; (1 found)
0x6e39b074: les ebx,  [eax+eax+0x5E5B0000] ; pop edi ; pop ebp ; ret ; (1 found)
0x6e381036: les ebx,  [eax] ; mov eax, 0x00000001 ; pop ebx ; ret ; (1 found)
0x6e3a3c16: les ebx,  [eax] ; mov eax, 0x00000001 ; pop ebx ; retn 0x000C ; (1 found)
0x6e3a3c44: les ebx,  [eax] ; mov eax, 0x00000001 ; pop ebx ; retn 0x000C ; (1 found)
0x6e395c16: les ebx,  [eax] ; pop ebx ; pop esi ; pop edi ; ret ; (1 found)
0x6e3a3a1c: les ebx,  [eax] ; pop ebx ; ret ; (1 found)
0x6e3a41dc: les ebx,  [eax] ; pop ebx ; ret ; (1 found)
0x6e38102f: les ebx,  [eax] ; xor eax, eax ; pop ebx ; ret ; (1 found)
0x6e3a4202: les ebx,  [eax] ; xor eax, eax ; pop ebx ; ret ; (1 found)
0x6e3a4252: les ebx,  [eax] ; xor eax, eax ; pop ebx ; ret ; (1 found)
0x6e3a42fd: les ebx,  [ebx+eax*8] ; mov  [esp+0x00], 0x6E3A93E8 ; call  [0x6E3AB138] ; (1 found)
0x6e381cd3: les ebx,  [ebx+ebx*2+0x5E] ; pop edi ; pop ebp ; ret ; (1 found)
0x6e382c14: les ebx,  [ebx+ebx*2+0x5E] ; pop edi ; pop ebp ; ret ; (1 found)
0x6e384851: les ebx,  [ebx+ebx*2+0x5E] ; pop edi ; pop ebp ; ret ; (1 found)
0x6e3883a1: les ebx,  [ebx+ebx*2+0x5E] ; pop edi ; pop ebp ; ret ; (1 found)
0x6e38b136: les ebx,  [ebx+ebx*2+0x5E] ; pop edi ; pop ebp ; ret ; (1 found)
0x6e38b61a: les ebx,  [ebx+ebx*2+0x5E] ; pop edi ; pop ebp ; ret ; (1 found)
0x6e38b6e5: les ebx,  [ebx+ebx*2+0x5E] ; pop edi ; pop ebp ; ret ; (1 found)
0x6e38c831: les ebx,  [ebx+ebx*2+0x5E] ; pop edi ; pop ebp ; ret ; (1 found)
0x6e38d8f7: les ebx,  [ebx+ebx*2+0x5E] ; pop edi ; pop ebp ; ret ; (1 found)
0x6e39252b: les ebx,  [ebx+ebx*2+0x5E] ; pop edi ; pop ebp ; ret ; (1 found)
0x6e392d79: les ebx,  [ebx+ebx*2+0x5E] ; pop edi ; pop ebp ; ret ; (1 found)
0x6e394c95: les ebx,  [ebx+ebx*2+0x5E] ; pop edi ; pop ebp ; ret ; (1 found)
0x6e39e4fd: les ebx,  [ebx+ebx*2+0x5E] ; pop edi ; pop ebp ; ret ; (1 found)
0x6e39f41d: les ebx,  [ebx+ebx*2+0x5E] ; pop edi ; pop ebp ; ret ; (1 found)
0x6e3a4166: les ebx,  [ebx+ebx*2] ; pop esi ; pop edi ; pop ebp ; ret ; (1 found)
0x6e3a4433: les ebx,  [ecx+ecx*4] ; fimul word [ecx+0x5F5E5BF0] ; pop ebp ; ret ; (1 found)
0x6e3812c2: les ebx,  [ecx+ecx*4] ; lock pop ebx ; pop esi ; pop edi ; pop ebp ; ret ; (1 found)
0x6e3a43d6: les ebx,  [ecx+ecx*4] ; lock pop ebx ; pop esi ; pop edi ; pop ebp ; ret ; (1 found)
0x6e3a4441: les ebx,  [ecx+esi] ; neg byte [ebx-0x77] ; lock pop esi ; pop edi ; pop ebp ; ret ; (1 found)
0x6e3a39b5: les ebx,  [edi+ecx] ; mov dh, 0xC0 ; neg eax ; ret ; (1 found)
0x6e38d2eb: les ebx, ebp ; fadd  [ebx+0x5E5B14C4] ; ret ; (1 found)
0x6e38e5d6: les ecx,  [eax+eax+0x5E5B0000] ; pop edi ; pop ebp ; ret ; (1 found)
0x6e3932a1: les ecx,  [eax+eax+0x5E5B0000] ; pop edi ; pop ebp ; ret ; (1 found)
0x6e3935c6: les ecx,  [eax+eax+0x5E5B0000] ; pop edi ; pop ebp ; ret ; (1 found)
0x6e398e46: les ecx,  [eax+eax+0x5E5B0000] ; pop edi ; pop ebp ; ret ; (1 found)
0x6e399d91: les ecx,  [eax+eax+0x5E5B0000] ; pop edi ; pop ebp ; ret ; (1 found)
0x6e39d821: les ecx,  [eax+eax+0x5E5B0000] ; pop edi ; pop ebp ; ret ; (1 found)
0x6e3a2441: les ecx,  [eax+eax+0x5E5B0000] ; pop edi ; pop ebp ; ret ; (1 found)
0x6e3a4462: les ecx,  [eax] ; mov eax, ebx ; pop ebx ; ret ; (1 found)
0x6e3a45f8: les ecx,  [eax] ; mov eax, edi ; pop ebx ; pop esi ; pop edi ; ret ; (1 found)
0x6e3a4498: les ecx,  [eax] ; mov ebx, eax ; mov eax, ebx ; pop ebx ; ret ; (1 found)
0x6e3a45c7: les ecx,  [eax] ; ret ; (1 found)
0x6e385282: les ecx,  [ebx+ebx*2+0x5E] ; pop edi ; pop ebp ; ret ; (1 found)
0x6e3853f6: les ecx,  [ebx+ebx*2+0x5E] ; pop edi ; pop ebp ; ret ; (1 found)
0x6e38554d: les ecx,  [ebx+ebx*2+0x5E] ; pop edi ; pop ebp ; ret ; (1 found)
0x6e386cb1: les ecx,  [ebx+ebx*2+0x5E] ; pop edi ; pop ebp ; ret ; (1 found)
0x6e386f8e: les ecx,  [ebx+ebx*2+0x5E] ; pop edi ; pop ebp ; ret ; (1 found)
0x6e388ca5: les ecx,  [ebx+ebx*2+0x5E] ; pop edi ; pop ebp ; ret ; (1 found)
0x6e389513: les ecx,  [ebx+ebx*2+0x5E] ; pop edi ; pop ebp ; ret ; (1 found)
0x6e389a48: les ecx,  [ebx+ebx*2+0x5E] ; pop edi ; pop ebp ; ret ; (1 found)
0x6e389c61: les ecx,  [ebx+ebx*2+0x5E] ; pop edi ; pop ebp ; ret ; (1 found)
0x6e38e2d5: les ecx,  [ebx+ebx*2+0x5E] ; pop edi ; pop ebp ; ret ; (1 found)
0x6e38e45f: les ecx,  [ebx+ebx*2+0x5E] ; pop edi ; pop ebp ; ret ; (1 found)
0x6e396a05: les ecx,  [ebx+ebx*2+0x5E] ; pop edi ; pop ebp ; ret ; (1 found)
0x6e396b8f: les ecx,  [ebx+ebx*2+0x5E] ; pop edi ; pop ebp ; ret ; (1 found)
0x6e398852: les ecx,  [ebx+ebx*2+0x5E] ; pop edi ; pop ebp ; ret ; (1 found)
0x6e39aa21: les ecx,  [ebx+ebx*2+0x5E] ; pop edi ; pop ebp ; ret ; (1 found)
0x6e3a06ed: les ecx,  [ebx+ebx*2+0x5E] ; pop edi ; pop ebp ; ret ; (1 found)
0x6e3a0e89: les ecx,  [ebx+ebx*2+0x5E] ; pop edi ; pop ebp ; ret ; (1 found)
0x6e3a13ee: les ecx,  [ebx+ebx*2+0x5E] ; pop edi ; pop ebp ; ret ; (1 found)
0x6e3834ec: les ecx,  [ebx+ebx*2] ; pop esi ; pop edi ; pop ebp ; ret ; (1 found)
0x6e3a39e8: les ecx,  [ebx+esi*8] ; ret ; (1 found)
0x6e38fb41: les ecx, esp ; add byte [eax], al ; add byte [ebx+0x5E], bl ; pop edi ; pop ebp ; ret ; (1 found)
0x6e39c741: les ecx, esp ; add byte [eax], al ; add byte [ebx+0x5E], bl ; pop edi ; pop ebp ; ret ; (1 found)
0x6e397b42: les edi,  [eax+eax+0x5E5B0000] ; pop edi ; pop ebp ; ret ; (1 found)
0x6e3871d1: les edi,  [ebx+ebx*2+0x5E] ; pop edi ; pop ebp ; ret ; (1 found)
0x6e390fb2: les edi,  [ebx+ebx*2+0x5E] ; pop edi ; pop ebp ; ret ; (1 found)
0x6e3912d6: les edi,  [ebx+ebx*2+0x5E] ; pop edi ; pop ebp ; ret ; (1 found)
0x6e395e65: les edi,  [ebx+ebx*2+0x5E] ; pop edi ; pop ebp ; ret ; (1 found)
0x6e383163: les edi,  [ebx+ebx*2] ; pop esi ; pop edi ; pop ebp ; ret ; (1 found)
0x6e383298: les edi,  [ebx+ebx*2] ; pop esi ; pop edi ; pop ebp ; ret ; (1 found)
0x6e384f25: les edi,  [ebx+ebx*2] ; pop esi ; pop edi ; pop ebp ; ret ; (1 found)
0x6e386961: les edi,  [ebx+ebx*2] ; pop esi ; pop edi ; pop ebp ; ret ; (1 found)
0x6e38d0c1: les edx,  [eax] ; fldz ; pop ebx ; ret ; (1 found)
0x6e381162: les edx,  [eax] ; mov eax, 0x00000001 ; pop ebx ; pop esi ; pop edi ; retn 0x000C ; (1 found)
0x6e3810af: les edx,  [eax] ; pop ebx ; pop esi ; pop edi ; retn 0x000C ; (1 found)
0x6e3811ec: les edx,  [eax] ; pop ebx ; pop esi ; pop edi ; retn 0x000C ; (1 found)
0x6e38d0b2: les edx,  [eax] ; pop ebx ; ret ; (1 found)
0x6e38d103: les edx,  [eax] ; pop ebx ; ret ; (1 found)
0x6e38d28e: les edx,  [ebx+ebx*2] ; pop esi ; ret ; (1 found)
0x6e38d2ef: les edx,  [ebx+ebx*2] ; pop esi ; ret ; (1 found)
0x6e3a3de7: les esi,  [eax] ; pop ebx ; pop esi ; pop edi ; ret ; (1 found)
0x6e39b7ad: les esp,  [eax+0x5B] ; pop esi ; pop edi ; ret ; (1 found)
0x6e39b7d7: les esp,  [eax+0x5B] ; pop esi ; pop edi ; ret ; (1 found)
0x6e3a3b56: lock mov eax,  [0x6E3A5014] ; mov  [ebp-0x0C], eax ; call  [0x6E3AB148] ; (1 found)
0x6e3812c5: lock pop ebx ; pop esi ; pop edi ; pop ebp ; ret ; (1 found)
0x6e3a43d9: lock pop ebx ; pop esi ; pop edi ; pop ebp ; ret ; (1 found)
0x6e3a4438: lock pop ebx ; pop esi ; pop edi ; pop ebp ; ret ; (1 found)
0x6e3a44e4: lock pop ebx ; pop esi ; ret ; (1 found)
0x6e3a453a: lock pop ebx ; pop esi ; ret ; (1 found)
0x6e3a4543: lock pop ebx ; pop esi ; ret ; (1 found)
0x6e3a4447: lock pop esi ; pop edi ; pop ebp ; ret ; (1 found)
0x6e3a3b6b: lock popad ; cmp ch, byte [esi-0x01] ; adc eax, 0x6E3AB158 ; sub esp, 0x04 ; call  [0x6E3AB118] ; (1 found)
0x6e38f142: lodsb ; add byte [eax], al ; add byte [ebx+0x5E], bl ; pop edi ; pop ebp ; ret ; (1 found)
0x6e38f4d7: lodsb ; add byte [eax], al ; add byte [ebx+0x5E], bl ; pop edi ; pop ebp ; ret ; (1 found)
0x6e39ba03: lodsb ; add byte [eax], al ; add byte [ebx+0x5E], bl ; pop edi ; pop ebp ; ret ; (1 found)
0x6e38ed77: lodsb ; add byte [eax], al ; add byte [ecx-0x7CD7DB94], cl ; rcl byte [eax], 0x83 ; retn 0xBD10 ; (1 found)
0x6e397b4f: lodsb ; add byte [eax], al ; add byte [edi], al ; add byte [eax], al ; add bl, ch ; ret ; (1 found)
0x6e3a480a: lodsb ; mov cl, 0x3A ; outsb ; nop ; nop ; jmp  [0x6E3AB1A8] ; (1 found)
0x6e3a3b4a: mov  [0x6E3A90EC], eax ; mov eax,  [0x6E3A5010] ; mov  [ebp-0x10], eax ; mov eax,  [0x6E3A5014] ; mov  [ebp-0x0C], eax ; call  [0x6E3AB148] ; (1 found)
0x6e3a41c0: mov  [0x6E3A93E0], ebx ; mov  [esp+0x00], 0x6E3A93E8 ; mov  [ebx+0x08], eax ; call  [0x6E3AB13C] ; (1 found)
0x6e3a42c8: mov  [0x6E3A93E4], 0x00000000 ; mov  [esp+0x00], 0x6E3A93E8 ; call  [0x6E3AB10C] ; (1 found)
0x6e3a42ed: mov  [0x6E3A93E4], 0x00000001 ; mov eax, 0x00000001 ; add esp, 0x1C ; ret ; (1 found)
0x6e381485: mov  [0x6E3A9408], eax ; mov  [esp+0x04], 0x6E3A6013 ; mov  [esp+0x00], esi ; call  [0x6E3AB12C] ; (1 found)
0x6e39460f: mov  [0x8BFFFFFC], eax ; mov word [eax+esi*4], fs ; add byte [eax], al ; add byte [ebx+0x0FD28511], cl ; mov ss, word [eax-0x7C000008] ; retn 0xB901 ; (1 found)
0x6e3a4661: mov  [eax], 0x896E3800 ; clc ; pop edi ; ret ; (1 found)
0x6e3a3b5c: mov  [ebp-0x0C], eax ; call  [0x6E3AB148] ; (1 found)
0x6e3a3b54: mov  [ebp-0x10], eax ; mov eax,  [0x6E3A5014] ; mov  [ebp-0x0C], eax ; call  [0x6E3AB148] ; (1 found)
0x6e3a41af: mov  [ebx+0x04], eax ; call  [0x6E3AB110] ; (1 found)
0x6e3a41cd: mov  [ebx+0x08], eax ; call  [0x6E3AB13C] ; (1 found)
0x6e381028: mov  [ebx], 0x00000000 ; add esp, 0x18 ; xor eax, eax ; pop ebx ; ret ; (1 found)
0x6e3a41a9: mov  [ebx], eax ; mov eax,  [esp+0x24] ; mov  [ebx+0x04], eax ; call  [0x6E3AB110] ; (1 found)
0x6e38e1a4: mov  [ecx], 0x8310C083 ; retn 0xDD10 ; (1 found)
0x6e38e234: mov  [ecx], 0x8310C083 ; retn 0xDD10 ; (1 found)
0x6e391691: mov  [ecx], 0x8310C083 ; retn 0xDD10 ; (1 found)
0x6e3976a1: mov  [ecx], 0x8310C283 ; ret ; (1 found)
0x6e385d80: mov  [ecx], 0x8B03E5C1 ; test byte [eax+ebp*4], ah ; add byte [eax], al ; add byte [ecx-0x7CF7DB94], cl ; ret ; (1 found)
0x6e3810e8: mov  [esp+0x00], 0x000003E8 ; call edi ; (1 found)
0x6e381070: mov  [esp+0x00], 0x000003E8 ; call esi ; (1 found)
0x6e3814eb: mov  [esp+0x00], 0x6E3A5018 ; call edx ; (1 found)
0x6e381506: mov  [esp+0x00], 0x6E3A6000 ; call  [0x6E3AB128] ; (1 found)
0x6e381475: mov  [esp+0x00], 0x6E3A6000 ; call  [0x6E3AB140] ; (1 found)
0x6e38145e: mov  [esp+0x00], 0x6E3A6000 ; call ebx ; (1 found)
0x6e3814bc: mov  [esp+0x00], 0x6E3A6029 ; call ebx ; (1 found)
0x6e3a3b68: mov  [esp+0x00], 0x6E3A61F0 ; call  [0x6E3AB158] ; (1 found)
0x6e3814aa: mov  [esp+0x00], 0x6E3A7150 ; call eax ; (1 found)
0x6e381539: mov  [esp+0x00], 0x6E3A7150 ; call edx ; (1 found)
0x6e3a42d2: mov  [esp+0x00], 0x6E3A93E8 ; call  [0x6E3AB10C] ; (1 found)
0x6e3a4107: mov  [esp+0x00], 0x6E3A93E8 ; call  [0x6E3AB110] ; (1 found)
0x6e3a4210: mov  [esp+0x00], 0x6E3A93E8 ; call  [0x6E3AB110] ; (1 found)
0x6e3a4300: mov  [esp+0x00], 0x6E3A93E8 ; call  [0x6E3AB138] ; (1 found)
0x6e3a4155: mov  [esp+0x00], 0x6E3A93E8 ; call  [0x6E3AB13C] ; (1 found)
0x6e3a4241: mov  [esp+0x00], 0x6E3A93E8 ; call  [0x6E3AB13C] ; (1 found)
0x6e3a426e: mov  [esp+0x00], 0x6E3A93E8 ; call  [0x6E3AB13C] ; (1 found)
0x6e3a41c6: mov  [esp+0x00], 0x6E3A93E8 ; mov  [ebx+0x08], eax ; call  [0x6E3AB13C] ; (1 found)
0x6e3a41a2: mov  [esp+0x00], 0x6E3A93E8 ; mov  [ebx], eax ; mov eax,  [esp+0x24] ; mov  [ebx+0x04], eax ; call  [0x6E3AB110] ; (1 found)
0x6e38154b: mov  [esp+0x00], eax ; call  [0x6E3AB114] ; (1 found)
0x6e3814d9: mov  [esp+0x00], eax ; call  [0x6E3AB12C] ; (1 found)
0x6e381527: mov  [esp+0x00], eax ; call  [0x6E3AB12C] ; (1 found)
0x6e3a3a96: mov  [esp+0x00], eax ; call  [0x6E3AB130] ; (1 found)
0x6e3a3ac6: mov  [esp+0x00], eax ; call  [0x6E3AB144] ; (1 found)
0x6e3a3b86: mov  [esp+0x00], eax ; call  [0x6E3AB150] ; (1 found)
0x6e3a3dcf: mov  [esp+0x00], eax ; call  [0x6E3AB15C] ; (1 found)
0x6e3a3ff5: mov  [esp+0x00], eax ; call  [0x6E3AB15C] ; (1 found)
0x6e3a3d8d: mov  [esp+0x00], eax ; call  [0x6E3AB160] ; (1 found)
0x6e3a3fc4: mov  [esp+0x00], eax ; call  [0x6E3AB160] ; (1 found)
0x6e3a3984: mov  [esp+0x00], eax ; call  [0x6E3AB188] ; (1 found)
0x6e3a4132: mov  [esp+0x00], eax ; call ebp ; (1 found)
0x6e381152: mov  [esp+0x00], edx ; call eax ; (1 found)
0x6e3a48ba: mov  [esp+0x00], edx ; call eax ; (1 found)
0x6e381492: mov  [esp+0x00], esi ; call  [0x6E3AB12C] ; (1 found)
0x6e3a4149: mov  [esp+0x00], esi ; call eax ; (1 found)
0x6e381142: mov  [esp+0x04], 0x00000002 ; mov  [esp+0x08], edx ; mov edx,  [esp+0x20] ; mov  [esp+0x00], edx ; call eax ; (1 found)
0x6e38148a: mov  [esp+0x04], 0x6E3A6013 ; mov  [esp+0x00], esi ; call  [0x6E3AB12C] ; (1 found)
0x6e3814d1: mov  [esp+0x04], 0x6E3A6037 ; mov  [esp+0x00], eax ; call  [0x6E3AB12C] ; (1 found)
0x6e38151f: mov  [esp+0x04], 0x6E3A604B ; mov  [esp+0x00], eax ; call  [0x6E3AB12C] ; (1 found)
0x6e3814a2: mov  [esp+0x04], 0x6E3A9004 ; mov  [esp+0x00], 0x6E3A7150 ; call eax ; (1 found)
0x6e3a3b7e: mov  [esp+0x04], 0xC0000409 ; mov  [esp+0x00], eax ; call  [0x6E3AB150] ; (1 found)
0x6e3a3d80: mov  [esp+0x04], eax ; mov eax,  [0x6E3A93DC] ; mov eax,  [eax+ebx+0x04] ; mov  [esp+0x00], eax ; call  [0x6E3AB160] ; (1 found)
0x6e3a3fee: mov  [esp+0x04], eax ; mov eax,  [ebp-0x34] ; mov  [esp+0x00], eax ; call  [0x6E3AB15C] ; (1 found)
0x6e3a3dc3: mov  [esp+0x04], eax ; mov eax,  [esp+0x14] ; mov  [esp+0x0C], ebx ; mov  [esp+0x00], eax ; call  [0x6E3AB15C] ; (1 found)
0x6e3a3fbd: mov  [esp+0x04], ecx ; mov eax,  [eax+0x04] ; mov  [esp+0x00], eax ; call  [0x6E3AB160] ; (1 found)
0x6e3a3d78: mov  [esp+0x08], 0x0000001C ; mov  [esp+0x04], eax ; mov eax,  [0x6E3A93DC] ; mov eax,  [eax+ebx+0x04] ; mov  [esp+0x00], eax ; call  [0x6E3AB160] ; (1 found)
0x6e3a3fb5: mov  [esp+0x08], 0x0000001C ; mov  [esp+0x04], ecx ; mov eax,  [eax+0x04] ; mov  [esp+0x00], eax ; call  [0x6E3AB160] ; (1 found)
0x6e3a3dbb: mov  [esp+0x08], 0x00000040 ; mov  [esp+0x04], eax ; mov eax,  [esp+0x14] ; mov  [esp+0x0C], ebx ; mov  [esp+0x00], eax ; call  [0x6E3AB15C] ; (1 found)
0x6e3a3fe7: mov  [esp+0x08], eax ; mov eax,  [ebp-0x28] ; mov  [esp+0x04], eax ; mov eax,  [ebp-0x34] ; mov  [esp+0x00], eax ; call  [0x6E3AB15C] ; (1 found)
0x6e38114a: mov  [esp+0x08], edx ; mov edx,  [esp+0x20] ; mov  [esp+0x00], edx ; call eax ; (1 found)
0x6e3a3dcb: mov  [esp+0x0C], ebx ; mov  [esp+0x00], eax ; call  [0x6E3AB15C] ; (1 found)
0x6e3a48b2: mov  [esp+0x14], edx ; lea edx,  [esp+0x10] ; mov  [esp+0x00], edx ; call eax ; (1 found)
0x6e3a420a: mov ah, 0x26 ; add byte [eax], al ; add byte [eax], al ; mov  [esp+0x00], 0x6E3A93E8 ; call  [0x6E3AB110] ; (1 found)
0x6e3a47fa: mov ah, 0xB1 ; cmp ch, byte [esi-0x70] ; nop ; jmp  [0x6E3AB1B0] ; (1 found)
0x6e3a4802: mov al, 0xB1 ; cmp ch, byte [esi-0x70] ; nop ; jmp  [0x6E3AB1AC] ; (1 found)
0x6e3a4822: mov al, byte [0x906E3AB1] ; nop ; jmp  [0x6E3AB19C] ; (1 found)
0x6e3a42ab: mov ax, 0x0001 ; add byte [eax], al ; add esp, 0x1C ; ret ; (1 found)
0x6e3a44c4: mov bh, 0x80 ; push es ; add byte [eax], bh ; outsb ; ret ; (1 found)
0x6e384beb: mov byte [ebx+0x448901C0], 0x24 ; sbb al, 0xE9 ; sar ah, 0xFF ; call  [eax+0x0026B48D] ; (1 found)
0x6e3902e8: mov byte [ecx], 0x83 ; rcl byte [eax], 0x83 ; retn 0x8310 ; (1 found)
0x6e39cf07: mov byte [ecx], 0x83 ; rcl byte [eax], 0x83 ; retn 0x8310 ; (1 found)
0x6e3a286c: mov byte [ecx], 0x83 ; ret ; (1 found)
0x6e3a2d36: mov byte [ecx], 0x83 ; ret ; (1 found)
0x6e3a2f16: mov byte [ecx], 0x83 ; ret ; (1 found)
0x6e3a30e4: mov byte [ecx], 0x83 ; ret ; (1 found)
0x6e3a3294: mov byte [ecx], 0x83 ; ret ; (1 found)
0x6e3a3682: mov byte [ecx], 0x83 ; ret ; (1 found)
0x6e3a3844: mov byte [ecx], 0x83 ; ret ; (1 found)
0x6e3a4411: mov byte [ecx], 0x83 ; ret ; (1 found)
0x6e391eb6: mov byte [ecx], 0x83 ; retn 0x8310 ; (1 found)
0x6e397555: mov byte [ecx], 0x83 ; retn 0xDD10 ; (1 found)
0x6e389453: mov byte [ecx], 0xDD ; inc esp ; ret ; (1 found)
0x6e390934: mov ch, byte [edi+0x0F000001] ; test  [ecx-0x26FFFFFF], ebp ; ret ; (1 found)
0x6e3a398a: mov cl, 0x3A ; outsb ; add esp, 0x28 ; pop ebx ; ret ; (1 found)
0x6e38145b: mov cl, 0x3A ; outsb ; mov  [esp+0x00], 0x6E3A6000 ; call ebx ; (1 found)
0x6e3a3b7b: mov cl, 0x3A ; outsb ; mov  [esp+0x04], 0xC0000409 ; mov  [esp+0x00], eax ; call  [0x6E3AB150] ; (1 found)
0x6e3a3aad: mov cl, 0x3A ; outsb ; mov ebp, eax ; call  [0x6E3AB120] ; (1 found)
0x6e3a3ab5: mov cl, 0x3A ; outsb ; mov edi, eax ; call  [0x6E3AB134] ; (1 found)
0x6e3a3abd: mov cl, 0x3A ; outsb ; mov esi, eax ; lea eax,  [esp+0x18] ; mov  [esp+0x00], eax ; call  [0x6E3AB144] ; (1 found)
0x6e3a486b: mov cl, 0x3A ; outsb ; nop ; nop ; jmp  [0x6E3AB168] ; (1 found)
0x6e3a4943: mov cl, 0x3A ; outsb ; nop ; nop ; jmp  [0x6E3AB16C] ; (1 found)
0x6e3a4863: mov cl, 0x3A ; outsb ; nop ; nop ; jmp  [0x6E3AB170] ; (1 found)
0x6e3a485b: mov cl, 0x3A ; outsb ; nop ; nop ; jmp  [0x6E3AB174] ; (1 found)
0x6e3a4853: mov cl, 0x3A ; outsb ; nop ; nop ; jmp  [0x6E3AB178] ; (1 found)
0x6e3a484b: mov cl, 0x3A ; outsb ; nop ; nop ; jmp  [0x6E3AB17C] ; (1 found)
0x6e3a4843: mov cl, 0x3A ; outsb ; nop ; nop ; jmp  [0x6E3AB184] ; (1 found)
0x6e3a483b: mov cl, 0x3A ; outsb ; nop ; nop ; jmp  [0x6E3AB18C] ; (1 found)
0x6e3a4833: mov cl, 0x3A ; outsb ; nop ; nop ; jmp  [0x6E3AB190] ; (1 found)
0x6e3a482b: mov cl, 0x3A ; outsb ; nop ; nop ; jmp  [0x6E3AB194] ; (1 found)
0x6e3a4823: mov cl, 0x3A ; outsb ; nop ; nop ; jmp  [0x6E3AB19C] ; (1 found)
0x6e3a481b: mov cl, 0x3A ; outsb ; nop ; nop ; jmp  [0x6E3AB1A0] ; (1 found)
0x6e3a4813: mov cl, 0x3A ; outsb ; nop ; nop ; jmp  [0x6E3AB1A4] ; (1 found)
0x6e3a480b: mov cl, 0x3A ; outsb ; nop ; nop ; jmp  [0x6E3AB1A8] ; (1 found)
0x6e3a4803: mov cl, 0x3A ; outsb ; nop ; nop ; jmp  [0x6E3AB1AC] ; (1 found)
0x6e3a47fb: mov cl, 0x3A ; outsb ; nop ; nop ; jmp  [0x6E3AB1B0] ; (1 found)
0x6e3a47f3: mov cl, 0x3A ; outsb ; nop ; nop ; jmp  [0x6E3AB1B4] ; (1 found)
0x6e3a494b: mov cl, 0x3A ; outsb ; nop ; nop ; jmp  [0x6E3AB1C0] ; (1 found)
0x6e3a3b72: mov cl, 0x3A ; outsb ; sub esp, 0x04 ; call  [0x6E3AB118] ; (1 found)
0x6e381551: mov cl, 0x3A ; outsb ; sub esp, 0x04 ; leave ; ret ; (1 found)
0x6e3a3b62: mov cl, 0x3A ; outsb ; sub esp, 0x04 ; mov  [esp+0x00], 0x6E3A61F0 ; call  [0x6E3AB158] ; (1 found)
0x6e3a3a9c: mov cl, 0x3A ; outsb ; sub esp, 0x04 ; mov ebx,  [esp+0x10] ; xor ebx,  [esp+0x14] ; call  [0x6E3AB11C] ; (1 found)
0x6e3a3f3b: mov dh, 0x00 ; add byte [eax], al ; add byte [ebp+0x5E5BF465], cl ; pop edi ; pop ebp ; ret ; (1 found)
0x6e38484b: mov dh, 0x00 ; add byte [eax], al ; add byte [ebx+0x5E5B5CC4], al ; pop edi ; pop ebp ; ret ; (1 found)
0x6e3845eb: mov dh, 0x00 ; add byte [eax], al ; add byte [ebx+0x5E], bl ; ret ; (1 found)
0x6e388a4b: mov dh, 0x00 ; add byte [eax], al ; add ch, bl ; inc esp ; retn 0x8308 ; (1 found)
0x6e3a39b8: mov dh, 0xC0 ; neg eax ; ret ; (1 found)
0x6e381599: mov dh, 0xC0 ; pop ebx ; ret ; (1 found)
0x6e3a434a: mov dh, 0xC0 ; ret ; (1 found)
0x6e3a44be: mov eax,  [0x6E38003C] ; movzx eax, word [eax+0x6E380006] ; ret ; (1 found)
0x6e3a3b4f: mov eax,  [0x6E3A5010] ; mov  [ebp-0x10], eax ; mov eax,  [0x6E3A5014] ; mov  [ebp-0x0C], eax ; call  [0x6E3AB148] ; (1 found)
0x6e3a3b57: mov eax,  [0x6E3A5014] ; mov  [ebp-0x0C], eax ; call  [0x6E3AB148] ; (1 found)
0x6e3a3d84: mov eax,  [0x6E3A93DC] ; mov eax,  [eax+ebx+0x04] ; mov  [esp+0x00], eax ; call  [0x6E3AB160] ; (1 found)
0x6e3a41b8: mov eax,  [0x6E3A93E0] ; sub esp, 0x04 ; mov  [0x6E3A93E0], ebx ; mov  [esp+0x00], 0x6E3A93E8 ; mov  [ebx+0x08], eax ; call  [0x6E3AB13C] ; (1 found)
0x6e384780: mov eax,  [0xD95BDDEB] ; out dx, al ; pop esi ; pop edi ; pop ebp ; ret ; (1 found)
0x6e3a3fc1: mov eax,  [eax+0x04] ; mov  [esp+0x00], eax ; call  [0x6E3AB160] ; (1 found)
0x6e3a45be: mov eax,  [eax+0x24] ; not eax ; shr eax, 0x1F ; add esp, 0x08 ; ret ; (1 found)
0x6e3a3d89: mov eax,  [eax+ebx+0x04] ; mov  [esp+0x00], eax ; call  [0x6E3AB160] ; (1 found)
0x6e3a3feb: mov eax,  [ebp-0x28] ; mov  [esp+0x04], eax ; mov eax,  [ebp-0x34] ; mov  [esp+0x00], eax ; call  [0x6E3AB15C] ; (1 found)
0x6e3a3ff2: mov eax,  [ebp-0x34] ; mov  [esp+0x00], eax ; call  [0x6E3AB15C] ; (1 found)
0x6e3a4146: mov eax,  [ebx+0x04] ; mov  [esp+0x00], esi ; call eax ; (1 found)
0x6e3a4130: mov eax,  [ebx] ; mov  [esp+0x00], eax ; call ebp ; (1 found)
0x6e3a3c80: mov eax,  [esp+0x04] ; ret ; (1 found)
0x6e3a3c90: mov eax,  [esp+0x04] ; ret ; (1 found)
0x6e3a3dc7: mov eax,  [esp+0x14] ; mov  [esp+0x0C], ebx ; mov  [esp+0x00], eax ; call  [0x6E3AB15C] ; (1 found)
0x6e3a419e: mov eax,  [esp+0x20] ; mov  [esp+0x00], 0x6E3A93E8 ; mov  [ebx], eax ; mov eax,  [esp+0x24] ; mov  [ebx+0x04], eax ; call  [0x6E3AB110] ; (1 found)
0x6e3a41ab: mov eax,  [esp+0x24] ; mov  [ebx+0x04], eax ; call  [0x6E3AB110] ; (1 found)
0x6e3a3980: mov eax,  [esp+0x30] ; mov  [esp+0x00], eax ; call  [0x6E3AB188] ; (1 found)
0x6e383410: mov eax,  [esp+0x34] ; fld qword [eax] ; add esp, 0x2C ; fabs ; ret ; (1 found)
0x6e3810a9: mov eax, 0x00000001 ; add esp, 0x10 ; pop ebx ; pop esi ; pop edi ; retn 0x000C ; (1 found)
0x6e3811e6: mov eax, 0x00000001 ; add esp, 0x10 ; pop ebx ; pop esi ; pop edi ; retn 0x000C ; (1 found)
0x6e3a42ac: mov eax, 0x00000001 ; add esp, 0x1C ; ret ; (1 found)
0x6e3a42f7: mov eax, 0x00000001 ; add esp, 0x1C ; ret ; (1 found)
0x6e3a3bb0: mov eax, 0x00000001 ; add esp, 0x1C ; retn 0x000C ; (1 found)
0x6e3a3bd8: mov eax, 0x00000001 ; add esp, 0x1C ; retn 0x000C ; (1 found)
0x6e381164: mov eax, 0x00000001 ; pop ebx ; pop esi ; pop edi ; retn 0x000C ; (1 found)
0x6e381038: mov eax, 0x00000001 ; pop ebx ; ret ; (1 found)
0x6e3a3c18: mov eax, 0x00000001 ; pop ebx ; retn 0x000C ; (1 found)
0x6e3a3c46: mov eax, 0x00000001 ; pop ebx ; retn 0x000C ; (1 found)
0x6e3a46b0: mov eax, 0x00000001 ; retn 0x000C ; (1 found)
0x6e3a46c0: mov eax, 0x00000001 ; retn 0x000C ; (1 found)
0x6e3a3fe6: mov eax, 0x08244489 ; mov eax,  [ebp-0x28] ; mov  [esp+0x04], eax ; mov eax,  [ebp-0x34] ; mov  [esp+0x00], eax ; call  [0x6E3AB15C] ; (1 found)
0x6e3a456e: mov eax, 0x6E380000 ; cmovne ebx, eax ; mov eax, ebx ; pop ebx ; ret ; (1 found)
0x6e3a47f2: mov eax, 0x906E3AB1 ; nop ; jmp  [0x6E3AB1B4] ; (1 found)
0x6e3a47e9: mov eax, 0x90909090 ; nop ; nop ; jmp  [0x6E3AB1B8] ; (1 found)
0x6e3a3bd4: mov eax, 0xB8000006 ; add  [eax], eax ; add byte [eax], al ; add esp, 0x1C ; retn 0x000C ; (1 found)
0x6e3a397b: mov eax, ebx ; pop ebx ; ret ; (1 found)
0x6e3a4464: mov eax, ebx ; pop ebx ; ret ; (1 found)
0x6e3a449c: mov eax, ebx ; pop ebx ; ret ; (1 found)
0x6e3a455e: mov eax, ebx ; pop ebx ; ret ; (1 found)
0x6e3a4576: mov eax, ebx ; pop ebx ; ret ; (1 found)
0x6e3a45fa: mov eax, edi ; pop ebx ; pop esi ; pop edi ; ret ; (1 found)
0x6e3a4675: mov eax, edi ; pop ebx ; pop esi ; pop edi ; ret ; (1 found)
0x6e3a4666: mov eax, edi ; pop edi ; ret ; (1 found)
0x6e3812c4: mov eax, esi ; pop ebx ; pop esi ; pop edi ; pop ebp ; ret ; (1 found)
0x6e3a43d8: mov eax, esi ; pop ebx ; pop esi ; pop edi ; pop ebp ; ret ; (1 found)
0x6e3a4437: mov eax, esi ; pop ebx ; pop esi ; pop edi ; pop ebp ; ret ; (1 found)
0x6e3a44e3: mov eax, esi ; pop ebx ; pop esi ; ret ; (1 found)
0x6e3a4539: mov eax, esi ; pop ebx ; pop esi ; ret ; (1 found)
0x6e3a4542: mov eax, esi ; pop ebx ; pop esi ; ret ; (1 found)
0x6e3a4446: mov eax, esi ; pop esi ; pop edi ; pop ebp ; ret ; (1 found)
0x6e3a3ab0: mov ebp, eax ; call  [0x6E3AB120] ; (1 found)
0x6e381501: mov ebp, esp ; sub esp, 0x18 ; mov  [esp+0x00], 0x6E3A6000 ; call  [0x6E3AB128] ; (1 found)
0x6e381458: mov ebx,  [0x6E3AB128] ; mov  [esp+0x00], 0x6E3A6000 ; call ebx ; (1 found)
0x6e3a3aa2: mov ebx,  [esp+0x10] ; xor ebx,  [esp+0x14] ; call  [0x6E3AB11C] ; (1 found)
0x6e391fe6: mov ebx, 0x01000002 ; fmul  [ebx-0x76CBDBAC] ; ret ; (1 found)
0x6e3a449a: mov ebx, eax ; mov eax, ebx ; pop ebx ; ret ; (1 found)
0x6e39b06f: mov edi, 0x81FFFFFE ; les ebx,  [eax+eax+0x5E5B0000] ; pop edi ; pop ebp ; ret ; (1 found)
0x6e3a3ab8: mov edi, eax ; call  [0x6E3AB134] ; (1 found)
0x6e38114e: mov edx,  [esp+0x20] ; mov  [esp+0x00], edx ; call eax ; (1 found)
0x6e38113e: mov edx,  [esp+0x28] ; mov  [esp+0x04], 0x00000002 ; mov  [esp+0x08], edx ; mov edx,  [esp+0x20] ; mov  [esp+0x00], edx ; call eax ; (1 found)
0x6e3a48aa: mov edx,  [esp+0x44] ; fstp qword [esp+0x28] ; mov  [esp+0x14], edx ; lea edx,  [esp+0x10] ; mov  [esp+0x00], edx ; call eax ; (1 found)
0x6e3a413a: mov esi, eax ; call edi ; (1 found)
0x6e3a3ac0: mov esi, eax ; lea eax,  [esp+0x18] ; mov  [esp+0x00], eax ; call  [0x6E3AB144] ; (1 found)
0x6e3a4540: mov esi, edx ; mov eax, esi ; pop ebx ; pop esi ; ret ; (1 found)
0x6e3833f7: mov esi, esi ; lea edi,  [edi+0x00000000] ; fldz ; add esp, 0x2C ; ret ; (1 found)
0x6e3815e7: mov esi, esi ; lea edi,  [edi+0x00000000] ; fldz ; pop ebx ; pop esi ; ret ; (1 found)
0x6e38839a: mov esp, 0x00000027 ; add byte [ebx+0x5E5B5CC4], al ; pop edi ; pop ebp ; ret ; (1 found)
0x6e38175a: mov esp, 0x00000027 ; add byte [ebx+0x5E], bl ; pop edi ; ret ; (1 found)
0x6e38d0ba: mov esp, 0x00000027 ; add byte [ebx-0x1126EF3C], al ; pop ebx ; ret ; (1 found)
0x6e38340a: mov esp, 0x00000027 ; add byte [ebx-0x22CBDBBC], cl ; add byte [ebx-0x1E26D33C], al ; ret ; (1 found)
0x6e39329a: mov esp, 0x00000027 ; add byte [ecx+0x00008CC4], al ; add byte [ebx+0x5E], bl ; pop edi ; pop ebp ; ret ; (1 found)
0x6e39d81a: mov esp, 0x00000027 ; add byte [ecx+0x00008CC4], al ; add byte [ebx+0x5E], bl ; pop edi ; pop ebp ; ret ; (1 found)
0x6e39630a: mov esp, 0x00000027 ; add byte [ecx+0x0FF029E8], cl ; scasd ; retn 0x688D ; (1 found)
0x6e38950a: mov esp, 0x00000027 ; add ch, bl ; fadd  [ebx+0x5E5B4CC4] ; pop edi ; pop ebp ; ret ; (1 found)
0x6e381cca: mov esp, 0x00000027 ; add ch, bl ; fadd  [ebx+0x5E5B5CC4] ; pop edi ; pop ebp ; ret ; (1 found)
0x6e3840da: mov esp, 0x00000027 ; add ch, bl ; inc esp ; retn 0xD908 ; (1 found)
0x6e38354a: mov esp, 0x00000027 ; add ch, bl ; inc esp ; retn 0xDDF8 ; (1 found)
0x6e3833fa: mov esp, 0x00000027 ; add cl, bl ; out dx, al ; add esp, 0x2C ; ret ; (1 found)
0x6e3815ea: mov esp, 0x00000027 ; add cl, bl ; out dx, al ; pop ebx ; pop esi ; ret ; (1 found)
0x6e39cea7: mov esp, 0x00009424 ; add byte [ecx], ah ; retn 0x848B ; (1 found)
0x6e397b43: mov esp, 0x5B000000 ; pop esi ; pop edi ; pop ebp ; ret ; (1 found)
0x6e396187: mov esp, 0x83000000 ; ret ; (1 found)
0x6e39461f: mov ss, word [eax-0x7C000008] ; retn 0xB901 ; (1 found)
0x6e394614: mov word [eax+esi*4], fs ; add byte [eax], al ; add byte [ebx+0x0FD28511], cl ; mov ss, word [eax-0x7C000008] ; retn 0xB901 ; (1 found)
0x6e3a4842: mov word [ecx-0x6F6F91C6], seg? ; jmp  [0x6E3AB184] ; (1 found)
0x6e38ed75: mov word [esp+ebp*4+0x00], fs ; add byte [eax], al ; add byte [ecx-0x7CD7DB94], cl ; rcl byte [eax], 0x83 ; retn 0xBD10 ; (1 found)
0x6e3a481a: movsb ; mov cl, 0x3A ; outsb ; nop ; nop ; jmp  [0x6E3AB1A0] ; (1 found)
0x6e3a39b7: movzx eax, al ; neg eax ; ret ; (1 found)
0x6e381598: movzx eax, al ; pop ebx ; ret ; (1 found)
0x6e3a4349: movzx eax, al ; ret ; (1 found)
0x6e3a44c3: movzx eax, word [eax+0x6E380006] ; ret ; (1 found)
0x6e3a4444: neg byte [ebx-0x77] ; lock pop esi ; pop edi ; pop ebp ; ret ; (1 found)
0x6e3a39ba: neg eax ; ret ; (1 found)
0x6e3a39ce: nop ; call eax ; (1 found)
0x6e3a39cf: nop ; call eax ; (1 found)
0x6e3a433e: nop ; cmp word [eax+0x18], 0x010B ; sete al ; movzx eax, al ; ret ; (1 found)
0x6e3a433f: nop ; cmp word [eax+0x18], 0x010B ; sete al ; movzx eax, al ; ret ; (1 found)
0x6e3a486f: nop ; jmp  [0x6E3AB168] ; (1 found)
0x6e3a4947: nop ; jmp  [0x6E3AB16C] ; (1 found)
0x6e3a4867: nop ; jmp  [0x6E3AB170] ; (1 found)
0x6e3a485f: nop ; jmp  [0x6E3AB174] ; (1 found)
0x6e3a4857: nop ; jmp  [0x6E3AB178] ; (1 found)
0x6e3a484f: nop ; jmp  [0x6E3AB17C] ; (1 found)
0x6e3a4847: nop ; jmp  [0x6E3AB184] ; (1 found)
0x6e3a483f: nop ; jmp  [0x6E3AB18C] ; (1 found)
0x6e3a4837: nop ; jmp  [0x6E3AB190] ; (1 found)
0x6e3a482f: nop ; jmp  [0x6E3AB194] ; (1 found)
0x6e3a493f: nop ; jmp  [0x6E3AB198] ; (1 found)
0x6e3a4827: nop ; jmp  [0x6E3AB19C] ; (1 found)
0x6e3a481f: nop ; jmp  [0x6E3AB1A0] ; (1 found)
0x6e3a4817: nop ; jmp  [0x6E3AB1A4] ; (1 found)
0x6e3a480f: nop ; jmp  [0x6E3AB1A8] ; (1 found)
0x6e3a4807: nop ; jmp  [0x6E3AB1AC] ; (1 found)
0x6e3a47ff: nop ; jmp  [0x6E3AB1B0] ; (1 found)
0x6e3a47f7: nop ; jmp  [0x6E3AB1B4] ; (1 found)
0x6e3a47ef: nop ; jmp  [0x6E3AB1B8] ; (1 found)
0x6e3a494f: nop ; jmp  [0x6E3AB1C0] ; (1 found)
0x6e3a4208: nop ; lea esi,  [esi+0x00000000] ; mov  [esp+0x00], 0x6E3A93E8 ; call  [0x6E3AB110] ; (1 found)
0x6e3a483a: nop ; mov cl, 0x3A ; outsb ; nop ; nop ; jmp  [0x6E3AB18C] ; (1 found)
0x6e3a3c7f: nop ; mov eax,  [esp+0x04] ; ret ; (1 found)
0x6e3a397f: nop ; mov eax,  [esp+0x30] ; mov  [esp+0x00], eax ; call  [0x6E3AB188] ; (1 found)
0x6e3a46ae: nop ; mov eax, 0x00000001 ; retn 0x000C ; (1 found)
0x6e3a46af: nop ; mov eax, 0x00000001 ; retn 0x000C ; (1 found)
0x6e3a46bf: nop ; mov eax, 0x00000001 ; retn 0x000C ; (1 found)
0x6e3a453e: nop ; mov esi, edx ; mov eax, esi ; pop ebx ; pop esi ; ret ; (1 found)
0x6e3a453f: nop ; mov esi, edx ; mov eax, esi ; pop ebx ; pop esi ; ret ; (1 found)
0x6e3a486e: nop ; nop ; jmp  [0x6E3AB168] ; (1 found)
0x6e3a4946: nop ; nop ; jmp  [0x6E3AB16C] ; (1 found)
0x6e3a4866: nop ; nop ; jmp  [0x6E3AB170] ; (1 found)
0x6e3a485e: nop ; nop ; jmp  [0x6E3AB174] ; (1 found)
0x6e3a4856: nop ; nop ; jmp  [0x6E3AB178] ; (1 found)
0x6e3a484e: nop ; nop ; jmp  [0x6E3AB17C] ; (1 found)
0x6e3a4846: nop ; nop ; jmp  [0x6E3AB184] ; (1 found)
0x6e3a483e: nop ; nop ; jmp  [0x6E3AB18C] ; (1 found)
0x6e3a4836: nop ; nop ; jmp  [0x6E3AB190] ; (1 found)
0x6e3a482e: nop ; nop ; jmp  [0x6E3AB194] ; (1 found)
0x6e3a493e: nop ; nop ; jmp  [0x6E3AB198] ; (1 found)
0x6e3a4826: nop ; nop ; jmp  [0x6E3AB19C] ; (1 found)
0x6e3a481e: nop ; nop ; jmp  [0x6E3AB1A0] ; (1 found)
0x6e3a4816: nop ; nop ; jmp  [0x6E3AB1A4] ; (1 found)
0x6e3a480e: nop ; nop ; jmp  [0x6E3AB1A8] ; (1 found)
0x6e3a4806: nop ; nop ; jmp  [0x6E3AB1AC] ; (1 found)
0x6e3a47fe: nop ; nop ; jmp  [0x6E3AB1B0] ; (1 found)
0x6e3a47f6: nop ; nop ; jmp  [0x6E3AB1B4] ; (1 found)
0x6e3a47ee: nop ; nop ; jmp  [0x6E3AB1B8] ; (1 found)
0x6e3a494e: nop ; nop ; jmp  [0x6E3AB1C0] ; (1 found)
0x6e3a3c7e: nop ; nop ; mov eax,  [esp+0x04] ; ret ; (1 found)
0x6e3a46ac: nop ; nop ; mov eax, 0x00000001 ; retn 0x000C ; (1 found)
0x6e3a46ad: nop ; nop ; mov eax, 0x00000001 ; retn 0x000C ; (1 found)
0x6e3a46be: nop ; nop ; mov eax, 0x00000001 ; retn 0x000C ; (1 found)
0x6e3a493d: nop ; nop ; nop ; jmp  [0x6E3AB198] ; (1 found)
0x6e3a47ed: nop ; nop ; nop ; jmp  [0x6E3AB1B8] ; (1 found)
0x6e3a3c7d: nop ; nop ; nop ; mov eax,  [esp+0x04] ; ret ; (1 found)
0x6e3a46ab: nop ; nop ; nop ; mov eax, 0x00000001 ; retn 0x000C ; (1 found)
0x6e3a46bd: nop ; nop ; nop ; mov eax, 0x00000001 ; retn 0x000C ; (1 found)
0x6e3a493c: nop ; nop ; nop ; nop ; jmp  [0x6E3AB198] ; (1 found)
0x6e3a47ec: nop ; nop ; nop ; nop ; jmp  [0x6E3AB1B8] ; (1 found)
0x6e3a3c7c: nop ; nop ; nop ; nop ; mov eax,  [esp+0x04] ; ret ; (1 found)
0x6e3a46aa: nop ; nop ; nop ; nop ; mov eax, 0x00000001 ; retn 0x000C ; (1 found)
0x6e3a46bc: nop ; nop ; nop ; nop ; mov eax, 0x00000001 ; retn 0x000C ; (1 found)
0x6e3a493b: nop ; nop ; nop ; nop ; nop ; jmp  [0x6E3AB198] ; (1 found)
0x6e3a47eb: nop ; nop ; nop ; nop ; nop ; jmp  [0x6E3AB1B8] ; (1 found)
0x6e3a3c6e: nop ; xor eax, eax ; ret ; (1 found)
0x6e3a3c6f: nop ; xor eax, eax ; ret ; (1 found)
0x6e3a45c1: not eax ; shr eax, 0x1F ; add esp, 0x08 ; ret ; (1 found)
0x6e3a46a5: or  [eax], eax ; pop eax ; pop ecx ; ret ; (1 found)
0x6e3a45f6: or  [ebx-0x0776F73C], eax ; pop ebx ; pop esi ; pop edi ; ret ; (1 found)
0x6e3a46a4: or  [ecx], 0x00000000 ; pop eax ; pop ecx ; ret ; (1 found)
0x6e3810e4: or al, 0x01 ; add byte [eax], al ; mov  [esp+0x00], 0x000003E8 ; call edi ; (1 found)
0x6e3834ed: or al, 0x5B ; pop esi ; pop edi ; pop ebp ; ret ; (1 found)
0x6e3a39cd: or al, 0x66 ; nop ; call eax ; (1 found)
0x6e3a44e0: or al, 0x74 ; or eax, 0x5E5BF089 ; ret ; (1 found)
0x6e3a4141: or al, 0x85 ; div byte [eax+ecx-0x75] ; inc ebx ; add al, 0x89 ; xor al, 0x24 ; call eax ; (1 found)
0x6e38154a: or al, 0x89 ; add al, 0x24 ; call  [0x6E3AB114] ; (1 found)
0x6e3a3dce: or al, 0x89 ; add al, 0x24 ; call  [0x6E3AB15C] ; (1 found)
0x6e3a39e9: or al, 0xF3 ; ret ; (1 found)
0x6e3a3fb8: or byte [eax+eax], bl ; add byte [eax], al ; mov  [esp+0x04], ecx ; mov eax,  [eax+0x04] ; mov  [esp+0x00], eax ; call  [0x6E3AB160] ; (1 found)
0x6e394c8b: or byte [ebp-0x22FFD98C], cl ; fcomp st0, st5 ; fadd  [ebx+0x5E5B5CC4] ; pop edi ; pop ebp ; ret ; (1 found)
0x6e3a3fea: or byte [ebx+0x4489D845], cl ; and al, 0x04 ; mov eax,  [ebp-0x34] ; mov  [esp+0x00], eax ; call  [0x6E3AB15C] ; (1 found)
0x6e39b7ab: or byte [ebx+0x5E5B60C4], al ; pop edi ; ret ; (1 found)
0x6e39b7d5: or byte [ebx+0x5E5B60C4], al ; pop edi ; ret ; (1 found)
0x6e3a465d: or byte [ebx+0x5E], bl ; add edi, 0x6E380000 ; mov eax, edi ; pop edi ; ret ; (1 found)
0x6e38d5ba: or byte [ebx+0x5E], bl ; pop edi ; pop ebp ; ret ; (1 found)
0x6e38d660: or byte [ebx+0x5E], bl ; pop edi ; pop ebp ; ret ; (1 found)
0x6e38d704: or byte [ebx+0x5E], bl ; pop edi ; pop ebp ; ret ; (1 found)
0x6e38d7b0: or byte [ebx+0x5E], bl ; pop edi ; pop ebp ; ret ; (1 found)
0x6e3a3b49: or byte [ebx+0x6E3A90EC], ah ; mov eax,  [0x6E3A5010] ; mov  [ebp-0x10], eax ; mov eax,  [0x6E3A5014] ; mov  [ebp-0x0C], eax ; call  [0x6E3AB148] ; (1 found)
0x6e38114d: or byte [ebx-0x76DFDBAC], cl ; adc al, 0x24 ; call eax ; (1 found)
0x6e38897e: or byte [ebx-0x7CDBDBBC], cl ; ret ; (1 found)
0x6e3a4499: or byte [ecx+0x5BD889C3], cl ; ret ; (1 found)
0x6e3a45f9: or byte [ecx+0x5F5E5BF8], cl ; ret ; (1 found)
0x6e3814e4: or byte [ecx+0x74D285C2], cl ; or edi, eax ; add al, 0x24 ; sbb byte [eax+0x3A], dl ; outsb ; call edx ; (1 found)
0x6e3a3bcf: or byte [ecx-0x4717DBFC], cl ; push es ; add byte [eax], al ; mov eax, 0x00000001 ; add esp, 0x1C ; retn 0x000C ; (1 found)
0x6e3a4233: or byte [ecx], bh ; fstenv  [eax+ebp-0x77] ; retn 0x428B ; (1 found)
0x6e39ae33: or byte [ecx], ch ; ret ; (1 found)
0x6e3a4672: or byte [ecx], dh ; dec  [ecx+0x5F5E5BF8] ; ret ; (1 found)
0x6e381486: or byte [edx+edi+0x2444C76E], dl ; add al, 0x13 ; pushad ; cmp ch, byte [esi-0x77] ; xor al, 0x24 ; call  [0x6E3AB12C] ; (1 found)
0x6e381543: or byte [edx+edi+0x74C0856E], dl ; or al, 0x89 ; add al, 0x24 ; call  [0x6E3AB114] ; (1 found)
0x6e388c8b: or byte [esi], al ; add byte [eax], al ; add bh, al ; add al, 0x24 ; retn 0x3A60 ; (1 found)
0x6e3845e7: or ch, bl ; fmul  [ebp+0x000000B6] ; add byte [ebx+0x5E], bl ; ret ; (1 found)
0x6e3a1c11: or ch, bl ; inc eax ; adc byte [ecx], bh ; int 0xD9 ; ret ; (1 found)
0x6e3a1cd3: or ch, bl ; inc eax ; adc byte [ecx], bh ; int 0xD9 ; ret ; (1 found)
0x6e39e97e: or ch, bl ; inc eax ; adc cl, bl ; ret ; (1 found)
0x6e39f2b5: or ch, bl ; inc ecx ; adc byte [ecx], bh ; fcomp st0, st1 ; ret ; (1 found)
0x6e39f363: or ch, bl ; inc ecx ; adc byte [ecx], bh ; fcomp st0, st1 ; ret ; (1 found)
0x6e39f273: or ch, bl ; inc edi ; adc cl, bl ; ret ; (1 found)
0x6e392d74: or ch, bl ; pop eax ; adc byte [ebx+0x5E5B5CC4], al ; pop edi ; pop ebp ; ret ; (1 found)
0x6e383b56: or ch, bl ; pop eax ; and ch, bl ; sbb byte [ebx+0x5E5B2CC4], al ; ret ; (1 found)
0x6e3a0e84: or ch, bl ; pop ecx ; adc byte [ebx+0x5E5B4CC4], al ; pop edi ; pop ebp ; ret ; (1 found)
0x6e39bd5b: or cl, bl ; ret ; (1 found)
0x6e395bb8: or cl, bl ; retn 0xCED8 ; (1 found)
0x6e395ca7: or cl, bl ; retn 0xCFD8 ; (1 found)
0x6e385edf: or dh, bl ; ret ; (1 found)
0x6e3a4931: or eax,  [eax] ; add byte [eax], al ; xor eax, eax ; add esp, 0x3C ; ret ; (1 found)
0x6e3a43d4: or eax,  [ebx-0x0F76E33C] ; pop ebx ; pop esi ; pop edi ; pop ebp ; ret ; (1 found)
0x6e3a4344: or eax,  [ecx] ; sete al ; movzx eax, al ; ret ; (1 found)
0x6e381027: or eax, 0x000003C7 ; add byte [eax], al ; add esp, 0x18 ; xor eax, eax ; pop ebx ; ret ; (1 found)
0x6e3a44e2: or eax, 0x5E5BF089 ; ret ; (1 found)
0x6e3a2644: or eax, 0xE9000000 ; ret ; (1 found)
0x6e3814ea: or edi, eax ; add al, 0x24 ; sbb byte [eax+0x3A], dl ; outsb ; call edx ; (1 found)
0x6e395905: out dx, al ; adc byte [ebx+0x47DD10EF], al ; adc cl, bl ; retn 0xC9D8 ; (1 found)
0x6e383401: out dx, al ; add esp, 0x2C ; ret ; (1 found)
0x6e38d1e5: out dx, al ; add esp, 0x2C ; ret ; (1 found)
0x6e3a47c3: out dx, al ; add esp, 0x3C ; fchs ; ret ; (1 found)
0x6e384751: out dx, al ; pop ebx ; pop esi ; pop edi ; pop ebp ; ret ; (1 found)
0x6e3815f1: out dx, al ; pop ebx ; pop esi ; ret ; (1 found)
0x6e38d0c4: out dx, al ; pop ebx ; ret ; (1 found)
0x6e384785: out dx, al ; pop esi ; pop edi ; pop ebp ; ret ; (1 found)
0x6e381b92: out dx, al ; pop esi ; pop edi ; ret ; (1 found)
0x6e395908: out dx, eax ; adc ch, bl ; inc edi ; adc cl, bl ; retn 0xC9D8 ; (1 found)
0x6e3a44bd: out dx, eax ; mov eax,  [0x6E38003C] ; movzx eax, word [eax+0x6E380006] ; ret ; (1 found)
0x6e3a42f2: outsb ; add  [eax], eax ; add byte [eax], al ; mov eax, 0x00000001 ; add esp, 0x1C ; ret ; (1 found)
0x6e38115f: outsb ; add  [ebx+0x01B810C4], eax ; add byte [eax], al ; add byte [ebx+0x5E], bl ; pop edi ; retn 0x000C ; (1 found)
0x6e3a3de4: outsb ; add  [ebx+0x5E5B30C4], eax ; pop edi ; ret ; (1 found)
0x6e3a42cd: outsb ; add byte [eax], al ; add byte [eax], al ; mov  [esp+0x00], 0x6E3A93E8 ; call  [0x6E3AB10C] ; (1 found)
0x6e3a398c: outsb ; add esp, 0x28 ; pop ebx ; ret ; (1 found)
0x6e3a42d8: outsb ; call  [0x6E3AB10C] ; (1 found)
0x6e3a410d: outsb ; call  [0x6E3AB110] ; (1 found)
0x6e3a4216: outsb ; call  [0x6E3AB110] ; (1 found)
0x6e38150c: outsb ; call  [0x6E3AB128] ; (1 found)
0x6e3a4306: outsb ; call  [0x6E3AB138] ; (1 found)
0x6e3a415b: outsb ; call  [0x6E3AB13C] ; (1 found)
0x6e3a4247: outsb ; call  [0x6E3AB13C] ; (1 found)
0x6e3a4274: outsb ; call  [0x6E3AB13C] ; (1 found)
0x6e38147b: outsb ; call  [0x6E3AB140] ; (1 found)
0x6e3a3b6e: outsb ; call  [0x6E3AB158] ; (1 found)
0x6e3814b0: outsb ; call eax ; (1 found)
0x6e381464: outsb ; call ebx ; (1 found)
0x6e3814c2: outsb ; call ebx ; (1 found)
0x6e3814f1: outsb ; call edx ; (1 found)
0x6e38153f: outsb ; call edx ; (1 found)
0x6e3a4572: outsb ; cmovne ebx, eax ; mov eax, ebx ; pop ebx ; ret ; (1 found)
0x6e383c1f: outsb ; fstp qword [eax] ; add esp, 0x2C ; pop ebx ; pop esi ; ret ; (1 found)
0x6e3a3b5b: outsb ; mov  [ebp-0x0C], eax ; call  [0x6E3AB148] ; (1 found)
0x6e3a3b53: outsb ; mov  [ebp-0x10], eax ; mov eax,  [0x6E3A5014] ; mov  [ebp-0x0C], eax ; call  [0x6E3AB148] ; (1 found)
0x6e3a41cc: outsb ; mov  [ebx+0x08], eax ; call  [0x6E3AB13C] ; (1 found)
0x6e3a41a8: outsb ; mov  [ebx], eax ; mov eax,  [esp+0x24] ; mov  [ebx+0x04], eax ; call  [0x6E3AB110] ; (1 found)
0x6e38145d: outsb ; mov  [esp+0x00], 0x6E3A6000 ; call ebx ; (1 found)
0x6e3814a9: outsb ; mov  [esp+0x00], 0x6E3A7150 ; call eax ; (1 found)
0x6e3a41c5: outsb ; mov  [esp+0x00], 0x6E3A93E8 ; mov  [ebx+0x08], eax ; call  [0x6E3AB13C] ; (1 found)
0x6e3814d8: outsb ; mov  [esp+0x00], eax ; call  [0x6E3AB12C] ; (1 found)
0x6e381526: outsb ; mov  [esp+0x00], eax ; call  [0x6E3AB12C] ; (1 found)
0x6e381491: outsb ; mov  [esp+0x00], esi ; call  [0x6E3AB12C] ; (1 found)
0x6e381489: outsb ; mov  [esp+0x04], 0x6E3A6013 ; mov  [esp+0x00], esi ; call  [0x6E3AB12C] ; (1 found)
0x6e3a3b7d: outsb ; mov  [esp+0x04], 0xC0000409 ; mov  [esp+0x00], eax ; call  [0x6E3AB150] ; (1 found)
0x6e3a3b4e: outsb ; mov eax,  [0x6E3A5010] ; mov  [ebp-0x10], eax ; mov eax,  [0x6E3A5014] ; mov  [ebp-0x0C], eax ; call  [0x6E3AB148] ; (1 found)
0x6e3a3d88: outsb ; mov eax,  [eax+ebx+0x04] ; mov  [esp+0x00], eax ; call  [0x6E3AB160] ; (1 found)
0x6e3a4665: outsb ; mov eax, edi ; pop edi ; ret ; (1 found)
0x6e3a3aaf: outsb ; mov ebp, eax ; call  [0x6E3AB120] ; (1 found)
0x6e3a3ab7: outsb ; mov edi, eax ; call  [0x6E3AB134] ; (1 found)
0x6e3a3abf: outsb ; mov esi, eax ; lea eax,  [esp+0x18] ; mov  [esp+0x00], eax ; call  [0x6E3AB144] ; (1 found)
0x6e3a44c2: outsb ; movzx eax, word [eax+0x6E380006] ; ret ; (1 found)
0x6e3a486d: outsb ; nop ; nop ; jmp  [0x6E3AB168] ; (1 found)
0x6e3a4945: outsb ; nop ; nop ; jmp  [0x6E3AB16C] ; (1 found)
0x6e3a4865: outsb ; nop ; nop ; jmp  [0x6E3AB170] ; (1 found)
0x6e3a485d: outsb ; nop ; nop ; jmp  [0x6E3AB174] ; (1 found)
0x6e3a4855: outsb ; nop ; nop ; jmp  [0x6E3AB178] ; (1 found)
0x6e3a484d: outsb ; nop ; nop ; jmp  [0x6E3AB17C] ; (1 found)
0x6e3a4845: outsb ; nop ; nop ; jmp  [0x6E3AB184] ; (1 found)
0x6e3a483d: outsb ; nop ; nop ; jmp  [0x6E3AB18C] ; (1 found)
0x6e3a4835: outsb ; nop ; nop ; jmp  [0x6E3AB190] ; (1 found)
0x6e3a482d: outsb ; nop ; nop ; jmp  [0x6E3AB194] ; (1 found)
0x6e3a4825: outsb ; nop ; nop ; jmp  [0x6E3AB19C] ; (1 found)
0x6e3a481d: outsb ; nop ; nop ; jmp  [0x6E3AB1A0] ; (1 found)
0x6e3a4815: outsb ; nop ; nop ; jmp  [0x6E3AB1A4] ; (1 found)
0x6e3a480d: outsb ; nop ; nop ; jmp  [0x6E3AB1A8] ; (1 found)
0x6e3a4805: outsb ; nop ; nop ; jmp  [0x6E3AB1AC] ; (1 found)
0x6e3a47fd: outsb ; nop ; nop ; jmp  [0x6E3AB1B0] ; (1 found)
0x6e3a47f5: outsb ; nop ; nop ; jmp  [0x6E3AB1B4] ; (1 found)
0x6e3a494d: outsb ; nop ; nop ; jmp  [0x6E3AB1C0] ; (1 found)
0x6e3a44c9: outsb ; ret ; (1 found)
0x6e3a424d: outsb ; sub esp, 0x04 ; add esp, 0x18 ; xor eax, eax ; pop ebx ; ret ; (1 found)
0x6e3a3b74: outsb ; sub esp, 0x04 ; call  [0x6E3AB118] ; (1 found)
0x6e381553: outsb ; sub esp, 0x04 ; leave ; ret ; (1 found)
0x6e3a41bc: outsb ; sub esp, 0x04 ; mov  [0x6E3A93E0], ebx ; mov  [esp+0x00], 0x6E3A93E8 ; mov  [ebx+0x08], eax ; call  [0x6E3AB13C] ; (1 found)
0x6e381481: outsb ; sub esp, 0x04 ; mov  [0x6E3A9408], eax ; mov  [esp+0x04], 0x6E3A6013 ; mov  [esp+0x00], esi ; call  [0x6E3AB12C] ; (1 found)
0x6e3a3b64: outsb ; sub esp, 0x04 ; mov  [esp+0x00], 0x6E3A61F0 ; call  [0x6E3AB158] ; (1 found)
0x6e3a3a9e: outsb ; sub esp, 0x04 ; mov ebx,  [esp+0x10] ; xor ebx,  [esp+0x14] ; call  [0x6E3AB11C] ; (1 found)
0x6e3a41d5: outsb ; xor eax, eax ; sub esp, 0x04 ; add esp, 0x18 ; pop ebx ; ret ; (1 found)
0x6e397d94: outsd ; add  [ecx], eax ; ret ; (1 found)
0x6e39bc4d: outsd ; add  [ecx], eax ; ret ; (1 found)
0x6e3a45c5: pop ds ; add esp, 0x08 ; ret ; (1 found)
0x6e3a39ca: pop ds ; sub esp, 0x0C ; nop ; call eax ; (1 found)
0x6e392d76: pop eax ; adc byte [ebx+0x5E5B5CC4], al ; pop edi ; pop ebp ; ret ; (1 found)
0x6e383b58: pop eax ; and ch, bl ; sbb byte [ebx+0x5E5B2CC4], al ; ret ; (1 found)
0x6e383d85: pop eax ; and ch, bl ; sbb byte [ebx+0x5E5B2CC4], al ; ret ; (1 found)
0x6e3a3b71: pop eax ; mov cl, 0x3A ; outsb ; sub esp, 0x04 ; call  [0x6E3AB118] ; (1 found)
0x6e38d5b9: pop eax ; or byte [ebx+0x5E], bl ; pop edi ; pop ebp ; ret ; (1 found)
0x6e38d65f: pop eax ; or byte [ebx+0x5E], bl ; pop edi ; pop ebp ; ret ; (1 found)
0x6e38d703: pop eax ; or byte [ebx+0x5E], bl ; pop edi ; pop ebp ; ret ; (1 found)
0x6e38d7af: pop eax ; or byte [ebx+0x5E], bl ; pop edi ; pop ebp ; ret ; (1 found)
0x6e383b55: pop eax ; or ch, bl ; pop eax ; and ch, bl ; sbb byte [ebx+0x5E5B2CC4], al ; ret ; (1 found)
0x6e3a46a7: pop eax ; pop ecx ; ret ; (1 found)
0x6e383d82: pop eax ; sbb ch, bl ; pop eax ; and ch, bl ; sbb byte [ebx+0x5E5B2CC4], al ; ret ; (1 found)
0x6e383d62: pop eax ; sbb ch, bl ; sbb byte [ebx+0x5E5B2CC4], al ; ret ; (1 found)
0x6e38b6e2: pop ebp ; add byte [ebx+0x5E5B5CC4], al ; pop edi ; pop ebp ; ret ; (1 found)
0x6e3812c9: pop ebp ; ret ; (1 found)
0x6e3814f9: pop ebp ; ret ; (1 found)
0x6e3818c2: pop ebp ; ret ; (1 found)
0x6e381cd8: pop ebp ; ret ; (1 found)
0x6e382519: pop ebp ; ret ; (1 found)
0x6e382c19: pop ebp ; ret ; (1 found)
0x6e383168: pop ebp ; ret ; (1 found)
0x6e38329d: pop ebp ; ret ; (1 found)
0x6e3834f1: pop ebp ; ret ; (1 found)
0x6e3837c9: pop ebp ; ret ; (1 found)
0x6e3838b4: pop ebp ; ret ; (1 found)
0x6e383eb6: pop ebp ; ret ; (1 found)
0x6e384707: pop ebp ; ret ; (1 found)
0x6e384755: pop ebp ; ret ; (1 found)
0x6e384788: pop ebp ; ret ; (1 found)
0x6e384856: pop ebp ; ret ; (1 found)
0x6e384f2a: pop ebp ; ret ; (1 found)
0x6e385287: pop ebp ; ret ; (1 found)
0x6e3853fb: pop ebp ; ret ; (1 found)
0x6e385552: pop ebp ; ret ; (1 found)
0x6e3859c6: pop ebp ; ret ; (1 found)
0x6e38621a: pop ebp ; ret ; (1 found)
0x6e386966: pop ebp ; ret ; (1 found)
0x6e386cb6: pop ebp ; ret ; (1 found)
0x6e386f93: pop ebp ; ret ; (1 found)
0x6e3871d6: pop ebp ; ret ; (1 found)
0x6e387bc8: pop ebp ; ret ; (1 found)
0x6e3883a6: pop ebp ; ret ; (1 found)
0x6e388caa: pop ebp ; ret ; (1 found)
0x6e389518: pop ebp ; ret ; (1 found)
0x6e389a4d: pop ebp ; ret ; (1 found)
0x6e389c66: pop ebp ; ret ; (1 found)
0x6e38a438: pop ebp ; ret ; (1 found)
0x6e38a69b: pop ebp ; ret ; (1 found)
0x6e38b13b: pop ebp ; ret ; (1 found)
0x6e38b61f: pop ebp ; ret ; (1 found)
0x6e38b6ea: pop ebp ; ret ; (1 found)
0x6e38b9cb: pop ebp ; ret ; (1 found)
0x6e38bc2b: pop ebp ; ret ; (1 found)
0x6e38c836: pop ebp ; ret ; (1 found)
0x6e38d4cb: pop ebp ; ret ; (1 found)
0x6e38d5be: pop ebp ; ret ; (1 found)
0x6e38d664: pop ebp ; ret ; (1 found)
0x6e38d708: pop ebp ; ret ; (1 found)
0x6e38d7b4: pop ebp ; ret ; (1 found)
0x6e38d8fc: pop ebp ; ret ; (1 found)
0x6e38e2da: pop ebp ; ret ; (1 found)
0x6e38e464: pop ebp ; ret ; (1 found)
0x6e38e5de: pop ebp ; ret ; (1 found)
0x6e38f149: pop ebp ; ret ; (1 found)
0x6e38f4de: pop ebp ; ret ; (1 found)
0x6e38fb49: pop ebp ; ret ; (1 found)
0x6e390ded: pop ebp ; ret ; (1 found)
0x6e390fb7: pop ebp ; ret ; (1 found)
0x6e3912db: pop ebp ; ret ; (1 found)
0x6e392530: pop ebp ; ret ; (1 found)
0x6e392d7e: pop ebp ; ret ; (1 found)
0x6e3932a9: pop ebp ; ret ; (1 found)
0x6e3935ce: pop ebp ; ret ; (1 found)
0x6e394c9a: pop ebp ; ret ; (1 found)
0x6e395e6a: pop ebp ; ret ; (1 found)
0x6e396a0a: pop ebp ; ret ; (1 found)
0x6e396b94: pop ebp ; ret ; (1 found)
0x6e396d1d: pop ebp ; ret ; (1 found)
0x6e397b4a: pop ebp ; ret ; (1 found)
0x6e398857: pop ebp ; ret ; (1 found)
0x6e398e4e: pop ebp ; ret ; (1 found)
0x6e399d99: pop ebp ; ret ; (1 found)
0x6e39aa26: pop ebp ; ret ; (1 found)
0x6e39adc9: pop ebp ; ret ; (1 found)
0x6e39b07c: pop ebp ; ret ; (1 found)
0x6e39ba0a: pop ebp ; ret ; (1 found)
0x6e39c749: pop ebp ; ret ; (1 found)
0x6e39d829: pop ebp ; ret ; (1 found)
0x6e39e502: pop ebp ; ret ; (1 found)
0x6e39f422: pop ebp ; ret ; (1 found)
0x6e3a06f2: pop ebp ; ret ; (1 found)
0x6e3a0e8e: pop ebp ; ret ; (1 found)
0x6e3a13f3: pop ebp ; ret ; (1 found)
0x6e3a2449: pop ebp ; ret ; (1 found)
0x6e3a3a90: pop ebp ; ret ; (1 found)
0x6e3a3afd: pop ebp ; ret ; (1 found)
0x6e3a3f46: pop ebp ; ret ; (1 found)
0x6e3a416b: pop ebp ; ret ; (1 found)
0x6e3a43dd: pop ebp ; ret ; (1 found)
0x6e3a443c: pop ebp ; ret ; (1 found)
0x6e3a444a: pop ebp ; ret ; (1 found)
0x6e384783: pop ebx ; fldz ; pop esi ; pop edi ; pop ebp ; ret ; (1 found)
0x6e381b90: pop ebx ; fldz ; pop esi ; pop edi ; ret ; (1 found)
0x6e3a4445: pop ebx ; mov eax, esi ; pop esi ; pop edi ; pop ebp ; ret ; (1 found)
0x6e39b7aa: pop ebx ; or byte [ebx+0x5E5B60C4], al ; pop edi ; ret ; (1 found)
0x6e39b7d4: pop ebx ; or byte [ebx+0x5E5B60C4], al ; pop edi ; ret ; (1 found)
0x6e3a465e: pop ebx ; pop esi ; add edi, 0x6E380000 ; mov eax, edi ; pop edi ; ret ; (1 found)
0x6e3814f7: pop ebx ; pop esi ; pop ebp ; ret ; (1 found)
0x6e3812c6: pop ebx ; pop esi ; pop edi ; pop ebp ; ret ; (1 found)
0x6e3818bf: pop ebx ; pop esi ; pop edi ; pop ebp ; ret ; (1 found)
0x6e381cd5: pop ebx ; pop esi ; pop edi ; pop ebp ; ret ; (1 found)
0x6e382516: pop ebx ; pop esi ; pop edi ; pop ebp ; ret ; (1 found)
0x6e382c16: pop ebx ; pop esi ; pop edi ; pop ebp ; ret ; (1 found)
0x6e383165: pop ebx ; pop esi ; pop edi ; pop ebp ; ret ; (1 found)
0x6e38329a: pop ebx ; pop esi ; pop edi ; pop ebp ; ret ; (1 found)
0x6e3834ee: pop ebx ; pop esi ; pop edi ; pop ebp ; ret ; (1 found)
0x6e3837c6: pop ebx ; pop esi ; pop edi ; pop ebp ; ret ; (1 found)
0x6e3838b1: pop ebx ; pop esi ; pop edi ; pop ebp ; ret ; (1 found)
0x6e383eb3: pop ebx ; pop esi ; pop edi ; pop ebp ; ret ; (1 found)
0x6e384704: pop ebx ; pop esi ; pop edi ; pop ebp ; ret ; (1 found)
0x6e384752: pop ebx ; pop esi ; pop edi ; pop ebp ; ret ; (1 found)
0x6e384853: pop ebx ; pop esi ; pop edi ; pop ebp ; ret ; (1 found)
0x6e384f27: pop ebx ; pop esi ; pop edi ; pop ebp ; ret ; (1 found)
0x6e385284: pop ebx ; pop esi ; pop edi ; pop ebp ; ret ; (1 found)
0x6e3853f8: pop ebx ; pop esi ; pop edi ; pop ebp ; ret ; (1 found)
0x6e38554f: pop ebx ; pop esi ; pop edi ; pop ebp ; ret ; (1 found)
0x6e3859c3: pop ebx ; pop esi ; pop edi ; pop ebp ; ret ; (1 found)
0x6e386217: pop ebx ; pop esi ; pop edi ; pop ebp ; ret ; (1 found)
0x6e386963: pop ebx ; pop esi ; pop edi ; pop ebp ; ret ; (1 found)
0x6e386cb3: pop ebx ; pop esi ; pop edi ; pop ebp ; ret ; (1 found)
0x6e386f90: pop ebx ; pop esi ; pop edi ; pop ebp ; ret ; (1 found)
0x6e3871d3: pop ebx ; pop esi ; pop edi ; pop ebp ; ret ; (1 found)
0x6e387bc5: pop ebx ; pop esi ; pop edi ; pop ebp ; ret ; (1 found)
0x6e3883a3: pop ebx ; pop esi ; pop edi ; pop ebp ; ret ; (1 found)
0x6e388ca7: pop ebx ; pop esi ; pop edi ; pop ebp ; ret ; (1 found)
0x6e389515: pop ebx ; pop esi ; pop edi ; pop ebp ; ret ; (1 found)
0x6e389a4a: pop ebx ; pop esi ; pop edi ; pop ebp ; ret ; (1 found)
0x6e389c63: pop ebx ; pop esi ; pop edi ; pop ebp ; ret ; (1 found)
0x6e38a435: pop ebx ; pop esi ; pop edi ; pop ebp ; ret ; (1 found)
0x6e38a698: pop ebx ; pop esi ; pop edi ; pop ebp ; ret ; (1 found)
0x6e38b138: pop ebx ; pop esi ; pop edi ; pop ebp ; ret ; (1 found)
0x6e38b61c: pop ebx ; pop esi ; pop edi ; pop ebp ; ret ; (1 found)
0x6e38b6e7: pop ebx ; pop esi ; pop edi ; pop ebp ; ret ; (1 found)
0x6e38b9c8: pop ebx ; pop esi ; pop edi ; pop ebp ; ret ; (1 found)
0x6e38bc28: pop ebx ; pop esi ; pop edi ; pop ebp ; ret ; (1 found)
0x6e38c833: pop ebx ; pop esi ; pop edi ; pop ebp ; ret ; (1 found)
0x6e38d4c8: pop ebx ; pop esi ; pop edi ; pop ebp ; ret ; (1 found)
0x6e38d5bb: pop ebx ; pop esi ; pop edi ; pop ebp ; ret ; (1 found)
0x6e38d661: pop ebx ; pop esi ; pop edi ; pop ebp ; ret ; (1 found)
0x6e38d705: pop ebx ; pop esi ; pop edi ; pop ebp ; ret ; (1 found)
0x6e38d7b1: pop ebx ; pop esi ; pop edi ; pop ebp ; ret ; (1 found)
0x6e38d8f9: pop ebx ; pop esi ; pop edi ; pop ebp ; ret ; (1 found)
0x6e38e2d7: pop ebx ; pop esi ; pop edi ; pop ebp ; ret ; (1 found)
0x6e38e461: pop ebx ; pop esi ; pop edi ; pop ebp ; ret ; (1 found)
0x6e38e5db: pop ebx ; pop esi ; pop edi ; pop ebp ; ret ; (1 found)
0x6e38f146: pop ebx ; pop esi ; pop edi ; pop ebp ; ret ; (1 found)
0x6e38f4db: pop ebx ; pop esi ; pop edi ; pop ebp ; ret ; (1 found)
0x6e38fb46: pop ebx ; pop esi ; pop edi ; pop ebp ; ret ; (1 found)
0x6e390dea: pop ebx ; pop esi ; pop edi ; pop ebp ; ret ; (1 found)
0x6e390fb4: pop ebx ; pop esi ; pop edi ; pop ebp ; ret ; (1 found)
0x6e3912d8: pop ebx ; pop esi ; pop edi ; pop ebp ; ret ; (1 found)
0x6e39252d: pop ebx ; pop esi ; pop edi ; pop ebp ; ret ; (1 found)
0x6e392d7b: pop ebx ; pop esi ; pop edi ; pop ebp ; ret ; (1 found)
0x6e3932a6: pop ebx ; pop esi ; pop edi ; pop ebp ; ret ; (1 found)
0x6e3935cb: pop ebx ; pop esi ; pop edi ; pop ebp ; ret ; (1 found)
0x6e394c97: pop ebx ; pop esi ; pop edi ; pop ebp ; ret ; (1 found)
0x6e395e67: pop ebx ; pop esi ; pop edi ; pop ebp ; ret ; (1 found)
0x6e396a07: pop ebx ; pop esi ; pop edi ; pop ebp ; ret ; (1 found)
0x6e396b91: pop ebx ; pop esi ; pop edi ; pop ebp ; ret ; (1 found)
0x6e396d1a: pop ebx ; pop esi ; pop edi ; pop ebp ; ret ; (1 found)
0x6e397b47: pop ebx ; pop esi ; pop edi ; pop ebp ; ret ; (1 found)
0x6e398854: pop ebx ; pop esi ; pop edi ; pop ebp ; ret ; (1 found)
0x6e398e4b: pop ebx ; pop esi ; pop edi ; pop ebp ; ret ; (1 found)
0x6e399d96: pop ebx ; pop esi ; pop edi ; pop ebp ; ret ; (1 found)
0x6e39aa23: pop ebx ; pop esi ; pop edi ; pop ebp ; ret ; (1 found)
0x6e39adc6: pop ebx ; pop esi ; pop edi ; pop ebp ; ret ; (1 found)
0x6e39b079: pop ebx ; pop esi ; pop edi ; pop ebp ; ret ; (1 found)
0x6e39ba07: pop ebx ; pop esi ; pop edi ; pop ebp ; ret ; (1 found)
0x6e39c746: pop ebx ; pop esi ; pop edi ; pop ebp ; ret ; (1 found)
0x6e39d826: pop ebx ; pop esi ; pop edi ; pop ebp ; ret ; (1 found)
0x6e39e4ff: pop ebx ; pop esi ; pop edi ; pop ebp ; ret ; (1 found)
0x6e39f41f: pop ebx ; pop esi ; pop edi ; pop ebp ; ret ; (1 found)
0x6e3a06ef: pop ebx ; pop esi ; pop edi ; pop ebp ; ret ; (1 found)
0x6e3a0e8b: pop ebx ; pop esi ; pop edi ; pop ebp ; ret ; (1 found)
0x6e3a13f0: pop ebx ; pop esi ; pop edi ; pop ebp ; ret ; (1 found)
0x6e3a2446: pop ebx ; pop esi ; pop edi ; pop ebp ; ret ; (1 found)
0x6e3a3a8d: pop ebx ; pop esi ; pop edi ; pop ebp ; ret ; (1 found)
0x6e3a3afa: pop ebx ; pop esi ; pop edi ; pop ebp ; ret ; (1 found)
0x6e3a3f43: pop ebx ; pop esi ; pop edi ; pop ebp ; ret ; (1 found)
0x6e3a4168: pop ebx ; pop esi ; pop edi ; pop ebp ; ret ; (1 found)
0x6e3a43da: pop ebx ; pop esi ; pop edi ; pop ebp ; ret ; (1 found)
0x6e3a4439: pop ebx ; pop esi ; pop edi ; pop ebp ; ret ; (1 found)
0x6e381760: pop ebx ; pop esi ; pop edi ; ret ; (1 found)
0x6e381a65: pop ebx ; pop esi ; pop edi ; ret ; (1 found)
0x6e385765: pop ebx ; pop esi ; pop edi ; ret ; (1 found)
0x6e38d3c8: pop ebx ; pop esi ; pop edi ; ret ; (1 found)
0x6e395c18: pop ebx ; pop esi ; pop edi ; ret ; (1 found)
0x6e39b7af: pop ebx ; pop esi ; pop edi ; ret ; (1 found)
0x6e39b7d9: pop ebx ; pop esi ; pop edi ; ret ; (1 found)
0x6e3a3de9: pop ebx ; pop esi ; pop edi ; ret ; (1 found)
0x6e3a45fc: pop ebx ; pop esi ; pop edi ; ret ; (1 found)
0x6e3a4677: pop ebx ; pop esi ; pop edi ; ret ; (1 found)
0x6e3810b1: pop ebx ; pop esi ; pop edi ; retn 0x000C ; (1 found)
0x6e381169: pop ebx ; pop esi ; pop edi ; retn 0x000C ; (1 found)
0x6e3811ee: pop ebx ; pop esi ; pop edi ; retn 0x000C ; (1 found)
0x6e3815e4: pop ebx ; pop esi ; ret ; (1 found)
0x6e3815f2: pop ebx ; pop esi ; ret ; (1 found)
0x6e383669: pop ebx ; pop esi ; ret ; (1 found)
0x6e3836b3: pop ebx ; pop esi ; ret ; (1 found)
0x6e383b5f: pop ebx ; pop esi ; ret ; (1 found)
0x6e383c25: pop ebx ; pop esi ; ret ; (1 found)
0x6e383d69: pop ebx ; pop esi ; ret ; (1 found)
0x6e383d8c: pop ebx ; pop esi ; ret ; (1 found)
0x6e3845f0: pop ebx ; pop esi ; ret ; (1 found)
0x6e38d00a: pop ebx ; pop esi ; ret ; (1 found)
0x6e38d012: pop ebx ; pop esi ; ret ; (1 found)
0x6e38d03c: pop ebx ; pop esi ; ret ; (1 found)
0x6e38d290: pop ebx ; pop esi ; ret ; (1 found)
0x6e38d298: pop ebx ; pop esi ; ret ; (1 found)
0x6e38d2f1: pop ebx ; pop esi ; ret ; (1 found)
0x6e3a43aa: pop ebx ; pop esi ; ret ; (1 found)
0x6e3a44e5: pop ebx ; pop esi ; ret ; (1 found)
0x6e3a453b: pop ebx ; pop esi ; ret ; (1 found)
0x6e3a4544: pop ebx ; pop esi ; ret ; (1 found)
0x6e381033: pop ebx ; ret ; (1 found)
0x6e38103d: pop ebx ; ret ; (1 found)
0x6e38159b: pop ebx ; ret ; (1 found)
0x6e38d0b4: pop ebx ; ret ; (1 found)
0x6e38d0c5: pop ebx ; ret ; (1 found)
0x6e38d105: pop ebx ; ret ; (1 found)
0x6e38d81c: pop ebx ; ret ; (1 found)
0x6e38d85b: pop ebx ; ret ; (1 found)
0x6e390d2b: pop ebx ; ret ; (1 found)
0x6e390d6b: pop ebx ; ret ; (1 found)
0x6e3a397d: pop ebx ; ret ; (1 found)
0x6e3a3990: pop ebx ; ret ; (1 found)
0x6e3a3a1e: pop ebx ; ret ; (1 found)
0x6e3a41de: pop ebx ; ret ; (1 found)
0x6e3a4206: pop ebx ; ret ; (1 found)
0x6e3a4256: pop ebx ; ret ; (1 found)
0x6e3a4466: pop ebx ; ret ; (1 found)
0x6e3a449e: pop ebx ; ret ; (1 found)
0x6e3a4560: pop ebx ; ret ; (1 found)
0x6e3a4578: pop ebx ; ret ; (1 found)
0x6e3a3c1d: pop ebx ; retn 0x000C ; (1 found)
0x6e3a3c4b: pop ebx ; retn 0x000C ; (1 found)
0x6e3a0e86: pop ecx ; adc byte [ebx+0x5E5B4CC4], al ; pop edi ; pop ebp ; ret ; (1 found)
0x6e3a46a8: pop ecx ; ret ; (1 found)
0x6e3812c8: pop edi ; pop ebp ; ret ; (1 found)
0x6e3818c1: pop edi ; pop ebp ; ret ; (1 found)
0x6e381cd7: pop edi ; pop ebp ; ret ; (1 found)
0x6e382518: pop edi ; pop ebp ; ret ; (1 found)
0x6e382c18: pop edi ; pop ebp ; ret ; (1 found)
0x6e383167: pop edi ; pop ebp ; ret ; (1 found)
0x6e38329c: pop edi ; pop ebp ; ret ; (1 found)
0x6e3834f0: pop edi ; pop ebp ; ret ; (1 found)
0x6e3837c8: pop edi ; pop ebp ; ret ; (1 found)
0x6e3838b3: pop edi ; pop ebp ; ret ; (1 found)
0x6e383eb5: pop edi ; pop ebp ; ret ; (1 found)
0x6e384706: pop edi ; pop ebp ; ret ; (1 found)
0x6e384754: pop edi ; pop ebp ; ret ; (1 found)
0x6e384787: pop edi ; pop ebp ; ret ; (1 found)
0x6e384855: pop edi ; pop ebp ; ret ; (1 found)
0x6e384f29: pop edi ; pop ebp ; ret ; (1 found)
0x6e385286: pop edi ; pop ebp ; ret ; (1 found)
0x6e3853fa: pop edi ; pop ebp ; ret ; (1 found)
0x6e385551: pop edi ; pop ebp ; ret ; (1 found)
0x6e3859c5: pop edi ; pop ebp ; ret ; (1 found)
0x6e386219: pop edi ; pop ebp ; ret ; (1 found)
0x6e386965: pop edi ; pop ebp ; ret ; (1 found)
0x6e386cb5: pop edi ; pop ebp ; ret ; (1 found)
0x6e386f92: pop edi ; pop ebp ; ret ; (1 found)
0x6e3871d5: pop edi ; pop ebp ; ret ; (1 found)
0x6e387bc7: pop edi ; pop ebp ; ret ; (1 found)
0x6e3883a5: pop edi ; pop ebp ; ret ; (1 found)
0x6e388ca9: pop edi ; pop ebp ; ret ; (1 found)
0x6e389517: pop edi ; pop ebp ; ret ; (1 found)
0x6e389a4c: pop edi ; pop ebp ; ret ; (1 found)
0x6e389c65: pop edi ; pop ebp ; ret ; (1 found)
0x6e38a437: pop edi ; pop ebp ; ret ; (1 found)
0x6e38a69a: pop edi ; pop ebp ; ret ; (1 found)
0x6e38b13a: pop edi ; pop ebp ; ret ; (1 found)
0x6e38b61e: pop edi ; pop ebp ; ret ; (1 found)
0x6e38b6e9: pop edi ; pop ebp ; ret ; (1 found)
0x6e38b9ca: pop edi ; pop ebp ; ret ; (1 found)
0x6e38bc2a: pop edi ; pop ebp ; ret ; (1 found)
0x6e38c835: pop edi ; pop ebp ; ret ; (1 found)
0x6e38d4ca: pop edi ; pop ebp ; ret ; (1 found)
0x6e38d5bd: pop edi ; pop ebp ; ret ; (1 found)
0x6e38d663: pop edi ; pop ebp ; ret ; (1 found)
0x6e38d707: pop edi ; pop ebp ; ret ; (1 found)
0x6e38d7b3: pop edi ; pop ebp ; ret ; (1 found)
0x6e38d8fb: pop edi ; pop ebp ; ret ; (1 found)
0x6e38e2d9: pop edi ; pop ebp ; ret ; (1 found)
0x6e38e463: pop edi ; pop ebp ; ret ; (1 found)
0x6e38e5dd: pop edi ; pop ebp ; ret ; (1 found)
0x6e38f148: pop edi ; pop ebp ; ret ; (1 found)
0x6e38f4dd: pop edi ; pop ebp ; ret ; (1 found)
0x6e38fb48: pop edi ; pop ebp ; ret ; (1 found)
0x6e390dec: pop edi ; pop ebp ; ret ; (1 found)
0x6e390fb6: pop edi ; pop ebp ; ret ; (1 found)
0x6e3912da: pop edi ; pop ebp ; ret ; (1 found)
0x6e39252f: pop edi ; pop ebp ; ret ; (1 found)
0x6e392d7d: pop edi ; pop ebp ; ret ; (1 found)
0x6e3932a8: pop edi ; pop ebp ; ret ; (1 found)
0x6e3935cd: pop edi ; pop ebp ; ret ; (1 found)
0x6e394c99: pop edi ; pop ebp ; ret ; (1 found)
0x6e395e69: pop edi ; pop ebp ; ret ; (1 found)
0x6e396a09: pop edi ; pop ebp ; ret ; (1 found)
0x6e396b93: pop edi ; pop ebp ; ret ; (1 found)
0x6e396d1c: pop edi ; pop ebp ; ret ; (1 found)
0x6e397b49: pop edi ; pop ebp ; ret ; (1 found)
0x6e398856: pop edi ; pop ebp ; ret ; (1 found)
0x6e398e4d: pop edi ; pop ebp ; ret ; (1 found)
0x6e399d98: pop edi ; pop ebp ; ret ; (1 found)
0x6e39aa25: pop edi ; pop ebp ; ret ; (1 found)
0x6e39adc8: pop edi ; pop ebp ; ret ; (1 found)
0x6e39b07b: pop edi ; pop ebp ; ret ; (1 found)
0x6e39ba09: pop edi ; pop ebp ; ret ; (1 found)
0x6e39c748: pop edi ; pop ebp ; ret ; (1 found)
0x6e39d828: pop edi ; pop ebp ; ret ; (1 found)
0x6e39e501: pop edi ; pop ebp ; ret ; (1 found)
0x6e39f421: pop edi ; pop ebp ; ret ; (1 found)
0x6e3a06f1: pop edi ; pop ebp ; ret ; (1 found)
0x6e3a0e8d: pop edi ; pop ebp ; ret ; (1 found)
0x6e3a13f2: pop edi ; pop ebp ; ret ; (1 found)
0x6e3a2448: pop edi ; pop ebp ; ret ; (1 found)
0x6e3a3a8f: pop edi ; pop ebp ; ret ; (1 found)
0x6e3a3afc: pop edi ; pop ebp ; ret ; (1 found)
0x6e3a3f45: pop edi ; pop ebp ; ret ; (1 found)
0x6e3a416a: pop edi ; pop ebp ; ret ; (1 found)
0x6e3a43dc: pop edi ; pop ebp ; ret ; (1 found)
0x6e3a443b: pop edi ; pop ebp ; ret ; (1 found)
0x6e3a4449: pop edi ; pop ebp ; ret ; (1 found)
0x6e381762: pop edi ; ret ; (1 found)
0x6e381a67: pop edi ; ret ; (1 found)
0x6e381b94: pop edi ; ret ; (1 found)
0x6e385767: pop edi ; ret ; (1 found)
0x6e38d3ca: pop edi ; ret ; (1 found)
0x6e395c1a: pop edi ; ret ; (1 found)
0x6e39b7b1: pop edi ; ret ; (1 found)
0x6e39b7db: pop edi ; ret ; (1 found)
0x6e3a3deb: pop edi ; ret ; (1 found)
0x6e3a45fe: pop edi ; ret ; (1 found)
0x6e3a4668: pop edi ; ret ; (1 found)
0x6e3a4679: pop edi ; ret ; (1 found)
0x6e3810b3: pop edi ; retn 0x000C ; (1 found)
0x6e38116b: pop edi ; retn 0x000C ; (1 found)
0x6e3811f0: pop edi ; retn 0x000C ; (1 found)
0x6e397b53: pop es ; add byte [eax], al ; add bl, ch ; ret ; (1 found)
0x6e39ba13: pop es ; add byte [eax], al ; add bl, ch ; ret ; (1 found)
0x6e3a3a48: pop es ; rep ret ; (1 found)
0x6e3a3e48: pop es ; ret ; (1 found)
0x6e3a4178: pop es ; ret ; (1 found)
0x6e3a465f: pop esi ; add edi, 0x6E380000 ; mov eax, edi ; pop edi ; ret ; (1 found)
0x6e3814f8: pop esi ; pop ebp ; ret ; (1 found)
0x6e3812c7: pop esi ; pop edi ; pop ebp ; ret ; (1 found)
0x6e3818c0: pop esi ; pop edi ; pop ebp ; ret ; (1 found)
0x6e381cd6: pop esi ; pop edi ; pop ebp ; ret ; (1 found)
0x6e382517: pop esi ; pop edi ; pop ebp ; ret ; (1 found)
0x6e382c17: pop esi ; pop edi ; pop ebp ; ret ; (1 found)
0x6e383166: pop esi ; pop edi ; pop ebp ; ret ; (1 found)
0x6e38329b: pop esi ; pop edi ; pop ebp ; ret ; (1 found)
0x6e3834ef: pop esi ; pop edi ; pop ebp ; ret ; (1 found)
0x6e3837c7: pop esi ; pop edi ; pop ebp ; ret ; (1 found)
0x6e3838b2: pop esi ; pop edi ; pop ebp ; ret ; (1 found)
0x6e383eb4: pop esi ; pop edi ; pop ebp ; ret ; (1 found)
0x6e384705: pop esi ; pop edi ; pop ebp ; ret ; (1 found)
0x6e384753: pop esi ; pop edi ; pop ebp ; ret ; (1 found)
0x6e384786: pop esi ; pop edi ; pop ebp ; ret ; (1 found)
0x6e384854: pop esi ; pop edi ; pop ebp ; ret ; (1 found)
0x6e384f28: pop esi ; pop edi ; pop ebp ; ret ; (1 found)
0x6e385285: pop esi ; pop edi ; pop ebp ; ret ; (1 found)
0x6e3853f9: pop esi ; pop edi ; pop ebp ; ret ; (1 found)
0x6e385550: pop esi ; pop edi ; pop ebp ; ret ; (1 found)
0x6e3859c4: pop esi ; pop edi ; pop ebp ; ret ; (1 found)
0x6e386218: pop esi ; pop edi ; pop ebp ; ret ; (1 found)
0x6e386964: pop esi ; pop edi ; pop ebp ; ret ; (1 found)
0x6e386cb4: pop esi ; pop edi ; pop ebp ; ret ; (1 found)
0x6e386f91: pop esi ; pop edi ; pop ebp ; ret ; (1 found)
0x6e3871d4: pop esi ; pop edi ; pop ebp ; ret ; (1 found)
0x6e387bc6: pop esi ; pop edi ; pop ebp ; ret ; (1 found)
0x6e3883a4: pop esi ; pop edi ; pop ebp ; ret ; (1 found)
0x6e388ca8: pop esi ; pop edi ; pop ebp ; ret ; (1 found)
0x6e389516: pop esi ; pop edi ; pop ebp ; ret ; (1 found)
0x6e389a4b: pop esi ; pop edi ; pop ebp ; ret ; (1 found)
0x6e389c64: pop esi ; pop edi ; pop ebp ; ret ; (1 found)
0x6e38a436: pop esi ; pop edi ; pop ebp ; ret ; (1 found)
0x6e38a699: pop esi ; pop edi ; pop ebp ; ret ; (1 found)
0x6e38b139: pop esi ; pop edi ; pop ebp ; ret ; (1 found)
0x6e38b61d: pop esi ; pop edi ; pop ebp ; ret ; (1 found)
0x6e38b6e8: pop esi ; pop edi ; pop ebp ; ret ; (1 found)
0x6e38b9c9: pop esi ; pop edi ; pop ebp ; ret ; (1 found)
0x6e38bc29: pop esi ; pop edi ; pop ebp ; ret ; (1 found)
0x6e38c834: pop esi ; pop edi ; pop ebp ; ret ; (1 found)
0x6e38d4c9: pop esi ; pop edi ; pop ebp ; ret ; (1 found)
0x6e38d5bc: pop esi ; pop edi ; pop ebp ; ret ; (1 found)
0x6e38d662: pop esi ; pop edi ; pop ebp ; ret ; (1 found)
0x6e38d706: pop esi ; pop edi ; pop ebp ; ret ; (1 found)
0x6e38d7b2: pop esi ; pop edi ; pop ebp ; ret ; (1 found)
0x6e38d8fa: pop esi ; pop edi ; pop ebp ; ret ; (1 found)
0x6e38e2d8: pop esi ; pop edi ; pop ebp ; ret ; (1 found)
0x6e38e462: pop esi ; pop edi ; pop ebp ; ret ; (1 found)
0x6e38e5dc: pop esi ; pop edi ; pop ebp ; ret ; (1 found)
0x6e38f147: pop esi ; pop edi ; pop ebp ; ret ; (1 found)
0x6e38f4dc: pop esi ; pop edi ; pop ebp ; ret ; (1 found)
0x6e38fb47: pop esi ; pop edi ; pop ebp ; ret ; (1 found)
0x6e390deb: pop esi ; pop edi ; pop ebp ; ret ; (1 found)
0x6e390fb5: pop esi ; pop edi ; pop ebp ; ret ; (1 found)
0x6e3912d9: pop esi ; pop edi ; pop ebp ; ret ; (1 found)
0x6e39252e: pop esi ; pop edi ; pop ebp ; ret ; (1 found)
0x6e392d7c: pop esi ; pop edi ; pop ebp ; ret ; (1 found)
0x6e3932a7: pop esi ; pop edi ; pop ebp ; ret ; (1 found)
0x6e3935cc: pop esi ; pop edi ; pop ebp ; ret ; (1 found)
0x6e394c98: pop esi ; pop edi ; pop ebp ; ret ; (1 found)
0x6e395e68: pop esi ; pop edi ; pop ebp ; ret ; (1 found)
0x6e396a08: pop esi ; pop edi ; pop ebp ; ret ; (1 found)
0x6e396b92: pop esi ; pop edi ; pop ebp ; ret ; (1 found)
0x6e396d1b: pop esi ; pop edi ; pop ebp ; ret ; (1 found)
0x6e397b48: pop esi ; pop edi ; pop ebp ; ret ; (1 found)
0x6e398855: pop esi ; pop edi ; pop ebp ; ret ; (1 found)
0x6e398e4c: pop esi ; pop edi ; pop ebp ; ret ; (1 found)
0x6e399d97: pop esi ; pop edi ; pop ebp ; ret ; (1 found)
0x6e39aa24: pop esi ; pop edi ; pop ebp ; ret ; (1 found)
0x6e39adc7: pop esi ; pop edi ; pop ebp ; ret ; (1 found)
0x6e39b07a: pop esi ; pop edi ; pop ebp ; ret ; (1 found)
0x6e39ba08: pop esi ; pop edi ; pop ebp ; ret ; (1 found)
0x6e39c747: pop esi ; pop edi ; pop ebp ; ret ; (1 found)
0x6e39d827: pop esi ; pop edi ; pop ebp ; ret ; (1 found)
0x6e39e500: pop esi ; pop edi ; pop ebp ; ret ; (1 found)
0x6e39f420: pop esi ; pop edi ; pop ebp ; ret ; (1 found)
0x6e3a06f0: pop esi ; pop edi ; pop ebp ; ret ; (1 found)
0x6e3a0e8c: pop esi ; pop edi ; pop ebp ; ret ; (1 found)
0x6e3a13f1: pop esi ; pop edi ; pop ebp ; ret ; (1 found)
0x6e3a2447: pop esi ; pop edi ; pop ebp ; ret ; (1 found)
0x6e3a3a8e: pop esi ; pop edi ; pop ebp ; ret ; (1 found)
0x6e3a3afb: pop esi ; pop edi ; pop ebp ; ret ; (1 found)
0x6e3a3f44: pop esi ; pop edi ; pop ebp ; ret ; (1 found)
0x6e3a4169: pop esi ; pop edi ; pop ebp ; ret ; (1 found)
0x6e3a43db: pop esi ; pop edi ; pop ebp ; ret ; (1 found)
0x6e3a443a: pop esi ; pop edi ; pop ebp ; ret ; (1 found)
0x6e3a4448: pop esi ; pop edi ; pop ebp ; ret ; (1 found)
0x6e381761: pop esi ; pop edi ; ret ; (1 found)
0x6e381a66: pop esi ; pop edi ; ret ; (1 found)
0x6e381b93: pop esi ; pop edi ; ret ; (1 found)
0x6e385766: pop esi ; pop edi ; ret ; (1 found)
0x6e38d3c9: pop esi ; pop edi ; ret ; (1 found)
0x6e395c19: pop esi ; pop edi ; ret ; (1 found)
0x6e39b7b0: pop esi ; pop edi ; ret ; (1 found)
0x6e39b7da: pop esi ; pop edi ; ret ; (1 found)
0x6e3a3dea: pop esi ; pop edi ; ret ; (1 found)
0x6e3a45fd: pop esi ; pop edi ; ret ; (1 found)
0x6e3a4678: pop esi ; pop edi ; ret ; (1 found)
0x6e3810b2: pop esi ; pop edi ; retn 0x000C ; (1 found)
0x6e38116a: pop esi ; pop edi ; retn 0x000C ; (1 found)
0x6e3811ef: pop esi ; pop edi ; retn 0x000C ; (1 found)
0x6e3815e5: pop esi ; ret ; (1 found)
0x6e3815f3: pop esi ; ret ; (1 found)
0x6e38366a: pop esi ; ret ; (1 found)
0x6e3836b4: pop esi ; ret ; (1 found)
0x6e383b60: pop esi ; ret ; (1 found)
0x6e383c26: pop esi ; ret ; (1 found)
0x6e383d6a: pop esi ; ret ; (1 found)
0x6e383d8d: pop esi ; ret ; (1 found)
0x6e3845f1: pop esi ; ret ; (1 found)
0x6e38d00b: pop esi ; ret ; (1 found)
0x6e38d013: pop esi ; ret ; (1 found)
0x6e38d03d: pop esi ; ret ; (1 found)
0x6e38d291: pop esi ; ret ; (1 found)
0x6e38d299: pop esi ; ret ; (1 found)
0x6e38d2f2: pop esi ; ret ; (1 found)
0x6e3a43ab: pop esi ; ret ; (1 found)
0x6e3a44e6: pop esi ; ret ; (1 found)
0x6e3a453c: pop esi ; ret ; (1 found)
0x6e3a4545: pop esi ; ret ; (1 found)
0x6e3a3dcc: pop esp ; and al, 0x0C ; mov  [esp+0x00], eax ; call  [0x6E3AB15C] ; (1 found)
0x6e3a3aa3: pop esp ; and al, 0x10 ; xor ebx,  [esp+0x14] ; call  [0x6E3AB11C] ; (1 found)
0x6e3a3aa7: pop esp ; and al, 0x14 ; call  [0x6E3AB11C] ; (1 found)
0x6e3a48af: pop esp ; and al, 0x28 ; mov  [esp+0x14], edx ; lea edx,  [esp+0x10] ; mov  [esp+0x00], edx ; call eax ; (1 found)
0x6e381cd4: pop esp ; pop ebx ; pop esi ; pop edi ; pop ebp ; ret ; (1 found)
0x6e382c15: pop esp ; pop ebx ; pop esi ; pop edi ; pop ebp ; ret ; (1 found)
0x6e384852: pop esp ; pop ebx ; pop esi ; pop edi ; pop ebp ; ret ; (1 found)
0x6e3883a2: pop esp ; pop ebx ; pop esi ; pop edi ; pop ebp ; ret ; (1 found)
0x6e38b137: pop esp ; pop ebx ; pop esi ; pop edi ; pop ebp ; ret ; (1 found)
0x6e38b61b: pop esp ; pop ebx ; pop esi ; pop edi ; pop ebp ; ret ; (1 found)
0x6e38b6e6: pop esp ; pop ebx ; pop esi ; pop edi ; pop ebp ; ret ; (1 found)
0x6e38c832: pop esp ; pop ebx ; pop esi ; pop edi ; pop ebp ; ret ; (1 found)
0x6e38d8f8: pop esp ; pop ebx ; pop esi ; pop edi ; pop ebp ; ret ; (1 found)
0x6e39252c: pop esp ; pop ebx ; pop esi ; pop edi ; pop ebp ; ret ; (1 found)
0x6e392d7a: pop esp ; pop ebx ; pop esi ; pop edi ; pop ebp ; ret ; (1 found)
0x6e394c96: pop esp ; pop ebx ; pop esi ; pop edi ; pop ebp ; ret ; (1 found)
0x6e39e4fe: pop esp ; pop ebx ; pop esi ; pop edi ; pop ebp ; ret ; (1 found)
0x6e39f41e: pop esp ; pop ebx ; pop esi ; pop edi ; pop ebp ; ret ; (1 found)
0x6e3840ed: pop esp ; ret ; (1 found)
0x6e384552: pop esp ; ret ; (1 found)
0x6e385613: pop esp ; retn 0x83F0 ; (1 found)
0x6e383571: pop esp ; retn 0x83F8 ; (1 found)
0x6e3853ba: pop esp ; retn 0x83F8 ; (1 found)
0x6e385523: pop esp ; retn 0x83F8 ; (1 found)
0x6e3a3b6c: popad ; cmp ch, byte [esi-0x01] ; adc eax, 0x6E3AB158 ; sub esp, 0x04 ; call  [0x6E3AB118] ; (1 found)
0x6e3965df: push  [ecx] ; sal byte [edx+0x0FE9DB00], 0x9B ; ror byte [edi], 0x45 ; retn 0xC085 ; (1 found)
0x6e3823be: push cs ; add  [eax], eax ; add byte [eax-0x7BF0AB06], al ; add eax, 0x83000001 ; call  [edi+ecx-0x7C] ; (1 found)
0x6e3a3975: push cs ; add byte [eax], al ; add esp, 0x28 ; mov eax, ebx ; pop ebx ; ret ; (1 found)
0x6e383663: push ds ; fstp qword [ebx] ; add esp, 0x44 ; pop ebx ; pop esi ; ret ; (1 found)
0x6e3836ad: push ds ; fstp qword [ebx] ; add esp, 0x44 ; pop ebx ; pop esi ; ret ; (1 found)
0x6e3814ef: push eax ; cmp ch, byte [esi-0x01] ; ror byte [ebp+0x5E5BF865], cl ; pop ebp ; ret ; (1 found)
0x6e3a3b59: push eax ; cmp ch, byte [esi-0x77] ; inc ebp ; hlt ; call  [0x6E3AB148] ; (1 found)
0x6e3a3b51: push eax ; cmp ch, byte [esi-0x77] ; inc ebp ; lock mov eax,  [0x6E3A5014] ; mov  [ebp-0x0C], eax ; call  [0x6E3AB148] ; (1 found)
0x6e3a39e0: push eax ; cmp ch, byte [esi-0x7B] ; sal byte [ebp-0x17], 0x83 ; les ecx,  [ebx+esi*8] ; ret ; (1 found)
0x6e381500: push ebp ; mov ebp, esp ; sub esp, 0x18 ; mov  [esp+0x00], 0x6E3A6000 ; call  [0x6E3AB128] ; (1 found)
0x6e38a0db: push ebx ; dec byte [ecx+0x3920245C] ; retn 0x5489 ; (1 found)
0x6e381454: push ebx ; sub esp, 0x10 ; mov ebx,  [0x6E3AB128] ; mov  [esp+0x00], 0x6E3A6000 ; call ebx ; (1 found)
0x6e3a4103: push ebx ; sub esp, 0x1C ; mov  [esp+0x00], 0x6E3A93E8 ; call  [0x6E3AB110] ; (1 found)
0x6e3886b8: push ecx ; add  [ecx], edi ; retn 0x327F ; (1 found)
0x6e392820: push ecx ; dec  [edi] ; scasd ; retn 0xC701 ; (1 found)
0x6e3a4101: push edi ; push esi ; push ebx ; sub esp, 0x1C ; mov  [esp+0x00], 0x6E3A93E8 ; call  [0x6E3AB110] ; (1 found)
0x6e388c8c: push es ; add byte [eax], al ; add bh, al ; add al, 0x24 ; retn 0x3A60 ; (1 found)
0x6e3a3bd5: push es ; add byte [eax], al ; mov eax, 0x00000001 ; add esp, 0x1C ; retn 0x000C ; (1 found)
0x6e3a44c6: push es ; add byte [eax], bh ; outsb ; ret ; (1 found)
0x6e3a48c0: push es ; fstp st0 ; fstp st0 ; fstp st0 ; add esp, 0x3C ; ret ; (1 found)
0x6e3a4729: push es ; fstp st0 ; lea esi,  [esi+0x00] ; fsqrt ; add esp, 0x3C ; ret ; (1 found)
0x6e381453: push esi ; push ebx ; sub esp, 0x10 ; mov ebx,  [0x6E3AB128] ; mov  [esp+0x00], 0x6E3A6000 ; call ebx ; (1 found)
0x6e3a4102: push esi ; push ebx ; sub esp, 0x1C ; mov  [esp+0x00], 0x6E3A93E8 ; call  [0x6E3AB110] ; (1 found)
0x6e38114b: push esp ; and al, 0x08 ; mov edx,  [esp+0x20] ; mov  [esp+0x00], edx ; call eax ; (1 found)
0x6e3a48b7: push esp ; and al, 0x10 ; mov  [esp+0x00], edx ; call eax ; (1 found)
0x6e3a48b3: push esp ; and al, 0x14 ; lea edx,  [esp+0x10] ; mov  [esp+0x00], edx ; call eax ; (1 found)
0x6e38114f: push esp ; and al, 0x20 ; mov  [esp+0x00], edx ; call eax ; (1 found)
0x6e3818a7: push esp ; retn 0xB8F8 ; (1 found)
0x6e381a40: push esp ; retn 0xB8F8 ; (1 found)
0x6e38574a: push esp ; retn 0xB8F8 ; (1 found)
0x6e3814d0: push ss ; mov  [esp+0x04], 0x6E3A6037 ; mov  [esp+0x00], eax ; call  [0x6E3AB12C] ; (1 found)
0x6e38151e: push ss ; mov  [esp+0x04], 0x6E3A604B ; mov  [esp+0x00], eax ; call  [0x6E3AB12C] ; (1 found)
0x6e39e0a5: pushad ; add  [ebx-0x7CE7DB94], ecx ; retn 0x0110 ; (1 found)
0x6e383c1d: pushad ; cmp ch, byte [esi-0x23] ; sbb byte [ebx+0x5E5B2CC4], al ; ret ; (1 found)
0x6e3814d6: pushad ; cmp ch, byte [esi-0x77] ; add al, 0x24 ; call  [0x6E3AB12C] ; (1 found)
0x6e381524: pushad ; cmp ch, byte [esi-0x77] ; add al, 0x24 ; call  [0x6E3AB12C] ; (1 found)
0x6e38148f: pushad ; cmp ch, byte [esi-0x77] ; xor al, 0x24 ; call  [0x6E3AB12C] ; (1 found)
0x6e39b7ae: pushad ; pop ebx ; pop esi ; pop edi ; ret ; (1 found)
0x6e39b7d8: pushad ; pop ebx ; pop esi ; pop edi ; ret ; (1 found)
0x6e38bf23: pushfd ; add byte [eax], al ; add byte [ebp+0x048DD10C], cl ; ret ; (1 found)
0x6e38c164: pushfd ; add byte [eax], al ; add byte [ebp+0x1C8D2A04], cl ; ret ; (1 found)
0x6e396d16: pushfd ; add byte [eax], al ; add byte [ebx+0x5E], bl ; pop edi ; pop ebp ; ret ; (1 found)
0x6e39adc2: pushfd ; add byte [eax], al ; add byte [ebx+0x5E], bl ; pop edi ; pop ebp ; ret ; (1 found)
0x6e39b075: pushfd ; add byte [eax], al ; add byte [ebx+0x5E], bl ; pop edi ; pop ebp ; ret ; (1 found)
0x6e39ba0f: pushfd ; add byte [eax], al ; add byte [edi], al ; add byte [eax], al ; add bl, ch ; ret ; (1 found)
0x6e38bf21: pushfd ; and al, 0x9C ; add byte [eax], al ; add byte [ebp+0x048DD10C], cl ; ret ; (1 found)
0x6e38c162: pushfd ; and al, 0x9C ; add byte [eax], al ; add byte [ebp+0x1C8D2A04], cl ; ret ; (1 found)
0x6e393d9c: pushfd ; and al, 0xBC ; add byte [eax], al ; add byte [ebp-0x76E7FCBC], cl ; ret ; (1 found)
0x6e3a482a: pushfd ; mov cl, 0x3A ; outsb ; nop ; nop ; jmp  [0x6E3AB194] ; (1 found)
0x6e3902f1: rcl  [eax], 0xFFFFFF83 ; ret ; (1 found)
0x6e39cf10: rcl  [eax], 0xFFFFFF83 ; ret ; (1 found)
0x6e38d619: rcl  [eax], 0xFFFFFF83 ; retn 0xDD10 ; (1 found)
0x6e38d769: rcl  [eax], 0xFFFFFF83 ; retn 0xDD10 ; (1 found)
0x6e38f809: rcl  [eax], 0xFFFFFF83 ; retn 0xDD10 ; (1 found)
0x6e38ffae: rcl  [eax], 0xFFFFFF83 ; retn 0xDD10 ; (1 found)
0x6e397877: rcl  [eax], 0xFFFFFF83 ; retn 0xDD10 ; (1 found)
0x6e39a747: rcl  [eax], 0xFFFFFF83 ; retn 0xDD10 ; (1 found)
0x6e39cbdd: rcl  [eax], 0xFFFFFF83 ; retn 0xDD10 ; (1 found)
0x6e38f806: rcl byte [eax], 0x83 ; rcl  [eax], 0xFFFFFF83 ; retn 0xDD10 ; (1 found)
0x6e38ffab: rcl byte [eax], 0x83 ; rcl  [eax], 0xFFFFFF83 ; retn 0xDD10 ; (1 found)
0x6e397874: rcl byte [eax], 0x83 ; rcl  [eax], 0xFFFFFF83 ; retn 0xDD10 ; (1 found)
0x6e39a744: rcl byte [eax], 0x83 ; rcl  [eax], 0xFFFFFF83 ; retn 0xDD10 ; (1 found)
0x6e39cbda: rcl byte [eax], 0x83 ; rcl  [eax], 0xFFFFFF83 ; retn 0xDD10 ; (1 found)
0x6e395a0b: rcl byte [eax], 0x83 ; ret ; (1 found)
0x6e38efa8: rcl byte [eax], 0x83 ; retn 0x8310 ; (1 found)
0x6e3902eb: rcl byte [eax], 0x83 ; retn 0x8310 ; (1 found)
0x6e397f54: rcl byte [eax], 0x83 ; retn 0x8310 ; (1 found)
0x6e3981b7: rcl byte [eax], 0x83 ; retn 0x8310 ; (1 found)
0x6e39b3c8: rcl byte [eax], 0x83 ; retn 0x8310 ; (1 found)
0x6e39be14: rcl byte [eax], 0x83 ; retn 0x8310 ; (1 found)
0x6e39c045: rcl byte [eax], 0x83 ; retn 0x8310 ; (1 found)
0x6e39cf0a: rcl byte [eax], 0x83 ; retn 0x8310 ; (1 found)
0x6e38ed80: rcl byte [eax], 0x83 ; retn 0xBD10 ; (1 found)
0x6e39c507: rcl byte [eax], 0x83 ; retn 0xD910 ; (1 found)
0x6e38d3f6: rcl byte [eax], 0x83 ; retn 0xDD10 ; (1 found)
0x6e38e0b7: rcl byte [eax], 0x83 ; retn 0xDD10 ; (1 found)
0x6e38e1a7: rcl byte [eax], 0x83 ; retn 0xDD10 ; (1 found)
0x6e38e237: rcl byte [eax], 0x83 ; retn 0xDD10 ; (1 found)
0x6e38e4d6: rcl byte [eax], 0x83 ; retn 0xDD10 ; (1 found)
0x6e391467: rcl byte [eax], 0x83 ; retn 0xDD10 ; (1 found)
0x6e391694: rcl byte [eax], 0x83 ; retn 0xDD10 ; (1 found)
0x6e391ab7: rcl byte [eax], 0x83 ; retn 0xDD10 ; (1 found)
0x6e391c67: rcl byte [eax], 0x83 ; retn 0xDD10 ; (1 found)
0x6e3920e7: rcl byte [eax], 0x83 ; retn 0xDD10 ; (1 found)
0x6e392c9c: rcl byte [eax], 0x83 ; retn 0xDD10 ; (1 found)
0x6e393937: rcl byte [eax], 0x83 ; retn 0xDD10 ; (1 found)
0x6e393b27: rcl byte [eax], 0x83 ; retn 0xDD10 ; (1 found)
0x6e394047: rcl byte [eax], 0x83 ; retn 0xDD10 ; (1 found)
0x6e394247: rcl byte [eax], 0x83 ; retn 0xDD10 ; (1 found)
0x6e394527: rcl byte [eax], 0x83 ; retn 0xDD10 ; (1 found)
0x6e3945a7: rcl byte [eax], 0x83 ; retn 0xDD10 ; (1 found)
0x6e3957d7: rcl byte [eax], 0x83 ; retn 0xDD10 ; (1 found)
0x6e395889: rcl byte [eax], 0x83 ; retn 0xDD10 ; (1 found)
0x6e396938: rcl byte [eax], 0x83 ; retn 0xDD10 ; (1 found)
0x6e396c06: rcl byte [eax], 0x83 ; retn 0xDD10 ; (1 found)
0x6e3984e9: rcl byte [eax], 0x83 ; retn 0xDD10 ; (1 found)
0x6e398587: rcl byte [eax], 0x83 ; retn 0xDD10 ; (1 found)
0x6e39867b: rcl byte [eax], 0x83 ; retn 0xDD10 ; (1 found)
0x6e39873e: rcl byte [eax], 0x83 ; retn 0xDD10 ; (1 found)
0x6e398bf6: rcl byte [eax], 0x83 ; retn 0xDD10 ; (1 found)
0x6e399187: rcl byte [eax], 0x83 ; retn 0xDD10 ; (1 found)
0x6e39acb6: rcl byte [eax], 0x83 ; retn 0xDD10 ; (1 found)
0x6e39c369: rcl byte [eax], 0x83 ; retn 0xDD10 ; (1 found)
0x6e39c407: rcl byte [eax], 0x83 ; retn 0xDD10 ; (1 found)
0x6e39c5c1: rcl byte [eax], 0x83 ; retn 0xDD10 ; (1 found)
0x6e39e247: rcl byte [eax], 0x83 ; retn 0xDD10 ; (1 found)
0x6e39f037: rcl byte [eax], 0x83 ; retn 0xDD10 ; (1 found)
0x6e3a00d7: rcl byte [eax], 0x83 ; retn 0xDD10 ; (1 found)
0x6e3a11a7: rcl byte [eax], 0x83 ; retn 0xDD10 ; (1 found)
0x6e3a283b: rcl byte [eax], 0x83 ; retn 0xDD10 ; (1 found)
0x6e3a2ae7: rcl byte [eax], 0x83 ; retn 0xDD10 ; (1 found)
0x6e3a2ce7: rcl byte [eax], 0x83 ; retn 0xDD10 ; (1 found)
0x6e3a3247: rcl byte [eax], 0x83 ; retn 0xDD10 ; (1 found)
0x6e3a34bb: rcl byte [eax], 0x83 ; retn 0xDD10 ; (1 found)
0x6e381032: rcr byte [ebx-0x3D], 0x83 ; les ebx,  [eax] ; mov eax, 0x00000001 ; pop ebx ; ret ; (1 found)
0x6e3a4205: rcr byte [ebx-0x3D], 0x90 ; lea esi,  [esi+0x00000000] ; mov  [esp+0x00], 0x6E3A93E8 ; call  [0x6E3AB110] ; (1 found)
0x6e3836ab: rcr ch, 0x1E ; fstp qword [ebx] ; add esp, 0x44 ; pop ebx ; pop esi ; ret ; (1 found)
0x6e386f65: rcr ebp, 0x1C ; ret ; (1 found)
0x6e38799e: rcr ebp, 0x1C ; ret ; (1 found)
0x6e385d1d: rcr ebp, 0x1C ; retn 0xC083 ; (1 found)
0x6e39b7a8: rcr ebp, 0x5B ; or byte [ebx+0x5E5B60C4], al ; pop edi ; ret ; (1 found)
0x6e385611: rcr ebp, 0x5C ; retn 0x83F0 ; (1 found)
0x6e38356f: rcr ebp, 0x5C ; retn 0x83F8 ; (1 found)
0x6e385521: rcr ebp, 0x5C ; retn 0x83F8 ; (1 found)
0x6e3a09f4: rcr ecx, 1 ; ret ; (1 found)
0x6e38743c: rcr esp, 0x0C ; ret ; (1 found)
0x6e38bd62: rcr esp, 0x0C ; ret ; (1 found)
0x6e38c572: rcr esp, 0x0C ; retn 0xC083 ; (1 found)
0x6e38c581: rcr esp, 0x0C ; retn 0xC083 ; (1 found)
0x6e3a39ea: rep ret ; (1 found)
0x6e3a3a49: rep ret ; (1 found)
0x6e3a44ad: rep ret ; (1 found)
0x6e381011: ret ; (1 found)
0x6e381034: ret ; (1 found)
0x6e38103e: ret ; (1 found)
0x6e3811a1: ret ; (1 found)
0x6e3812ca: ret ; (1 found)
0x6e3814fa: ret ; (1 found)
0x6e381558: ret ; (1 found)
0x6e38159c: ret ; (1 found)
0x6e3815e6: ret ; (1 found)
0x6e3815f4: ret ; (1 found)
0x6e381719: ret ; (1 found)
0x6e381763: ret ; (1 found)
0x6e3818c3: ret ; (1 found)
0x6e381910: ret ; (1 found)
0x6e38191d: ret ; (1 found)
0x6e3819de: ret ; (1 found)
0x6e381a68: ret ; (1 found)
0x6e381b95: ret ; (1 found)
0x6e381bdf: ret ; (1 found)
0x6e381cd9: ret ; (1 found)
0x6e381d71: ret ; (1 found)
0x6e381f02: ret ; (1 found)
0x6e382042: ret ; (1 found)
0x6e38230d: ret ; (1 found)
0x6e38235c: ret ; (1 found)
0x6e38251a: ret ; (1 found)
0x6e382683: ret ; (1 found)
0x6e382688: ret ; (1 found)
0x6e3826c7: ret ; (1 found)
0x6e3826ca: ret ; (1 found)
0x6e382875: ret ; (1 found)
0x6e38287a: ret ; (1 found)
0x6e3828b7: ret ; (1 found)
0x6e3828ba: ret ; (1 found)
0x6e382957: ret ; (1 found)
0x6e38295c: ret ; (1 found)
0x6e3829c9: ret ; (1 found)
0x6e382aca: ret ; (1 found)
0x6e382be4: ret ; (1 found)
0x6e382c1a: ret ; (1 found)
0x6e382de9: ret ; (1 found)
0x6e382ea7: ret ; (1 found)
0x6e382ec2: ret ; (1 found)
0x6e383008: ret ; (1 found)
0x6e383085: ret ; (1 found)
0x6e383169: ret ; (1 found)
0x6e3831f9: ret ; (1 found)
0x6e38322a: ret ; (1 found)
0x6e38329e: ret ; (1 found)
0x6e3832d5: ret ; (1 found)
0x6e3833dc: ret ; (1 found)
0x6e3833f6: ret ; (1 found)
0x6e383405: ret ; (1 found)
0x6e38341b: ret ; (1 found)
0x6e38349e: ret ; (1 found)
0x6e3834f2: ret ; (1 found)
0x6e383538: ret ; (1 found)
0x6e3835ae: ret ; (1 found)
0x6e3835b4: ret ; (1 found)
0x6e38366b: ret ; (1 found)
0x6e3836b5: ret ; (1 found)
0x6e3837ca: ret ; (1 found)
0x6e3838b5: ret ; (1 found)
0x6e383a1c: ret ; (1 found)
0x6e383b61: ret ; (1 found)
0x6e383c27: ret ; (1 found)
0x6e383c62: ret ; (1 found)
0x6e383d6b: ret ; (1 found)
0x6e383d8e: ret ; (1 found)
0x6e383e30: ret ; (1 found)
0x6e383eb7: ret ; (1 found)
0x6e3840ea: ret ; (1 found)
0x6e3840ee: ret ; (1 found)
0x6e3841c0: ret ; (1 found)
0x6e3841f4: ret ; (1 found)
0x6e384309: ret ; (1 found)
0x6e38435c: ret ; (1 found)
0x6e38440e: ret ; (1 found)
0x6e38454f: ret ; (1 found)
0x6e384553: ret ; (1 found)
0x6e3845f2: ret ; (1 found)
0x6e384650: ret ; (1 found)
0x6e384708: ret ; (1 found)
0x6e384743: ret ; (1 found)
0x6e38474d: ret ; (1 found)
0x6e384756: ret ; (1 found)
0x6e384789: ret ; (1 found)
0x6e3847c1: ret ; (1 found)
0x6e384857: ret ; (1 found)
0x6e384999: ret ; (1 found)
0x6e384ab2: ret ; (1 found)
0x6e384b0e: ret ; (1 found)
0x6e384b61: ret ; (1 found)
0x6e384c26: ret ; (1 found)
0x6e384e91: ret ; (1 found)
0x6e384f2b: ret ; (1 found)
0x6e385288: ret ; (1 found)
0x6e385388: ret ; (1 found)
0x6e3853fc: ret ; (1 found)
0x6e385553: ret ; (1 found)
0x6e385602: ret ; (1 found)
0x6e385630: ret ; (1 found)
0x6e385768: ret ; (1 found)
0x6e385964: ret ; (1 found)
0x6e3859c7: ret ; (1 found)
0x6e385a74: ret ; (1 found)
0x6e385adb: ret ; (1 found)
0x6e385bae: ret ; (1 found)
0x6e385bbf: ret ; (1 found)
0x6e385c95: ret ; (1 found)
0x6e385cb9: ret ; (1 found)
0x6e385d91: ret ; (1 found)
0x6e385e14: ret ; (1 found)
0x6e385ea2: ret ; (1 found)
0x6e385ee1: ret ; (1 found)
0x6e385f36: ret ; (1 found)
0x6e385fb3: ret ; (1 found)
0x6e38606f: ret ; (1 found)
0x6e386189: ret ; (1 found)
0x6e38621b: ret ; (1 found)
0x6e38641c: ret ; (1 found)
0x6e386442: ret ; (1 found)
0x6e3866d5: ret ; (1 found)
0x6e386967: ret ; (1 found)
0x6e386cb7: ret ; (1 found)
0x6e386cd5: ret ; (1 found)
0x6e386d40: ret ; (1 found)
0x6e386e44: ret ; (1 found)
0x6e386f5d: ret ; (1 found)
0x6e386f68: ret ; (1 found)
0x6e386f94: ret ; (1 found)
0x6e387042: ret ; (1 found)
0x6e3871d7: ret ; (1 found)
0x6e38743f: ret ; (1 found)
0x6e387469: ret ; (1 found)
0x6e387648: ret ; (1 found)
0x6e3876a1: ret ; (1 found)
0x6e38785d: ret ; (1 found)
0x6e387997: ret ; (1 found)
0x6e3879a1: ret ; (1 found)
0x6e387a52: ret ; (1 found)
0x6e387a57: ret ; (1 found)
0x6e387bc9: ret ; (1 found)
0x6e387f63: ret ; (1 found)
0x6e387fb1: ret ; (1 found)
0x6e3881d7: ret ; (1 found)
0x6e3881da: ret ; (1 found)
0x6e3881fc: ret ; (1 found)
0x6e388282: ret ; (1 found)
0x6e388287: ret ; (1 found)
0x6e388305: ret ; (1 found)
0x6e388349: ret ; (1 found)
0x6e3883a7: ret ; (1 found)
0x6e3884dc: ret ; (1 found)
0x6e3884ec: ret ; (1 found)
0x6e3885d1: ret ; (1 found)
0x6e388686: ret ; (1 found)
0x6e3886d2: ret ; (1 found)
0x6e3887f2: ret ; (1 found)
0x6e388984: ret ; (1 found)
0x6e388c56: ret ; (1 found)
0x6e388cab: ret ; (1 found)
0x6e388ddc: ret ; (1 found)
0x6e388dec: ret ; (1 found)
0x6e388ea9: ret ; (1 found)
0x6e388ee2: ret ; (1 found)
0x6e389030: ret ; (1 found)
0x6e38905d: ret ; (1 found)
0x6e3891a4: ret ; (1 found)
0x6e38926f: ret ; (1 found)
0x6e3892fc: ret ; (1 found)
0x6e389457: ret ; (1 found)
0x6e3894b3: ret ; (1 found)
0x6e389519: ret ; (1 found)
0x6e389861: ret ; (1 found)
0x6e389873: ret ; (1 found)
0x6e389a4e: ret ; (1 found)
0x6e389c67: ret ; (1 found)
0x6e389d20: ret ; (1 found)
0x6e389d30: ret ; (1 found)
0x6e389f61: ret ; (1 found)
0x6e389fcd: ret ; (1 found)
0x6e38a23a: ret ; (1 found)
0x6e38a381: ret ; (1 found)
0x6e38a3db: ret ; (1 found)
0x6e38a439: ret ; (1 found)
0x6e38a681: ret ; (1 found)
0x6e38a69c: ret ; (1 found)
0x6e38a6a1: ret ; (1 found)
0x6e38a6ac: ret ; (1 found)
0x6e38a9ee: ret ; (1 found)
0x6e38aafb: ret ; (1 found)
0x6e38ab49: ret ; (1 found)
0x6e38ab84: ret ; (1 found)
0x6e38abaa: ret ; (1 found)
0x6e38ad37: ret ; (1 found)
0x6e38ae35: ret ; (1 found)
0x6e38aea1: ret ; (1 found)
0x6e38b009: ret ; (1 found)
0x6e38b13c: ret ; (1 found)
0x6e38b372: ret ; (1 found)
0x6e38b462: ret ; (1 found)
0x6e38b620: ret ; (1 found)
0x6e38b6c5: ret ; (1 found)
0x6e38b6eb: ret ; (1 found)
0x6e38b7aa: ret ; (1 found)
0x6e38b921: ret ; (1 found)
0x6e38b97f: ret ; (1 found)
0x6e38b9cc: ret ; (1 found)
0x6e38ba19: ret ; (1 found)
0x6e38baea: ret ; (1 found)
0x6e38bbe6: ret ; (1 found)
0x6e38bc2c: ret ; (1 found)
0x6e38bc61: ret ; (1 found)
0x6e38bd65: ret ; (1 found)
0x6e38bdd5: ret ; (1 found)
0x6e38bf2c: ret ; (1 found)
0x6e38bff3: ret ; (1 found)
0x6e38c00a: ret ; (1 found)
0x6e38c16d: ret ; (1 found)
0x6e38c684: ret ; (1 found)
0x6e38c7ba: ret ; (1 found)
0x6e38c837: ret ; (1 found)
0x6e38c948: ret ; (1 found)
0x6e38c954: ret ; (1 found)
0x6e38cb76: ret ; (1 found)
0x6e38cc87: ret ; (1 found)
0x6e38cd62: ret ; (1 found)
0x6e38d00c: ret ; (1 found)
0x6e38d014: ret ; (1 found)
0x6e38d03e: ret ; (1 found)
0x6e38d059: ret ; (1 found)
0x6e38d0b5: ret ; (1 found)
0x6e38d0c6: ret ; (1 found)
0x6e38d106: ret ; (1 found)
0x6e38d11d: ret ; (1 found)
0x6e38d1af: ret ; (1 found)
0x6e38d1bf: ret ; (1 found)
0x6e38d1e3: ret ; (1 found)
0x6e38d1e9: ret ; (1 found)
0x6e38d292: ret ; (1 found)
0x6e38d29a: ret ; (1 found)
0x6e38d2f3: ret ; (1 found)
0x6e38d39b: ret ; (1 found)
0x6e38d39f: ret ; (1 found)
0x6e38d3cb: ret ; (1 found)
0x6e38d4cc: ret ; (1 found)
0x6e38d589: ret ; (1 found)
0x6e38d59b: ret ; (1 found)
0x6e38d5bf: ret ; (1 found)
0x6e38d616: ret ; (1 found)
0x6e38d62c: ret ; (1 found)
0x6e38d630: ret ; (1 found)
0x6e38d665: ret ; (1 found)
0x6e38d6d9: ret ; (1 found)
0x6e38d6e9: ret ; (1 found)
0x6e38d709: ret ; (1 found)
0x6e38d766: ret ; (1 found)
0x6e38d77a: ret ; (1 found)
0x6e38d77e: ret ; (1 found)
0x6e38d7b5: ret ; (1 found)
0x6e38d81d: ret ; (1 found)
0x6e38d85c: ret ; (1 found)
0x6e38d8fd: ret ; (1 found)
0x6e38dbd2: ret ; (1 found)
0x6e38dc66: ret ; (1 found)
0x6e38dc6a: ret ; (1 found)
0x6e38dcfb: ret ; (1 found)
0x6e38dcff: ret ; (1 found)
0x6e38debd: ret ; (1 found)
0x6e38dec1: ret ; (1 found)
0x6e38df49: ret ; (1 found)
0x6e38df4d: ret ; (1 found)
0x6e38dffc: ret ; (1 found)
0x6e38e000: ret ; (1 found)
0x6e38e0c4: ret ; (1 found)
0x6e38e1b8: ret ; (1 found)
0x6e38e1bc: ret ; (1 found)
0x6e38e24a: ret ; (1 found)
0x6e38e24e: ret ; (1 found)
0x6e38e2db: ret ; (1 found)
0x6e38e348: ret ; (1 found)
0x6e38e356: ret ; (1 found)
0x6e38e3b3: ret ; (1 found)
0x6e38e3f5: ret ; (1 found)
0x6e38e3f9: ret ; (1 found)
0x6e38e41e: ret ; (1 found)
0x6e38e422: ret ; (1 found)
0x6e38e465: ret ; (1 found)
0x6e38e4b5: ret ; (1 found)
0x6e38e4b9: ret ; (1 found)
0x6e38e4df: ret ; (1 found)
0x6e38e5df: ret ; (1 found)
0x6e38e861: ret ; (1 found)
0x6e38e898: ret ; (1 found)
0x6e38e89c: ret ; (1 found)
0x6e38e8ef: ret ; (1 found)
0x6e38e900: ret ; (1 found)
0x6e38ebc2: ret ; (1 found)
0x6e38ebc6: ret ; (1 found)
0x6e38ec12: ret ; (1 found)
0x6e38efa5: ret ; (1 found)
0x6e38f14a: ret ; (1 found)
0x6e38f429: ret ; (1 found)
0x6e38f4df: ret ; (1 found)
0x6e38f604: ret ; (1 found)
0x6e38f625: ret ; (1 found)
0x6e38f803: ret ; (1 found)
0x6e38f822: ret ; (1 found)
0x6e38f8f1: ret ; (1 found)
0x6e38fb4a: ret ; (1 found)
0x6e38fcff: ret ; (1 found)
0x6e38fdf4: ret ; (1 found)
0x6e38ff5f: ret ; (1 found)
0x6e38ffa8: ret ; (1 found)
0x6e3901e8: ret ; (1 found)
0x6e3902f4: ret ; (1 found)
0x6e390302: ret ; (1 found)
0x6e390306: ret ; (1 found)
0x6e390326: ret ; (1 found)
0x6e39032a: ret ; (1 found)
0x6e39038a: ret ; (1 found)
0x6e390464: ret ; (1 found)
0x6e390722: ret ; (1 found)
0x6e3907a4: ret ; (1 found)
0x6e3908fa: ret ; (1 found)
0x6e390940: ret ; (1 found)
0x6e390a32: ret ; (1 found)
0x6e390b35: ret ; (1 found)
0x6e390b7a: ret ; (1 found)
0x6e390c76: ret ; (1 found)
0x6e390d2c: ret ; (1 found)
0x6e390d6c: ret ; (1 found)
0x6e390dee: ret ; (1 found)
0x6e390eb7: ret ; (1 found)
0x6e390fb8: ret ; (1 found)
0x6e3912c1: ret ; (1 found)
0x6e3912dc: ret ; (1 found)
0x6e391432: ret ; (1 found)
0x6e391703: ret ; (1 found)
0x6e391750: ret ; (1 found)
0x6e3917eb: ret ; (1 found)
0x6e391a2b: ret ; (1 found)
0x6e391a6b: ret ; (1 found)
0x6e391aa6: ret ; (1 found)
0x6e391bfa: ret ; (1 found)
0x6e391c70: ret ; (1 found)
0x6e391c74: ret ; (1 found)
0x6e391ceb: ret ; (1 found)
0x6e391da0: ret ; (1 found)
0x6e391e1e: ret ; (1 found)
0x6e391e85: ret ; (1 found)
0x6e391f0b: ret ; (1 found)
0x6e391fb2: ret ; (1 found)
0x6e391fb6: ret ; (1 found)
0x6e391ff1: ret ; (1 found)
0x6e392046: ret ; (1 found)
0x6e392121: ret ; (1 found)
0x6e392146: ret ; (1 found)
0x6e392220: ret ; (1 found)
0x6e392224: ret ; (1 found)
0x6e39229f: ret ; (1 found)
0x6e392531: ret ; (1 found)
0x6e39271d: ret ; (1 found)
0x6e39283e: ret ; (1 found)
0x6e39289e: ret ; (1 found)
0x6e3928f9: ret ; (1 found)
0x6e39293c: ret ; (1 found)
0x6e392940: ret ; (1 found)
0x6e39297d: ret ; (1 found)
0x6e3929b2: ret ; (1 found)
0x6e392b10: ret ; (1 found)
0x6e392b9d: ret ; (1 found)
0x6e392bc2: ret ; (1 found)
0x6e392bc6: ret ; (1 found)
0x6e392c57: ret ; (1 found)
0x6e392c70: ret ; (1 found)
0x6e392ca5: ret ; (1 found)
0x6e392ca9: ret ; (1 found)
0x6e392d47: ret ; (1 found)
0x6e392d7f: ret ; (1 found)
0x6e392d8c: ret ; (1 found)
0x6e392dcf: ret ; (1 found)
0x6e392dd3: ret ; (1 found)
0x6e392e5e: ret ; (1 found)
0x6e392ef2: ret ; (1 found)
0x6e392f0a: ret ; (1 found)
0x6e392f0e: ret ; (1 found)
0x6e392fb0: ret ; (1 found)
0x6e392fb4: ret ; (1 found)
0x6e392ff7: ret ; (1 found)
0x6e392ffb: ret ; (1 found)
0x6e393041: ret ; (1 found)
0x6e393057: ret ; (1 found)
0x6e39305b: ret ; (1 found)
0x6e39309b: ret ; (1 found)
0x6e39309f: ret ; (1 found)
0x6e3930e7: ret ; (1 found)
0x6e3930eb: ret ; (1 found)
0x6e393110: ret ; (1 found)
0x6e393133: ret ; (1 found)
0x6e393137: ret ; (1 found)
0x6e39319a: ret ; (1 found)
0x6e3932aa: ret ; (1 found)
0x6e3935cf: ret ; (1 found)
0x6e393692: ret ; (1 found)
0x6e39369a: ret ; (1 found)
0x6e39378b: ret ; (1 found)
0x6e39378f: ret ; (1 found)
0x6e39381a: ret ; (1 found)
0x6e39382a: ret ; (1 found)
0x6e393b38: ret ; (1 found)
0x6e393b3c: ret ; (1 found)
0x6e393b77: ret ; (1 found)
0x6e393b7b: ret ; (1 found)
0x6e393b9e: ret ; (1 found)
0x6e393be0: ret ; (1 found)
0x6e393d8e: ret ; (1 found)
0x6e393da7: ret ; (1 found)
0x6e393ebb: ret ; (1 found)
0x6e393f03: ret ; (1 found)
0x6e393f15: ret ; (1 found)
0x6e39400c: ret ; (1 found)
0x6e394258: ret ; (1 found)
0x6e39425c: ret ; (1 found)
0x6e394297: ret ; (1 found)
0x6e39429b: ret ; (1 found)
0x6e39433b: ret ; (1 found)
0x6e394402: ret ; (1 found)
0x6e394422: ret ; (1 found)
0x6e39453a: ret ; (1 found)
0x6e39453e: ret ; (1 found)
0x6e39457f: ret ; (1 found)
0x6e394583: ret ; (1 found)
0x6e3945ba: ret ; (1 found)
0x6e3945be: ret ; (1 found)
0x6e3945ff: ret ; (1 found)
0x6e394603: ret ; (1 found)
0x6e39466f: ret ; (1 found)
0x6e394771: ret ; (1 found)
0x6e394a5b: ret ; (1 found)
0x6e394c9b: ret ; (1 found)
0x6e394fd7: ret ; (1 found)
0x6e394fdb: ret ; (1 found)
0x6e395016: ret ; (1 found)
0x6e39501a: ret ; (1 found)
0x6e395098: ret ; (1 found)
0x6e39509c: ret ; (1 found)
0x6e3950dd: ret ; (1 found)
0x6e3950e1: ret ; (1 found)
0x6e3951eb: ret ; (1 found)
0x6e3951ef: ret ; (1 found)
0x6e395224: ret ; (1 found)
0x6e3952c6: ret ; (1 found)
0x6e3952ca: ret ; (1 found)
0x6e395305: ret ; (1 found)
0x6e395309: ret ; (1 found)
0x6e395388: ret ; (1 found)
0x6e39538c: ret ; (1 found)
0x6e3953cd: ret ; (1 found)
0x6e3953d1: ret ; (1 found)
0x6e39540a: ret ; (1 found)
0x6e39540e: ret ; (1 found)
0x6e395456: ret ; (1 found)
0x6e3954bc: ret ; (1 found)
0x6e3954c0: ret ; (1 found)
0x6e3954fb: ret ; (1 found)
0x6e3954ff: ret ; (1 found)
0x6e39556a: ret ; (1 found)
0x6e39556e: ret ; (1 found)
0x6e3955ab: ret ; (1 found)
0x6e3955af: ret ; (1 found)
0x6e3955c3: ret ; (1 found)
0x6e39566f: ret ; (1 found)
0x6e395738: ret ; (1 found)
0x6e39573c: ret ; (1 found)
0x6e3957e8: ret ; (1 found)
0x6e3957ec: ret ; (1 found)
0x6e395827: ret ; (1 found)
0x6e39582b: ret ; (1 found)
0x6e39584d: ret ; (1 found)
0x6e39589c: ret ; (1 found)
0x6e3958a0: ret ; (1 found)
0x6e3958dd: ret ; (1 found)
0x6e3958e1: ret ; (1 found)
0x6e395960: ret ; (1 found)
0x6e39596e: ret ; (1 found)
0x6e395a0e: ret ; (1 found)
0x6e395a18: ret ; (1 found)
0x6e395b74: ret ; (1 found)
0x6e395c1b: ret ; (1 found)
0x6e395c68: ret ; (1 found)
0x6e395e6b: ret ; (1 found)
0x6e396172: ret ; (1 found)
0x6e39618c: ret ; (1 found)
0x6e396224: ret ; (1 found)
0x6e396476: ret ; (1 found)
0x6e39647a: ret ; (1 found)
0x6e396568: ret ; (1 found)
0x6e39656c: ret ; (1 found)
0x6e3965b9: ret ; (1 found)
0x6e3965bd: ret ; (1 found)
0x6e39665c: ret ; (1 found)
0x6e396660: ret ; (1 found)
0x6e39676b: ret ; (1 found)
0x6e39676f: ret ; (1 found)
0x6e396787: ret ; (1 found)
0x6e39683a: ret ; (1 found)
0x6e39683e: ret ; (1 found)
0x6e3968e0: ret ; (1 found)
0x6e3968fb: ret ; (1 found)
0x6e396a0b: ret ; (1 found)
0x6e396a78: ret ; (1 found)
0x6e396a86: ret ; (1 found)
0x6e396ae3: ret ; (1 found)
0x6e396b23: ret ; (1 found)
0x6e396b27: ret ; (1 found)
0x6e396b4e: ret ; (1 found)
0x6e396b52: ret ; (1 found)
0x6e396b95: ret ; (1 found)
0x6e396be3: ret ; (1 found)
0x6e396be7: ret ; (1 found)
0x6e396d1e: ret ; (1 found)
0x6e396f85: ret ; (1 found)
0x6e397003: ret ; (1 found)
0x6e39703a: ret ; (1 found)
0x6e39703e: ret ; (1 found)
0x6e397093: ret ; (1 found)
0x6e3972e9: ret ; (1 found)
0x6e39738b: ret ; (1 found)
0x6e3973b7: ret ; (1 found)
0x6e3973eb: ret ; (1 found)
0x6e3973ef: ret ; (1 found)
0x6e3976a7: ret ; (1 found)
0x6e3976dd: ret ; (1 found)
0x6e3976e1: ret ; (1 found)
0x6e397811: ret ; (1 found)
0x6e397871: ret ; (1 found)
0x6e3978ad: ret ; (1 found)
0x6e3978b1: ret ; (1 found)
0x6e397916: ret ; (1 found)
0x6e39794d: ret ; (1 found)
0x6e397b4b: ret ; (1 found)
0x6e397b58: ret ; (1 found)
0x6e397c27: ret ; (1 found)
0x6e397d97: ret ; (1 found)
0x6e397dbc: ret ; (1 found)
0x6e397e48: ret ; (1 found)
0x6e397ea1: ret ; (1 found)
0x6e397ebb: ret ; (1 found)
0x6e397f51: ret ; (1 found)
0x6e397f8f: ret ; (1 found)
0x6e397f93: ret ; (1 found)
0x6e39801b: ret ; (1 found)
0x6e3981b4: ret ; (1 found)
0x6e39830d: ret ; (1 found)
0x6e3983e0: ret ; (1 found)
0x6e3984f2: ret ; (1 found)
0x6e3984f6: ret ; (1 found)
0x6e398590: ret ; (1 found)
0x6e398594: ret ; (1 found)
0x6e3985c5: ret ; (1 found)
0x6e398654: ret ; (1 found)
0x6e398747: ret ; (1 found)
0x6e39874b: ret ; (1 found)
0x6e398858: ret ; (1 found)
0x6e398aca: ret ; (1 found)
0x6e398ae5: ret ; (1 found)
0x6e398b21: ret ; (1 found)
0x6e398bff: ret ; (1 found)
0x6e398c33: ret ; (1 found)
0x6e398cbb: ret ; (1 found)
0x6e398cd5: ret ; (1 found)
0x6e398cfb: ret ; (1 found)
0x6e398d12: ret ; (1 found)
0x6e398e4f: ret ; (1 found)
0x6e398fb8: ret ; (1 found)
0x6e39902d: ret ; (1 found)
0x6e399190: ret ; (1 found)
0x6e399194: ret ; (1 found)
0x6e39921d: ret ; (1 found)
0x6e3993c3: ret ; (1 found)
0x6e3994bb: ret ; (1 found)
0x6e399556: ret ; (1 found)
0x6e399935: ret ; (1 found)
0x6e399941: ret ; (1 found)
0x6e39997c: ret ; (1 found)
0x6e399d9a: ret ; (1 found)
0x6e399f13: ret ; (1 found)
0x6e399f81: ret ; (1 found)
0x6e399fb8: ret ; (1 found)
0x6e399fbc: ret ; (1 found)
0x6e39a028: ret ; (1 found)
0x6e39a181: ret ; (1 found)
0x6e39a186: ret ; (1 found)
0x6e39a19b: ret ; (1 found)
0x6e39a2f3: ret ; (1 found)
0x6e39a327: ret ; (1 found)
0x6e39a32b: ret ; (1 found)
0x6e39a741: ret ; (1 found)
0x6e39a984: ret ; (1 found)
0x6e39aa27: ret ; (1 found)
0x6e39aab6: ret ; (1 found)
0x6e39aaf3: ret ; (1 found)
0x6e39ab14: ret ; (1 found)
0x6e39ab2e: ret ; (1 found)
0x6e39ab32: ret ; (1 found)
0x6e39abe2: ret ; (1 found)
0x6e39ac09: ret ; (1 found)
0x6e39ac19: ret ; (1 found)
0x6e39acbf: ret ; (1 found)
0x6e39acc3: ret ; (1 found)
0x6e39acfa: ret ; (1 found)
0x6e39adca: ret ; (1 found)
0x6e39ae35: ret ; (1 found)
0x6e39ae3a: ret ; (1 found)
0x6e39af8c: ret ; (1 found)
0x6e39afc6: ret ; (1 found)
0x6e39b07d: ret ; (1 found)
0x6e39b1c7: ret ; (1 found)
0x6e39b1d6: ret ; (1 found)
0x6e39b244: ret ; (1 found)
0x6e39b3c5: ret ; (1 found)
0x6e39b7b2: ret ; (1 found)
0x6e39b7dc: ret ; (1 found)
0x6e39ba0b: ret ; (1 found)
0x6e39ba18: ret ; (1 found)
0x6e39bae7: ret ; (1 found)
0x6e39bc50: ret ; (1 found)
0x6e39bc80: ret ; (1 found)
0x6e39bd03: ret ; (1 found)
0x6e39bd5d: ret ; (1 found)
0x6e39bd61: ret ; (1 found)
0x6e39be11: ret ; (1 found)
0x6e39be4b: ret ; (1 found)
0x6e39be4f: ret ; (1 found)
0x6e39bed1: ret ; (1 found)
0x6e39c042: ret ; (1 found)
0x6e39c0ac: ret ; (1 found)
0x6e39c24c: ret ; (1 found)
0x6e39c410: ret ; (1 found)
0x6e39c414: ret ; (1 found)
0x6e39c445: ret ; (1 found)
0x6e39c5ca: ret ; (1 found)
0x6e39c5ce: ret ; (1 found)
0x6e39c74a: ret ; (1 found)
0x6e39c947: ret ; (1 found)
0x6e39cbd2: ret ; (1 found)
0x6e39cbd7: ret ; (1 found)
0x6e39cbf7: ret ; (1 found)
0x6e39cbfb: ret ; (1 found)
0x6e39cd52: ret ; (1 found)
0x6e39cf13: ret ; (1 found)
0x6e39cf1f: ret ; (1 found)
0x6e39cf23: ret ; (1 found)
0x6e39cf41: ret ; (1 found)
0x6e39cf45: ret ; (1 found)
0x6e39cf93: ret ; (1 found)
0x6e39d073: ret ; (1 found)
0x6e39d12f: ret ; (1 found)
0x6e39d2f5: ret ; (1 found)
0x6e39d44d: ret ; (1 found)
0x6e39d59b: ret ; (1 found)
0x6e39d59d: ret ; (1 found)
0x6e39d5b7: ret ; (1 found)
0x6e39d5ed: ret ; (1 found)
0x6e39d6dc: ret ; (1 found)
0x6e39d82a: ret ; (1 found)
0x6e39d9c3: ret ; (1 found)
0x6e39dad3: ret ; (1 found)
0x6e39dbc7: ret ; (1 found)
0x6e39ddf9: ret ; (1 found)
0x6e39ddfd: ret ; (1 found)
0x6e39df4c: ret ; (1 found)
0x6e39e3ed: ret ; (1 found)
0x6e39e41e: ret ; (1 found)
0x6e39e503: ret ; (1 found)
0x6e39e868: ret ; (1 found)
0x6e39e86c: ret ; (1 found)
0x6e39e891: ret ; (1 found)
0x6e39e983: ret ; (1 found)
0x6e39e9d6: ret ; (1 found)
0x6e39e9da: ret ; (1 found)
0x6e39ea3c: ret ; (1 found)
0x6e39ea8b: ret ; (1 found)
0x6e39ea8f: ret ; (1 found)
0x6e39eaef: ret ; (1 found)
0x6e39eb4c: ret ; (1 found)
0x6e39ebcd: ret ; (1 found)
0x6e39ec18: ret ; (1 found)
0x6e39ecff: ret ; (1 found)
0x6e39ed56: ret ; (1 found)
0x6e39ed5a: ret ; (1 found)
0x6e39edb3: ret ; (1 found)
0x6e39ee08: ret ; (1 found)
0x6e39ee0c: ret ; (1 found)
0x6e39ee91: ret ; (1 found)
0x6e39eeca: ret ; (1 found)
0x6e39eedb: ret ; (1 found)
0x6e39eedf: ret ; (1 found)
0x6e39ef31: ret ; (1 found)
0x6e39ef6a: ret ; (1 found)
0x6e39ef7d: ret ; (1 found)
0x6e39ef81: ret ; (1 found)
0x6e39f040: ret ; (1 found)
0x6e39f087: ret ; (1 found)
0x6e39f08b: ret ; (1 found)
0x6e39f0a0: ret ; (1 found)
0x6e39f0c9: ret ; (1 found)
0x6e39f100: ret ; (1 found)
0x6e39f1c8: ret ; (1 found)
0x6e39f229: ret ; (1 found)
0x6e39f278: ret ; (1 found)
0x6e39f2bc: ret ; (1 found)
0x6e39f2c0: ret ; (1 found)
0x6e39f36a: ret ; (1 found)
0x6e39f36e: ret ; (1 found)
0x6e39f423: ret ; (1 found)
0x6e39f768: ret ; (1 found)
0x6e39f88b: ret ; (1 found)
0x6e39f88f: ret ; (1 found)
0x6e39f8ce: ret ; (1 found)
0x6e39f8d2: ret ; (1 found)
0x6e39f901: ret ; (1 found)
0x6e39f96f: ret ; (1 found)
0x6e39fa5d: ret ; (1 found)
0x6e39fa97: ret ; (1 found)
0x6e39fb96: ret ; (1 found)
0x6e39fb9a: ret ; (1 found)
0x6e39fbd9: ret ; (1 found)
0x6e39fbdd: ret ; (1 found)
0x6e39fc61: ret ; (1 found)
0x6e39fcf8: ret ; (1 found)
0x6e39fcfc: ret ; (1 found)
0x6e39fd41: ret ; (1 found)
0x6e39fd45: ret ; (1 found)
0x6e39fd5c: ret ; (1 found)
0x6e39fd73: ret ; (1 found)
0x6e39fdec: ret ; (1 found)
0x6e39fdf0: ret ; (1 found)
0x6e39fe35: ret ; (1 found)
0x6e39fe39: ret ; (1 found)
0x6e39ff2d: ret ; (1 found)
0x6e39ff31: ret ; (1 found)
0x6e39ff6c: ret ; (1 found)
0x6e39ff70: ret ; (1 found)
0x6e39fffc: ret ; (1 found)
0x6e3a0000: ret ; (1 found)
0x6e3a0041: ret ; (1 found)
0x6e3a0045: ret ; (1 found)
0x6e3a015b: ret ; (1 found)
0x6e3a015f: ret ; (1 found)
0x6e3a029e: ret ; (1 found)
0x6e3a037a: ret ; (1 found)
0x6e3a037e: ret ; (1 found)
0x6e3a03ba: ret ; (1 found)
0x6e3a03be: ret ; (1 found)
0x6e3a03dc: ret ; (1 found)
0x6e3a045a: ret ; (1 found)
0x6e3a045e: ret ; (1 found)
0x6e3a049c: ret ; (1 found)
0x6e3a04a0: ret ; (1 found)
0x6e3a06f3: ret ; (1 found)
0x6e3a0854: ret ; (1 found)
0x6e3a09a8: ret ; (1 found)
0x6e3a09f6: ret ; (1 found)
0x6e3a09fa: ret ; (1 found)
0x6e3a0a5c: ret ; (1 found)
0x6e3a0aa8: ret ; (1 found)
0x6e3a0aac: ret ; (1 found)
0x6e3a0ba4: ret ; (1 found)
0x6e3a0bcd: ret ; (1 found)
0x6e3a0bd1: ret ; (1 found)
0x6e3a0c2f: ret ; (1 found)
0x6e3a0cd8: ret ; (1 found)
0x6e3a0d29: ret ; (1 found)
0x6e3a0d2d: ret ; (1 found)
0x6e3a0da3: ret ; (1 found)
0x6e3a0dfa: ret ; (1 found)
0x6e3a0dfe: ret ; (1 found)
0x6e3a0e5a: ret ; (1 found)
0x6e3a0e8f: ret ; (1 found)
0x6e3a0ea8: ret ; (1 found)
0x6e3a0efc: ret ; (1 found)
0x6e3a0f00: ret ; (1 found)
0x6e3a0f90: ret ; (1 found)
0x6e3a0f94: ret ; (1 found)
0x6e3a0fe7: ret ; (1 found)
0x6e3a1054: ret ; (1 found)
0x6e3a1116: ret ; (1 found)
0x6e3a111a: ret ; (1 found)
0x6e3a1172: ret ; (1 found)
0x6e3a1205: ret ; (1 found)
0x6e3a1209: ret ; (1 found)
0x6e3a1259: ret ; (1 found)
0x6e3a125d: ret ; (1 found)
0x6e3a12ae: ret ; (1 found)
0x6e3a12b2: ret ; (1 found)
0x6e3a13f4: ret ; (1 found)
0x6e3a154e: ret ; (1 found)
0x6e3a15be: ret ; (1 found)
0x6e3a1679: ret ; (1 found)
0x6e3a167d: ret ; (1 found)
0x6e3a16c4: ret ; (1 found)
0x6e3a16c8: ret ; (1 found)
0x6e3a17f3: ret ; (1 found)
0x6e3a183c: ret ; (1 found)
0x6e3a1840: ret ; (1 found)
0x6e3a1876: ret ; (1 found)
0x6e3a18bd: ret ; (1 found)
0x6e3a1916: ret ; (1 found)
0x6e3a191a: ret ; (1 found)
0x6e3a1969: ret ; (1 found)
0x6e3a196d: ret ; (1 found)
0x6e3a19e8: ret ; (1 found)
0x6e3a19ec: ret ; (1 found)
0x6e3a1a39: ret ; (1 found)
0x6e3a1a3d: ret ; (1 found)
0x6e3a1a55: ret ; (1 found)
0x6e3a1a70: ret ; (1 found)
0x6e3a1b38: ret ; (1 found)
0x6e3a1b3c: ret ; (1 found)
0x6e3a1b91: ret ; (1 found)
0x6e3a1b95: ret ; (1 found)
0x6e3a1c18: ret ; (1 found)
0x6e3a1c1c: ret ; (1 found)
0x6e3a1c67: ret ; (1 found)
0x6e3a1c6b: ret ; (1 found)
0x6e3a1cda: ret ; (1 found)
0x6e3a1cde: ret ; (1 found)
0x6e3a1d2b: ret ; (1 found)
0x6e3a1d2f: ret ; (1 found)
0x6e3a1d94: ret ; (1 found)
0x6e3a1ddc: ret ; (1 found)
0x6e3a1de0: ret ; (1 found)
0x6e3a1e91: ret ; (1 found)
0x6e3a1f18: ret ; (1 found)
0x6e3a1f1c: ret ; (1 found)
0x6e3a1f61: ret ; (1 found)
0x6e3a1f65: ret ; (1 found)
0x6e3a1f85: ret ; (1 found)
0x6e3a1fda: ret ; (1 found)
0x6e3a1fde: ret ; (1 found)
0x6e3a2021: ret ; (1 found)
0x6e3a2025: ret ; (1 found)
0x6e3a2057: ret ; (1 found)
0x6e3a2127: ret ; (1 found)
0x6e3a2134: ret ; (1 found)
0x6e3a244a: ret ; (1 found)
0x6e3a2594: ret ; (1 found)
0x6e3a2602: ret ; (1 found)
0x6e3a2649: ret ; (1 found)
0x6e3a26c5: ret ; (1 found)
0x6e3a26d7: ret ; (1 found)
0x6e3a286f: ret ; (1 found)
0x6e3a2af0: ret ; (1 found)
0x6e3a2af4: ret ; (1 found)
0x6e3a2ba7: ret ; (1 found)
0x6e3a2d39: ret ; (1 found)
0x6e3a2da6: ret ; (1 found)
0x6e3a2eda: ret ; (1 found)
0x6e3a2ede: ret ; (1 found)
0x6e3a2f19: ret ; (1 found)
0x6e3a2f87: ret ; (1 found)
0x6e3a30a8: ret ; (1 found)
0x6e3a30ac: ret ; (1 found)
0x6e3a30e7: ret ; (1 found)
0x6e3a3155: ret ; (1 found)
0x6e3a3258: ret ; (1 found)
0x6e3a325c: ret ; (1 found)
0x6e3a3297: ret ; (1 found)
0x6e3a3305: ret ; (1 found)
0x6e3a3342: ret ; (1 found)
0x6e3a334e: ret ; (1 found)
0x6e3a34c4: ret ; (1 found)
0x6e3a34c8: ret ; (1 found)
0x6e3a3646: ret ; (1 found)
0x6e3a364a: ret ; (1 found)
0x6e3a3685: ret ; (1 found)
0x6e3a36f5: ret ; (1 found)
0x6e3a3808: ret ; (1 found)
0x6e3a380c: ret ; (1 found)
0x6e3a3847: ret ; (1 found)
0x6e3a38b5: ret ; (1 found)
0x6e3a3949: ret ; (1 found)
0x6e3a397e: ret ; (1 found)
0x6e3a3991: ret ; (1 found)
0x6e3a39bc: ret ; (1 found)
0x6e3a39eb: ret ; (1 found)
0x6e3a3a1f: ret ; (1 found)
0x6e3a3a25: ret ; (1 found)
0x6e3a3a4a: ret ; (1 found)
0x6e3a3a91: ret ; (1 found)
0x6e3a3afe: ret ; (1 found)
0x6e3a3c39: ret ; (1 found)
0x6e3a3c72: ret ; (1 found)
0x6e3a3c84: ret ; (1 found)
0x6e3a3c94: ret ; (1 found)
0x6e3a3d35: ret ; (1 found)
0x6e3a3d42: ret ; (1 found)
0x6e3a3dec: ret ; (1 found)
0x6e3a3e49: ret ; (1 found)
0x6e3a3eed: ret ; (1 found)
0x6e3a3f47: ret ; (1 found)
0x6e3a3f5b: ret ; (1 found)
0x6e3a3f91: ret ; (1 found)
0x6e3a4019: ret ; (1 found)
0x6e3a4064: ret ; (1 found)
0x6e3a416c: ret ; (1 found)
0x6e3a4179: ret ; (1 found)
0x6e3a419b: ret ; (1 found)
0x6e3a41df: ret ; (1 found)
0x6e3a4207: ret ; (1 found)
0x6e3a4257: ret ; (1 found)
0x6e3a42b4: ret ; (1 found)
0x6e3a42ff: ret ; (1 found)
0x6e3a433d: ret ; (1 found)
0x6e3a434c: ret ; (1 found)
0x6e3a435d: ret ; (1 found)
0x6e3a43ac: ret ; (1 found)
0x6e3a43de: ret ; (1 found)
0x6e3a4414: ret ; (1 found)
0x6e3a443d: ret ; (1 found)
0x6e3a444b: ret ; (1 found)
0x6e3a4467: ret ; (1 found)
0x6e3a449b: ret ; (1 found)
0x6e3a449f: ret ; (1 found)
0x6e3a44ae: ret ; (1 found)
0x6e3a44ca: ret ; (1 found)
0x6e3a44e7: ret ; (1 found)
0x6e3a453d: ret ; (1 found)
0x6e3a4546: ret ; (1 found)
0x6e3a4561: ret ; (1 found)
0x6e3a4579: ret ; (1 found)
0x6e3a458d: ret ; (1 found)
0x6e3a45c9: ret ; (1 found)
0x6e3a45ff: ret ; (1 found)
0x6e3a4632: ret ; (1 found)
0x6e3a4669: ret ; (1 found)
0x6e3a467a: ret ; (1 found)
0x6e3a46a9: ret ; (1 found)
0x6e3a4709: ret ; (1 found)
0x6e3a4735: ret ; (1 found)
0x6e3a47a5: ret ; (1 found)
0x6e3a47c9: ret ; (1 found)
0x6e3a48ca: ret ; (1 found)
0x6e3a493a: ret ; (1 found)
0x6e3a4978: ret ; (1 found)
0x6e38639a: retn 0x0000 ; (1 found)
0x6e38a49b: retn 0x0000 ; (1 found)
0x6e38ba2d: retn 0x0000 ; (1 found)
0x6e3842e2: retn 0x0001 ; (1 found)
0x6e39889a: retn 0x0002 ; (1 found)
0x6e3810b4: retn 0x000C ; (1 found)
0x6e38116c: retn 0x000C ; (1 found)
0x6e3811f1: retn 0x000C ; (1 found)
0x6e381436: retn 0x000C ; (1 found)
0x6e3a3bb8: retn 0x000C ; (1 found)
0x6e3a3be0: retn 0x000C ; (1 found)
0x6e3a3c1e: retn 0x000C ; (1 found)
0x6e3a3c4c: retn 0x000C ; (1 found)
0x6e3a46b5: retn 0x000C ; (1 found)
0x6e3a46c5: retn 0x000C ; (1 found)
0x6e381733: retn 0x0101 ; (1 found)
0x6e386bc7: retn 0x0101 ; (1 found)
0x6e387f58: retn 0x0101 ; (1 found)
0x6e388724: retn 0x0101 ; (1 found)
0x6e388af3: retn 0x0101 ; (1 found)
0x6e388f13: retn 0x0101 ; (1 found)
0x6e389477: retn 0x0101 ; (1 found)
0x6e38ced7: retn 0x0101 ; (1 found)
0x6e38d000: retn 0x0101 ; (1 found)
0x6e391e42: retn 0x0101 ; (1 found)
0x6e392b3d: retn 0x0101 ; (1 found)
0x6e392e89: retn 0x0101 ; (1 found)
0x6e3998f6: retn 0x0101 ; (1 found)
0x6e39dbb2: retn 0x0101 ; (1 found)
0x6e38c496: retn 0x0108 ; (1 found)
0x6e394427: retn 0x0110 ; (1 found)
0x6e395626: retn 0x0110 ; (1 found)
0x6e399c7d: retn 0x0110 ; (1 found)
0x6e39e0ac: retn 0x0110 ; (1 found)
0x6e3888bf: retn 0x01B8 ; (1 found)
0x6e38908c: retn 0x01B8 ; (1 found)
0x6e3943c7: retn 0x01B8 ; (1 found)
0x6e399753: retn 0x01B9 ; (1 found)
0x6e39db5a: retn 0x01BA ; (1 found)
0x6e39e3c6: retn 0x02DD ; (1 found)
0x6e382267: retn 0x0301 ; (1 found)
0x6e386e15: retn 0x0301 ; (1 found)
0x6e3892d2: retn 0x0301 ; (1 found)
0x6e39ec48: retn 0x0301 ; (1 found)
0x6e38eb49: retn 0x03DD ; (1 found)
0x6e381604: retn 0x048D ; (1 found)
0x6e381ac0: retn 0x048D ; (1 found)
0x6e384604: retn 0x048D ; (1 found)
0x6e3857be: retn 0x048D ; (1 found)
0x6e385b66: retn 0x048D ; (1 found)
0x6e391bb5: retn 0x048D ; (1 found)
0x6e387439: retn 0x04DD ; (1 found)
0x6e38782a: retn 0x04DD ; (1 found)
0x6e38b846: retn 0x04DD ; (1 found)
0x6e38f7b8: retn 0x04DD ; (1 found)
0x6e38a7b0: retn 0x0674 ; (1 found)
0x6e38f166: retn 0x0739 ; (1 found)
0x6e3a24f5: retn 0x0739 ; (1 found)
0x6e382b12: retn 0x0CDC ; (1 found)
0x6e385eac: retn 0x0CDC ; (1 found)
0x6e386031: retn 0x0CDC ; (1 found)
0x6e387dc2: retn 0x0CDC ; (1 found)
0x6e39ed29: retn 0x148D ; (1 found)
0x6e39eddd: retn 0x148D ; (1 found)
0x6e389197: retn 0x197C ; (1 found)
0x6e38326c: retn 0x1CDD ; (1 found)
0x6e383318: retn 0x1CDD ; (1 found)
0x6e385c87: retn 0x1CDD ; (1 found)
0x6e385ea9: retn 0x1CDD ; (1 found)
0x6e38602e: retn 0x1CDD ; (1 found)
0x6e386110: retn 0x1CDD ; (1 found)
0x6e386b21: retn 0x1CDD ; (1 found)
0x6e38a947: retn 0x1CDD ; (1 found)
0x6e38aa87: retn 0x1CDD ; (1 found)
0x6e38ad3c: retn 0x1CDD ; (1 found)
0x6e38ae77: retn 0x1CDD ; (1 found)
0x6e38c0a7: retn 0x1CDD ; (1 found)
0x6e38c237: retn 0x1CDD ; (1 found)
0x6e38c6a3: retn 0x1CDD ; (1 found)
0x6e3a1d91: retn 0x2910 ; (1 found)
0x6e3887df: retn 0x2E7C ; (1 found)
0x6e3886bb: retn 0x327F ; (1 found)
0x6e3821ad: retn 0x3901 ; (1 found)
0x6e384fcf: retn 0x3901 ; (1 found)
0x6e3850b1: retn 0x3901 ; (1 found)
0x6e38515e: retn 0x3901 ; (1 found)
0x6e385189: retn 0x3901 ; (1 found)
0x6e385f4e: retn 0x3901 ; (1 found)
0x6e386415: retn 0x3901 ; (1 found)
0x6e38650d: retn 0x3901 ; (1 found)
0x6e386864: retn 0x3901 ; (1 found)
0x6e386b7e: retn 0x3901 ; (1 found)
0x6e387015: retn 0x3901 ; (1 found)
0x6e389a9f: retn 0x3901 ; (1 found)
0x6e38a1a8: retn 0x3901 ; (1 found)
0x6e38be8d: retn 0x3901 ; (1 found)
0x6e38c369: retn 0x3901 ; (1 found)
0x6e38c3aa: retn 0x3901 ; (1 found)
0x6e38c77d: retn 0x3901 ; (1 found)
0x6e38d034: retn 0x3901 ; (1 found)
0x6e399630: retn 0x3901 ; (1 found)
0x6e3a3d38: retn 0x390C ; (1 found)
0x6e3893aa: retn 0x3910 ; (1 found)
0x6e38d2e6: retn 0x3910 ; (1 found)
0x6e398cab: retn 0x3910 ; (1 found)
0x6e3a4531: retn 0x3928 ; (1 found)
0x6e388c93: retn 0x3A60 ; (1 found)
0x6e38451a: retn 0x3B01 ; (1 found)
0x6e384de7: retn 0x3B01 ; (1 found)
0x6e387832: retn 0x3B01 ; (1 found)
0x6e3880bb: retn 0x3B01 ; (1 found)
0x6e38bd39: retn 0x3B01 ; (1 found)
0x6e38f464: retn 0x41DD ; (1 found)
0x6e39b406: retn 0x41DD ; (1 found)
0x6e3a4239: retn 0x428B ; (1 found)
0x6e395640: retn 0x42DD ; (1 found)
0x6e39570d: retn 0x42DD ; (1 found)
0x6e396930: retn 0x42DD ; (1 found)
0x6e3a34b3: retn 0x42DD ; (1 found)
0x6e38194b: retn 0x4403 ; (1 found)
0x6e38e704: retn 0x440F ; (1 found)
0x6e38e96d: retn 0x440F ; (1 found)
0x6e395f25: retn 0x440F ; (1 found)
0x6e396e55: retn 0x440F ; (1 found)
0x6e397138: retn 0x440F ; (1 found)
0x6e397181: retn 0x440F ; (1 found)
0x6e3983b7: retn 0x440F ; (1 found)
0x6e39ae14: retn 0x440F ; (1 found)
0x6e39c22a: retn 0x440F ; (1 found)
0x6e39cd02: retn 0x440F ; (1 found)
0x6e39d9be: retn 0x440F ; (1 found)
0x6e39dcc3: retn 0x440F ; (1 found)
0x6e39b179: retn 0x4483 ; (1 found)
0x6e38866b: retn 0x4489 ; (1 found)
0x6e388e91: retn 0x4489 ; (1 found)
0x6e38a846: retn 0x4489 ; (1 found)
0x6e3905ac: retn 0x4489 ; (1 found)
0x6e3923b4: retn 0x4489 ; (1 found)
0x6e39511a: retn 0x4489 ; (1 found)
0x6e39eb5e: retn 0x4489 ; (1 found)
0x6e38460b: retn 0x448B ; (1 found)
0x6e389218: retn 0x448B ; (1 found)
0x6e389a20: retn 0x448B ; (1 found)
0x6e389aec: retn 0x448B ; (1 found)
0x6e38ade0: retn 0x448B ; (1 found)
0x6e39437b: retn 0x448B ; (1 found)
0x6e396405: retn 0x448B ; (1 found)
0x6e39bfe9: retn 0x448B ; (1 found)
0x6e39ddb0: retn 0x448B ; (1 found)
0x6e39e015: retn 0x448B ; (1 found)
0x6e3a2e94: retn 0x448B ; (1 found)
0x6e3a3064: retn 0x448B ; (1 found)
0x6e3a3606: retn 0x448B ; (1 found)
0x6e3a37bb: retn 0x448B ; (1 found)
0x6e388a04: retn 0x448D ; (1 found)
0x6e397686: retn 0x44C7 ; (1 found)
0x6e38f842: retn 0x44DD ; (1 found)
0x6e38ffe7: retn 0x44DD ; (1 found)
0x6e390402: retn 0x44DD ; (1 found)
0x6e397ff3: retn 0x44DD ; (1 found)
0x6e39824d: retn 0x44DD ; (1 found)
0x6e3982da: retn 0x44DD ; (1 found)
0x6e398311: retn 0x44DD ; (1 found)
0x6e39afff: retn 0x44DD ; (1 found)
0x6e39b6c9: retn 0x44DD ; (1 found)
0x6e39bd88: retn 0x44DD ; (1 found)
0x6e39c0d5: retn 0x44DD ; (1 found)
0x6e39d03c: retn 0x44DD ; (1 found)
0x6e38e6a5: retn 0x450F ; (1 found)
0x6e38e6f0: retn 0x450F ; (1 found)
0x6e38e959: retn 0x450F ; (1 found)
0x6e38e99c: retn 0x450F ; (1 found)
0x6e38e9b1: retn 0x450F ; (1 found)
0x6e38ec4e: retn 0x450F ; (1 found)
0x6e38ec60: retn 0x450F ; (1 found)
0x6e393d2c: retn 0x450F ; (1 found)
0x6e393d40: retn 0x450F ; (1 found)
0x6e393e94: retn 0x450F ; (1 found)
0x6e393ea8: retn 0x450F ; (1 found)
0x6e395ee7: retn 0x450F ; (1 found)
0x6e395ef7: retn 0x450F ; (1 found)
0x6e395f11: retn 0x450F ; (1 found)
0x6e396df6: retn 0x450F ; (1 found)
0x6e396e41: retn 0x450F ; (1 found)
0x6e397124: retn 0x450F ; (1 found)
0x6e39716c: retn 0x450F ; (1 found)
0x6e3974ae: retn 0x450F ; (1 found)
0x6e3974c0: retn 0x450F ; (1 found)
0x6e39813a: retn 0x450F ; (1 found)
0x6e39a3fb: retn 0x450F ; (1 found)
0x6e39a40d: retn 0x450F ; (1 found)
0x6e39ae02: retn 0x450F ; (1 found)
0x6e39bfd0: retn 0x450F ; (1 found)
0x6e39c21c: retn 0x450F ; (1 found)
0x6e39ccea: retn 0x450F ; (1 found)
0x6e39ce94: retn 0x450F ; (1 found)
0x6e39d483: retn 0x450F ; (1 found)
0x6e39dc3d: retn 0x450F ; (1 found)
0x6e39dcab: retn 0x450F ; (1 found)
0x6e39dd99: retn 0x450F ; (1 found)
0x6e3a2ca6: retn 0x450F ; (1 found)
0x6e3a2e7d: retn 0x450F ; (1 found)
0x6e3a304d: retn 0x450F ; (1 found)
0x6e3a3208: retn 0x450F ; (1 found)
0x6e3a35ef: retn 0x450F ; (1 found)
0x6e3a37a4: retn 0x450F ; (1 found)
0x6e3885cc: retn 0x458D ; (1 found)
0x6e388fed: retn 0x458D ; (1 found)
0x6e38e696: retn 0x45DD ; (1 found)
0x6e398727: retn 0x467E ; (1 found)
0x6e39c5aa: retn 0x467E ; (1 found)
0x6e39c9a7: retn 0x480F ; (1 found)
0x6e39da5f: retn 0x480F ; (1 found)
0x6e38adaa: retn 0x4C89 ; (1 found)
0x6e383042: retn 0x4CDC ; (1 found)
0x6e387433: retn 0x4CDC ; (1 found)
0x6e38b681: retn 0x4CDC ; (1 found)
0x6e3886b3: retn 0x4E0F ; (1 found)
0x6e388ecd: retn 0x4E0F ; (1 found)
0x6e3a46f5: retn 0x4F74 ; (1 found)
0x6e38160d: retn 0x5074 ; (1 found)
0x6e39856d: retn 0x507E ; (1 found)
0x6e39c3ed: retn 0x507E ; (1 found)
0x6e3886b6: retn 0x518D ; (1 found)
0x6e3887da: retn 0x518D ; (1 found)
0x6e388ed0: retn 0x518D ; (1 found)
0x6e389192: retn 0x518D ; (1 found)
0x6e38a0e2: retn 0x5489 ; (1 found)
0x6e39f6dc: retn 0x5489 ; (1 found)
0x6e3a01c2: retn 0x5489 ; (1 found)
0x6e3a2cbd: retn 0x5489 ; (1 found)
0x6e3a321f: retn 0x5489 ; (1 found)
0x6e381ed3: retn 0x548B ; (1 found)
0x6e38c528: retn 0x548B ; (1 found)
0x6e38c69a: retn 0x548B ; (1 found)
0x6e391c44: retn 0x548B ; (1 found)
0x6e39d24b: retn 0x548B ; (1 found)
0x6e39db6d: retn 0x548B ; (1 found)
0x6e39e00b: retn 0x548B ; (1 found)
0x6e39c22d: retn 0x568D ; (1 found)
0x6e382baa: retn 0x588D ; (1 found)
0x6e383960: retn 0x5CDD ; (1 found)
0x6e38ee47: retn 0x5CDD ; (1 found)
0x6e38382d: retn 0x5DDD ; (1 found)
0x6e396316: retn 0x688D ; (1 found)
0x6e38c507: retn 0x6C89 ; (1 found)
0x6e382cdd: retn 0x708D ; (1 found)
0x6e384b85: retn 0x768D ; (1 found)
0x6e396b35: retn 0x768D ; (1 found)
0x6e3a2ad5: retn 0x768D ; (1 found)
0x6e38235f: retn 0x788D ; (1 found)
0x6e386c3b: retn 0x788D ; (1 found)
0x6e392968: retn 0x788D ; (1 found)
0x6e38657e: retn 0x7C39 ; (1 found)
0x6e391da3: retn 0x7C89 ; (1 found)
0x6e38d0e3: retn 0x8301 ; (1 found)
0x6e38d833: retn 0x8301 ; (1 found)
0x6e390146: retn 0x8301 ; (1 found)
0x6e3904c4: retn 0x8301 ; (1 found)
0x6e390b97: retn 0x8301 ; (1 found)
0x6e390d43: retn 0x8301 ; (1 found)
0x6e391604: retn 0x8301 ; (1 found)
0x6e391fa9: retn 0x8301 ; (1 found)
0x6e392217: retn 0x8301 ; (1 found)
0x6e392265: retn 0x8301 ; (1 found)
0x6e3938c5: retn 0x8301 ; (1 found)
0x6e3939e4: retn 0x8301 ; (1 found)
0x6e393ce4: retn 0x8301 ; (1 found)
0x6e393e44: retn 0x8301 ; (1 found)
0x6e393fc6: retn 0x8301 ; (1 found)
0x6e3940f4: retn 0x8301 ; (1 found)
0x6e394474: retn 0x8301 ; (1 found)
0x6e3944e4: retn 0x8301 ; (1 found)
0x6e396653: retn 0x8301 ; (1 found)
0x6e399404: retn 0x8301 ; (1 found)
0x6e3994a7: retn 0x8301 ; (1 found)
0x6e3995b9: retn 0x8301 ; (1 found)
0x6e399a94: retn 0x8301 ; (1 found)
0x6e399b0d: retn 0x8301 ; (1 found)
0x6e39cca9: retn 0x8301 ; (1 found)
0x6e39d0c4: retn 0x8301 ; (1 found)
0x6e39d680: retn 0x8301 ; (1 found)
0x6e39dde7: retn 0x8301 ; (1 found)
0x6e39df04: retn 0x8301 ; (1 found)
0x6e39e2d4: retn 0x8301 ; (1 found)
0x6e39e363: retn 0x8301 ; (1 found)
0x6e39f90a: retn 0x8301 ; (1 found)
0x6e39f9aa: retn 0x8301 ; (1 found)
0x6e3a27b4: retn 0x8301 ; (1 found)
0x6e3a2a54: retn 0x8301 ; (1 found)
0x6e3a2bc4: retn 0x8301 ; (1 found)
0x6e3a3434: retn 0x8301 ; (1 found)
0x6e388a52: retn 0x8308 ; (1 found)
0x6e38ee5b: retn 0x8310 ; (1 found)
0x6e38efab: retn 0x8310 ; (1 found)
0x6e38f91c: retn 0x8310 ; (1 found)
0x6e3902ee: retn 0x8310 ; (1 found)
0x6e391eb9: retn 0x8310 ; (1 found)
0x6e3922f0: retn 0x8310 ; (1 found)
0x6e394858: retn 0x8310 ; (1 found)
0x6e394a1d: retn 0x8310 ; (1 found)
0x6e395c87: retn 0x8310 ; (1 found)
0x6e39675a: retn 0x8310 ; (1 found)
0x6e396827: retn 0x8310 ; (1 found)
0x6e3976a4: retn 0x8310 ; (1 found)
0x6e397f57: retn 0x8310 ; (1 found)
0x6e3981ba: retn 0x8310 ; (1 found)
0x6e39996f: retn 0x8310 ; (1 found)
0x6e39ac16: retn 0x8310 ; (1 found)
0x6e39b3cb: retn 0x8310 ; (1 found)
0x6e39be17: retn 0x8310 ; (1 found)
0x6e39c048: retn 0x8310 ; (1 found)
0x6e39cf0d: retn 0x8310 ; (1 found)
0x6e3a0369: retn 0x8310 ; (1 found)
0x6e3a0447: retn 0x8310 ; (1 found)
0x6e3a1101: retn 0x8310 ; (1 found)
0x6e3a129b: retn 0x8310 ; (1 found)
0x6e3a1f07: retn 0x8310 ; (1 found)
0x6e3a1fc7: retn 0x8310 ; (1 found)
0x6e381956: retn 0x8338 ; (1 found)
0x6e385614: retn 0x83F0 ; (1 found)
0x6e383572: retn 0x83F8 ; (1 found)
0x6e3853bb: retn 0x83F8 ; (1 found)
0x6e385524: retn 0x83F8 ; (1 found)
0x6e381ac7: retn 0x840F ; (1 found)
0x6e3857c5: retn 0x840F ; (1 found)
0x6e38ef7e: retn 0x840F ; (1 found)
0x6e398193: retn 0x840F ; (1 found)
0x6e399166: retn 0x840F ; (1 found)
0x6e39c021: retn 0x840F ; (1 found)
0x6e398156: retn 0x848B ; (1 found)
0x6e3995fb: retn 0x848B ; (1 found)
0x6e39ceae: retn 0x848B ; (1 found)
0x6e3818da: retn 0x8501 ; (1 found)
0x6e381a86: retn 0x8501 ; (1 found)
0x6e385786: retn 0x8501 ; (1 found)
0x6e38d4e2: retn 0x8501 ; (1 found)
0x6e390e06: retn 0x8501 ; (1 found)
0x6e395c36: retn 0x8501 ; (1 found)
0x6e39d49b: retn 0x850F ; (1 found)
0x6e39db73: retn 0x850F ; (1 found)
0x6e384d77: retn 0x8901 ; (1 found)
0x6e3864cb: retn 0x8901 ; (1 found)
0x6e3867a0: retn 0x8901 ; (1 found)
0x6e3877b7: retn 0x8901 ; (1 found)
0x6e38805e: retn 0x8901 ; (1 found)
0x6e39d25d: retn 0x8901 ; (1 found)
0x6e39eebd: retn 0x8901 ; (1 found)
0x6e39ef5d: retn 0x8901 ; (1 found)
0x6e395185: retn 0x8B01 ; (1 found)
0x6e39b588: retn 0x8B10 ; (1 found)
0x6e39d2a0: retn 0x8B10 ; (1 found)
0x6e39e417: retn 0x8B10 ; (1 found)
0x6e3a4644: retn 0x8B14 ; (1 found)
0x6e38e407: retn 0x8D90 ; (1 found)
0x6e38e4c7: retn 0x8D90 ; (1 found)
0x6e39e237: retn 0x8D90 ; (1 found)
0x6e38cfad: retn 0x9066 ; (1 found)
0x6e38dead: retn 0x9066 ; (1 found)
0x6e3817c1: retn 0x907E ; (1 found)
0x6e38a057: retn 0x98EB ; (1 found)
0x6e39219f: retn 0xA0E9 ; (1 found)
0x6e39090a: retn 0xA275 ; (1 found)
0x6e38eeaa: retn 0xA575 ; (1 found)
0x6e39a65d: retn 0xA575 ; (1 found)
0x6e38e521: retn 0xAF0F ; (1 found)
0x6e38ea16: retn 0xAF0F ; (1 found)
0x6e38ea36: retn 0xAF0F ; (1 found)
0x6e396c51: retn 0xAF0F ; (1 found)
0x6e3971e6: retn 0xAF0F ; (1 found)
0x6e397206: retn 0xAF0F ; (1 found)
0x6e382302: retn 0xB60F ; (1 found)
0x6e38b24a: retn 0xB60F ; (1 found)
0x6e38d2a4: retn 0xB810 ; (1 found)
0x6e3818a8: retn 0xB8F8 ; (1 found)
0x6e381a41: retn 0xB8F8 ; (1 found)
0x6e38574b: retn 0xB8F8 ; (1 found)
0x6e38dfdf: retn 0xB901 ; (1 found)
0x6e394625: retn 0xB901 ; (1 found)
0x6e38ed83: retn 0xBD10 ; (1 found)
0x6e397c98: retn 0xBE01 ; (1 found)
0x6e39bb58: retn 0xBE01 ; (1 found)
0x6e382940: retn 0xBF01 ; (1 found)
0x6e38dd63: retn 0xBF01 ; (1 found)
0x6e382e32: retn 0xC083 ; (1 found)
0x6e38326f: retn 0xC083 ; (1 found)
0x6e38331b: retn 0xC083 ; (1 found)
0x6e385c3b: retn 0xC083 ; (1 found)
0x6e385c8a: retn 0xC083 ; (1 found)
0x6e385d20: retn 0xC083 ; (1 found)
0x6e386113: retn 0xC083 ; (1 found)
0x6e386b24: retn 0xC083 ; (1 found)
0x6e38750c: retn 0xC083 ; (1 found)
0x6e387a73: retn 0xC083 ; (1 found)
0x6e387e77: retn 0xC083 ; (1 found)
0x6e38a94a: retn 0xC083 ; (1 found)
0x6e38aa8a: retn 0xC083 ; (1 found)
0x6e38ad3f: retn 0xC083 ; (1 found)
0x6e38ae7a: retn 0xC083 ; (1 found)
0x6e38c06a: retn 0xC083 ; (1 found)
0x6e38c0aa: retn 0xC083 ; (1 found)
0x6e38c107: retn 0xC083 ; (1 found)
0x6e38c23a: retn 0xC083 ; (1 found)
0x6e38c575: retn 0xC083 ; (1 found)
0x6e38c584: retn 0xC083 ; (1 found)
0x6e38c6a6: retn 0xC083 ; (1 found)
0x6e38362f: retn 0xC085 ; (1 found)
0x6e387f24: retn 0xC085 ; (1 found)
0x6e38d9f1: retn 0xC085 ; (1 found)
0x6e38da01: retn 0xC085 ; (1 found)
0x6e38da1b: retn 0xC085 ; (1 found)
0x6e38da36: retn 0xC085 ; (1 found)
0x6e38db35: retn 0xC085 ; (1 found)
0x6e3919b1: retn 0xC085 ; (1 found)
0x6e3919c5: retn 0xC085 ; (1 found)
0x6e391d06: retn 0xC085 ; (1 found)
0x6e391d1a: retn 0xC085 ; (1 found)
0x6e395f28: retn 0xC085 ; (1 found)
0x6e396045: retn 0xC085 ; (1 found)
0x6e3965eb: retn 0xC085 ; (1 found)
0x6e3965f9: retn 0xC085 ; (1 found)
0x6e39913c: retn 0xC085 ; (1 found)
0x6e39cd05: retn 0xC085 ; (1 found)
0x6e39d995: retn 0xC085 ; (1 found)
0x6e39dcc6: retn 0xC085 ; (1 found)
0x6e39f5e2: retn 0xC085 ; (1 found)
0x6e394acd: retn 0xC0D9 ; (1 found)
0x6e394aee: retn 0xC0D9 ; (1 found)
0x6e395669: retn 0xC0D9 ; (1 found)
0x6e395abc: retn 0xC0D9 ; (1 found)
0x6e39f762: retn 0xC0D9 ; (1 found)
0x6e39fa57: retn 0xC0D9 ; (1 found)
0x6e3a0298: retn 0xC0D9 ; (1 found)
0x6e3a15b8: retn 0xC0D9 ; (1 found)
0x6e3a1e8b: retn 0xC0D9 ; (1 found)
0x6e3a218a: retn 0xC0D9 ; (1 found)
0x6e38df2f: retn 0xC101 ; (1 found)
0x6e3992bc: retn 0xC101 ; (1 found)
0x6e3a092c: retn 0xC189 ; (1 found)
0x6e3946d3: retn 0xC1D8 ; (1 found)
0x6e394716: retn 0xC1D8 ; (1 found)
0x6e38edea: retn 0xC1D9 ; (1 found)
0x6e39a599: retn 0xC1D9 ; (1 found)
0x6e39c342: retn 0xC1D9 ; (1 found)
0x6e38cffa: retn 0xC1DA ; (1 found)
0x6e38d02e: retn 0xC1DA ; (1 found)
0x6e38eb1d: retn 0xC1DE ; (1 found)
0x6e38edba: retn 0xC1DE ; (1 found)
0x6e390437: retn 0xC1DE ; (1 found)
0x6e390449: retn 0xC1DE ; (1 found)
0x6e397eda: retn 0xC1DE ; (1 found)
0x6e39a55c: retn 0xC1DE ; (1 found)
0x6e39c1a5: retn 0xC1DE ; (1 found)
0x6e39d33e: retn 0xC1DE ; (1 found)
0x6e39d70f: retn 0xC1DE ; (1 found)
0x6e39e342: retn 0xC1DE ; (1 found)
0x6e3947e1: retn 0xC2D9 ; (1 found)
0x6e394a83: retn 0xC2D9 ; (1 found)
0x6e3959b1: retn 0xC2D9 ; (1 found)
0x6e3959d6: retn 0xC2D9 ; (1 found)
0x6e395a55: retn 0xC2D9 ; (1 found)
0x6e395a78: retn 0xC2D9 ; (1 found)
0x6e395a9b: retn 0xC2D9 ; (1 found)
0x6e395b02: retn 0xC2D9 ; (1 found)
0x6e39b779: retn 0xC2D9 ; (1 found)
0x6e3a04bb: retn 0xC2D9 ; (1 found)
0x6e3a04de: retn 0xC2D9 ; (1 found)
0x6e3a0501: retn 0xC2D9 ; (1 found)
0x6e3a0547: retn 0xC2D9 ; (1 found)
0x6e3a208b: retn 0xC2D9 ; (1 found)
0x6e3a20ae: retn 0xC2D9 ; (1 found)
0x6e3a20d3: retn 0xC2D9 ; (1 found)
0x6e3a20f6: retn 0xC2D9 ; (1 found)
0x6e3a21d0: retn 0xC2D9 ; (1 found)
0x6e3860c9: retn 0xC2DE ; (1 found)
0x6e393f01: retn 0xC389 ; (1 found)
0x6e393b75: retn 0xC3D9 ; (1 found)
0x6e394295: retn 0xC3D9 ; (1 found)
0x6e395014: retn 0xC3D9 ; (1 found)
0x6e3951e9: retn 0xC3D9 ; (1 found)
0x6e395303: retn 0xC3D9 ; (1 found)
0x6e395408: retn 0xC3D9 ; (1 found)
0x6e3954f9: retn 0xC3D9 ; (1 found)
0x6e395736: retn 0xC3D9 ; (1 found)
0x6e395825: retn 0xC3D9 ; (1 found)
0x6e39f8cc: retn 0xC3D9 ; (1 found)
0x6e39fbd7: retn 0xC3D9 ; (1 found)
0x6e39ff6a: retn 0xC3D9 ; (1 found)
0x6e3a0159: retn 0xC3D9 ; (1 found)
0x6e3a03b8: retn 0xC3D9 ; (1 found)
0x6e3a16c2: retn 0xC3D9 ; (1 found)
0x6e3a183a: retn 0xC3D9 ; (1 found)
0x6e3a1967: retn 0xC3D9 ; (1 found)
0x6e3a1c65: retn 0xC3D9 ; (1 found)
0x6e3a1dda: retn 0xC3D9 ; (1 found)
0x6e3a1f5f: retn 0xC3D9 ; (1 found)
0x6e3983ba: retn 0xC683 ; (1 found)
0x6e389a19: retn 0xC689 ; (1 found)
0x6e389adb: retn 0xC689 ; (1 found)
0x6e392824: retn 0xC701 ; (1 found)
0x6e3964a9: retn 0xC783 ; (1 found)
0x6e3a09c3: retn 0xC839 ; (1 found)
0x6e3826c2: retn 0xC9D8 ; (1 found)
0x6e3828b2: retn 0xC9D8 ; (1 found)
0x6e383a68: retn 0xC9D8 ; (1 found)
0x6e385d14: retn 0xC9D8 ; (1 found)
0x6e387507: retn 0xC9D8 ; (1 found)
0x6e387a6e: retn 0xC9D8 ; (1 found)
0x6e387e72: retn 0xC9D8 ; (1 found)
0x6e3881d2: retn 0xC9D8 ; (1 found)
0x6e38c065: retn 0xC9D8 ; (1 found)
0x6e38c102: retn 0xC9D8 ; (1 found)
0x6e3903ee: retn 0xC9D8 ; (1 found)
0x6e3947c0: retn 0xC9D8 ; (1 found)
0x6e3947e3: retn 0xC9D8 ; (1 found)
0x6e3948cb: retn 0xC9D8 ; (1 found)
0x6e3948f0: retn 0xC9D8 ; (1 found)
0x6e394915: retn 0xC9D8 ; (1 found)
0x6e394a85: retn 0xC9D8 ; (1 found)
0x6e39590e: retn 0xC9D8 ; (1 found)
0x6e3959b3: retn 0xC9D8 ; (1 found)
0x6e3959d8: retn 0xC9D8 ; (1 found)
0x6e395a57: retn 0xC9D8 ; (1 found)
0x6e395a7a: retn 0xC9D8 ; (1 found)
0x6e395a9d: retn 0xC9D8 ; (1 found)
0x6e395b04: retn 0xC9D8 ; (1 found)
0x6e39838e: retn 0xC9D8 ; (1 found)
0x6e398b24: retn 0xC9D8 ; (1 found)
0x6e398d18: retn 0xC9D8 ; (1 found)
0x6e39915a: retn 0xC9D8 ; (1 found)
0x6e399c26: retn 0xC9D8 ; (1 found)
0x6e39ac1c: retn 0xC9D8 ; (1 found)
0x6e39b77b: retn 0xC9D8 ; (1 found)
0x6e3a04bd: retn 0xC9D8 ; (1 found)
0x6e3a04e0: retn 0xC9D8 ; (1 found)
0x6e3a0503: retn 0xC9D8 ; (1 found)
0x6e3a0549: retn 0xC9D8 ; (1 found)
0x6e3a208d: retn 0xC9D8 ; (1 found)
0x6e3a20b0: retn 0xC9D8 ; (1 found)
0x6e3a20d5: retn 0xC9D8 ; (1 found)
0x6e3a20f8: retn 0xC9D8 ; (1 found)
0x6e3a21d2: retn 0xC9D8 ; (1 found)
0x6e384ca0: retn 0xC9D9 ; (1 found)
0x6e384ddf: retn 0xC9D9 ; (1 found)
0x6e3853b6: retn 0xC9D9 ; (1 found)
0x6e385ee7: retn 0xC9D9 ; (1 found)
0x6e3866e9: retn 0xC9D9 ; (1 found)
0x6e386820: retn 0xC9D9 ; (1 found)
0x6e386e9b: retn 0xC9D9 ; (1 found)
0x6e38dc97: retn 0xC9D9 ; (1 found)
0x6e38e1e5: retn 0xC9D9 ; (1 found)
0x6e38e8eb: retn 0xC9D9 ; (1 found)
0x6e38e914: retn 0xC9D9 ; (1 found)
0x6e38edfa: retn 0xC9D9 ; (1 found)
0x6e38f7dd: retn 0xC9D9 ; (1 found)
0x6e390416: retn 0xC9D9 ; (1 found)
0x6e390973: retn 0xC9D9 ; (1 found)
0x6e390a77: retn 0xC9D9 ; (1 found)
0x6e390c06: retn 0xC9D9 ; (1 found)
0x6e390c7a: retn 0xC9D9 ; (1 found)
0x6e3917ff: retn 0xC9D9 ; (1 found)
0x6e391869: retn 0xC9D9 ; (1 found)
0x6e39200f: retn 0xC9D9 ; (1 found)
0x6e392b24: retn 0xC9D9 ; (1 found)
0x6e392b85: retn 0xC9D9 ; (1 found)
0x6e392e72: retn 0xC9D9 ; (1 found)
0x6e392ed1: retn 0xC9D9 ; (1 found)
0x6e395bf1: retn 0xC9D9 ; (1 found)
0x6e395ce7: retn 0xC9D9 ; (1 found)
0x6e3964d3: retn 0xC9D9 ; (1 found)
0x6e3967a6: retn 0xC9D9 ; (1 found)
0x6e39708f: retn 0xC9D9 ; (1 found)
0x6e3970b6: retn 0xC9D9 ; (1 found)
0x6e397361: retn 0xC9D9 ; (1 found)
0x6e397651: retn 0xC9D9 ; (1 found)
0x6e397912: retn 0xC9D9 ; (1 found)
0x6e397939: retn 0xC9D9 ; (1 found)
0x6e398007: retn 0xC9D9 ; (1 found)
0x6e39823c: retn 0xC9D9 ; (1 found)
0x6e3982ec: retn 0xC9D9 ; (1 found)
0x6e39a024: retn 0xC9D9 ; (1 found)
0x6e39a04b: retn 0xC9D9 ; (1 found)
0x6e39a27f: retn 0xC9D9 ; (1 found)
0x6e39a5aa: retn 0xC9D9 ; (1 found)
0x6e39a7f9: retn 0xC9D9 ; (1 found)
0x6e39af66: retn 0xC9D9 ; (1 found)
0x6e39b368: retn 0xC9D9 ; (1 found)
0x6e39bd7b: retn 0xC9D9 ; (1 found)
0x6e39d04e: retn 0xC9D9 ; (1 found)
0x6e3a1068: retn 0xC9D9 ; (1 found)
0x6e3a10d4: retn 0xC9D9 ; (1 found)
0x6e387992: retn 0xCAD8 ; (1 found)
0x6e38d3ff: retn 0xCAD8 ; (1 found)
0x6e38e86d: retn 0xCAD8 ; (1 found)
0x6e38ebd4: retn 0xCAD8 ; (1 found)
0x6e38ee97: retn 0xCAD8 ; (1 found)
0x6e3908d2: retn 0xCAD8 ; (1 found)
0x6e3908f4: retn 0xCAD8 ; (1 found)
0x6e39094c: retn 0xCAD8 ; (1 found)
0x6e390b08: retn 0xCAD8 ; (1 found)
0x6e39160d: retn 0xCAD8 ; (1 found)
0x6e39169d: retn 0xCAD8 ; (1 found)
0x6e391ac0: retn 0xCAD8 ; (1 found)
0x6e391c32: retn 0xCAD8 ; (1 found)
0x6e391ce3: retn 0xCAD8 ; (1 found)
0x6e39218d: retn 0xCAD8 ; (1 found)
0x6e39226e: retn 0xCAD8 ; (1 found)
0x6e3922f9: retn 0xCAD8 ; (1 found)
0x6e393ced: retn 0xCAD8 ; (1 found)
0x6e393e4d: retn 0xCAD8 ; (1 found)
0x6e39463d: retn 0xCAD8 ; (1 found)
0x6e39468d: retn 0xCAD8 ; (1 found)
0x6e394861: retn 0xCAD8 ; (1 found)
0x6e394994: retn 0xCAD8 ; (1 found)
0x6e394a26: retn 0xCAD8 ; (1 found)
0x6e394aa8: retn 0xCAD8 ; (1 found)
0x6e394b13: retn 0xCAD8 ; (1 found)
0x6e395ae1: retn 0xCAD8 ; (1 found)
0x6e39700f: retn 0xCAD8 ; (1 found)
0x6e3973c0: retn 0xCAD8 ; (1 found)
0x6e3976b3: retn 0xCAD8 ; (1 found)
0x6e397f63: retn 0xCAD8 ; (1 found)
0x6e399f8d: retn 0xCAD8 ; (1 found)
0x6e39a2fc: retn 0xCAD8 ; (1 found)
0x6e39a64a: retn 0xCAD8 ; (1 found)
0x6e39b24e: retn 0xCAD8 ; (1 found)
0x6e39be23: retn 0xCAD8 ; (1 found)
0x6e39c372: retn 0xCAD8 ; (1 found)
0x6e39e81e: retn 0xCAD8 ; (1 found)
0x6e39f180: retn 0xCAD8 ; (1 found)
0x6e3a058d: retn 0xCAD8 ; (1 found)
0x6e3a05b0: retn 0xCAD8 ; (1 found)
0x6e3a08bd: retn 0xCAD8 ; (1 found)
0x6e3a2169: retn 0xCAD8 ; (1 found)
0x6e3a21af: retn 0xCAD8 ; (1 found)
0x6e3a2821: retn 0xCAD8 ; (1 found)
0x6e3a2ac3: retn 0xCAD8 ; (1 found)
0x6e3a34a1: retn 0xCAD8 ; (1 found)
0x6e390a52: retn 0xCAD9 ; (1 found)
0x6e3999f8: retn 0xCAD9 ; (1 found)
0x6e399c55: retn 0xCAD9 ; (1 found)
0x6e39b679: retn 0xCAD9 ; (1 found)
0x6e39c191: retn 0xCAD9 ; (1 found)
0x6e39e334: retn 0xCAD9 ; (1 found)
0x6e39d063: retn 0xCADC ; (1 found)
0x6e3986b1: retn 0xCBD8 ; (1 found)
0x6e386069: retn 0xCBD9 ; (1 found)
0x6e3860cb: retn 0xCBD9 ; (1 found)
0x6e3879e9: retn 0xCBD9 ; (1 found)
0x6e387ad5: retn 0xCBD9 ; (1 found)
0x6e3834cc: retn 0xCCD8 ; (1 found)
0x6e38355d: retn 0xCCD8 ; (1 found)
0x6e383a24: retn 0xCCD8 ; (1 found)
0x6e38f93b: retn 0xCCD8 ; (1 found)
0x6e3906ae: retn 0xCCD8 ; (1 found)
0x6e3920f4: retn 0xCCD8 ; (1 found)
0x6e393944: retn 0xCCD8 ; (1 found)
0x6e394054: retn 0xCCD8 ; (1 found)
0x6e395bb2: retn 0xCCD8 ; (1 found)
0x6e3961e1: retn 0xCCD8 ; (1 found)
0x6e397887: retn 0xCCD8 ; (1 found)
0x6e398c03: retn 0xCCD8 ; (1 found)
0x6e39b4fa: retn 0xCCD8 ; (1 found)
0x6e39b759: retn 0xCCD8 ; (1 found)
0x6e39ebd1: retn 0xCCD8 ; (1 found)
0x6e39f044: retn 0xCCD8 ; (1 found)
0x6e3a11b4: retn 0xCCD8 ; (1 found)
0x6e3a2848: retn 0xCCD8 ; (1 found)
0x6e38f03c: retn 0xCCD9 ; (1 found)
0x6e3908a5: retn 0xCCD9 ; (1 found)
0x6e390ae0: retn 0xCCD9 ; (1 found)
0x6e3982ff: retn 0xCCD9 ; (1 found)
0x6e39cbad: retn 0xCCD9 ; (1 found)
0x6e38efc4: retn 0xCDD8 ; (1 found)
0x6e38f94b: retn 0xCDD8 ; (1 found)
0x6e39069e: retn 0xCDD8 ; (1 found)
0x6e394e94: retn 0xCDD8 ; (1 found)
0x6e395912: retn 0xCDD8 ; (1 found)
0x6e395ca1: retn 0xCDD8 ; (1 found)
0x6e397890: retn 0xCDD8 ; (1 found)
0x6e3981d3: retn 0xCDD8 ; (1 found)
0x6e39aae5: retn 0xCDD8 ; (1 found)
0x6e39b50a: retn 0xCDD8 ; (1 found)
0x6e39c061: retn 0xCDD8 ; (1 found)
0x6e39d5c3: retn 0xCDD8 ; (1 found)
0x6e39e254: retn 0xCDD8 ; (1 found)
0x6e3a00e4: retn 0xCDD8 ; (1 found)
0x6e3a0224: retn 0xCDD8 ; (1 found)
0x6e39a7d8: retn 0xCDD9 ; (1 found)
0x6e38eb08: retn 0xCED8 ; (1 found)
0x6e38eda5: retn 0xCED8 ; (1 found)
0x6e38efbb: retn 0xCED8 ; (1 found)
0x6e395bba: retn 0xCED8 ; (1 found)
0x6e3981ca: retn 0xCED8 ; (1 found)
0x6e398ad7: retn 0xCED8 ; (1 found)
0x6e398cc7: retn 0xCED8 ; (1 found)
0x6e39a547: retn 0xCED8 ; (1 found)
0x6e39a760: retn 0xCED8 ; (1 found)
0x6e39a764: retn 0xCED8 ; (1 found)
0x6e39abd4: retn 0xCED8 ; (1 found)
0x6e39c058: retn 0xCED8 ; (1 found)
0x6e39d313: retn 0xCED8 ; (1 found)
0x6e38efc8: retn 0xCFD8 ; (1 found)
0x6e38f96d: retn 0xCFD8 ; (1 found)
0x6e395ca9: retn 0xCFD8 ; (1 found)
0x6e3981d7: retn 0xCFD8 ; (1 found)
0x6e39b52c: retn 0xCFD8 ; (1 found)
0x6e39c065: retn 0xCFD8 ; (1 found)
0x6e39b2cd: retn 0xD089 ; (1 found)
0x6e3983a9: retn 0xD189 ; (1 found)
0x6e3814e6: retn 0xD285 ; (1 found)
0x6e381534: retn 0xD285 ; (1 found)
0x6e38a02f: retn 0xD689 ; (1 found)
0x6e391252: retn 0xD689 ; (1 found)
0x6e391271: retn 0xD689 ; (1 found)
0x6e393542: retn 0xD689 ; (1 found)
0x6e393561: retn 0xD689 ; (1 found)
0x6e397bb8: retn 0xD689 ; (1 found)
0x6e397bd5: retn 0xD689 ; (1 found)
0x6e397c0c: retn 0xD689 ; (1 found)
0x6e39ba78: retn 0xD689 ; (1 found)
0x6e39ba95: retn 0xD689 ; (1 found)
0x6e39bacc: retn 0xD689 ; (1 found)
0x6e382126: retn 0xD801 ; (1 found)
0x6e384495: retn 0xD801 ; (1 found)
0x6e384d93: retn 0xD801 ; (1 found)
0x6e3867b3: retn 0xD801 ; (1 found)
0x6e38eda0: retn 0xD810 ; (1 found)
0x6e39a540: retn 0xD810 ; (1 found)
0x6e3817e9: retn 0xD820 ; (1 found)
0x6e383c0f: retn 0xD8DD ; (1 found)
0x6e3849dd: retn 0xD8DD ; (1 found)
0x6e39e44b: retn 0xD8DD ; (1 found)
0x6e3840e2: retn 0xD908 ; (1 found)
0x6e39c50a: retn 0xD910 ; (1 found)
0x6e398a99: retn 0xD918 ; (1 found)
0x6e3853af: retn 0xD9F8 ; (1 found)
0x6e38b259: retn 0xDB85 ; (1 found)
0x6e391cc6: retn 0xDB85 ; (1 found)
0x6e39faa3: retn 0xDB85 ; (1 found)
0x6e3889a2: retn 0xDC10 ; (1 found)
0x6e38d093: retn 0xDD01 ; (1 found)
0x6e38d7f4: retn 0xDD01 ; (1 found)
0x6e390d05: retn 0xDD01 ; (1 found)
0x6e390e45: retn 0xDD01 ; (1 found)
0x6e3a108d: retn 0xDD01 ; (1 found)
0x6e38d3f9: retn 0xDD10 ; (1 found)
0x6e38d61c: retn 0xDD10 ; (1 found)
0x6e38d76c: retn 0xDD10 ; (1 found)
0x6e38deb7: retn 0xDD10 ; (1 found)
0x6e38e0ba: retn 0xDD10 ; (1 found)
0x6e38e1aa: retn 0xDD10 ; (1 found)
0x6e38e23a: retn 0xDD10 ; (1 found)
0x6e38e4d9: retn 0xDD10 ; (1 found)
0x6e38e864: retn 0xDD10 ; (1 found)
0x6e38ecf7: retn 0xDD10 ; (1 found)
0x6e38f80c: retn 0xDD10 ; (1 found)
0x6e38ffb1: retn 0xDD10 ; (1 found)
0x6e39146a: retn 0xDD10 ; (1 found)
0x6e391697: retn 0xDD10 ; (1 found)
0x6e391aba: retn 0xDD10 ; (1 found)
0x6e391c6a: retn 0xDD10 ; (1 found)
0x6e3920ea: retn 0xDD10 ; (1 found)
0x6e3923c9: retn 0xDD10 ; (1 found)
0x6e39274b: retn 0xDD10 ; (1 found)
0x6e392c9f: retn 0xDD10 ; (1 found)
0x6e39393a: retn 0xDD10 ; (1 found)
0x6e393b2a: retn 0xDD10 ; (1 found)
0x6e39404a: retn 0xDD10 ; (1 found)
0x6e39424a: retn 0xDD10 ; (1 found)
0x6e39452a: retn 0xDD10 ; (1 found)
0x6e3945aa: retn 0xDD10 ; (1 found)
0x6e394687: retn 0xDD10 ; (1 found)
0x6e3957da: retn 0xDD10 ; (1 found)
0x6e39588c: retn 0xDD10 ; (1 found)
0x6e3961d7: retn 0xDD10 ; (1 found)
0x6e396467: retn 0xDD10 ; (1 found)
0x6e396557: retn 0xDD10 ; (1 found)
0x6e39693b: retn 0xDD10 ; (1 found)
0x6e396c09: retn 0xDD10 ; (1 found)
0x6e3973ba: retn 0xDD10 ; (1 found)
0x6e397558: retn 0xDD10 ; (1 found)
0x6e39787a: retn 0xDD10 ; (1 found)
0x6e3984ec: retn 0xDD10 ; (1 found)
0x6e39858a: retn 0xDD10 ; (1 found)
0x6e39867e: retn 0xDD10 ; (1 found)
0x6e398741: retn 0xDD10 ; (1 found)
0x6e398bf9: retn 0xDD10 ; (1 found)
0x6e39918a: retn 0xDD10 ; (1 found)
0x6e399767: retn 0xDD10 ; (1 found)
0x6e39a2f6: retn 0xDD10 ; (1 found)
0x6e39a4a7: retn 0xDD10 ; (1 found)
0x6e39a74a: retn 0xDD10 ; (1 found)
0x6e39acb9: retn 0xDD10 ; (1 found)
0x6e39c36c: retn 0xDD10 ; (1 found)
0x6e39c40a: retn 0xDD10 ; (1 found)
0x6e39c5c4: retn 0xDD10 ; (1 found)
0x6e39cbe0: retn 0xDD10 ; (1 found)
0x6e39e24a: retn 0xDD10 ; (1 found)
0x6e39e818: retn 0xDD10 ; (1 found)
0x6e39ed47: retn 0xDD10 ; (1 found)
0x6e39edf7: retn 0xDD10 ; (1 found)
0x6e39f03a: retn 0xDD10 ; (1 found)
0x6e39fd69: retn 0xDD10 ; (1 found)
0x6e3a00da: retn 0xDD10 ; (1 found)
0x6e3a08b7: retn 0xDD10 ; (1 found)
0x6e3a11aa: retn 0xDD10 ; (1 found)
0x6e3a1a66: retn 0xDD10 ; (1 found)
0x6e3a283e: retn 0xDD10 ; (1 found)
0x6e3a2aea: retn 0xDD10 ; (1 found)
0x6e3a2cea: retn 0xDD10 ; (1 found)
0x6e3a324a: retn 0xDD10 ; (1 found)
0x6e3a34be: retn 0xDD10 ; (1 found)
0x6e385608: retn 0xDDF0 ; (1 found)
0x6e383552: retn 0xDDF8 ; (1 found)
0x6e385518: retn 0xDDF8 ; (1 found)
0x6e3835a6: retn 0xE1D9 ; (1 found)
0x6e394565: retn 0xE1D9 ; (1 found)
0x6e3945e5: retn 0xE1D9 ; (1 found)
0x6e3946b7: retn 0xE1D9 ; (1 found)
0x6e3946fa: retn 0xE1D9 ; (1 found)
0x6e3950c3: retn 0xE1D9 ; (1 found)
0x6e3953b3: retn 0xE1D9 ; (1 found)
0x6e3953f0: retn 0xE1D9 ; (1 found)
0x6e395591: retn 0xE1D9 ; (1 found)
0x6e395651: retn 0xE1D9 ; (1 found)
0x6e39571e: retn 0xE1D9 ; (1 found)
0x6e3958c3: retn 0xE1D9 ; (1 found)
0x6e39fa3f: retn 0xE1D9 ; (1 found)
0x6e39fd27: retn 0xE1D9 ; (1 found)
0x6e39fe1b: retn 0xE1D9 ; (1 found)
0x6e3a0027: retn 0xE1D9 ; (1 found)
0x6e3a0141: retn 0xE1D9 ; (1 found)
0x6e3a0280: retn 0xE1D9 ; (1 found)
0x6e3a0486: retn 0xE1D9 ; (1 found)
0x6e3a15a0: retn 0xE1D9 ; (1 found)
0x6e3a1a1d: retn 0xE1D9 ; (1 found)
0x6e3a1b77: retn 0xE1D9 ; (1 found)
0x6e3a1d11: retn 0xE1D9 ; (1 found)
0x6e3a1e73: retn 0xE1D9 ; (1 found)
0x6e3a200b: retn 0xE1D9 ; (1 found)
0x6e39569c: retn 0xE2C1 ; (1 found)
0x6e39f10d: retn 0xE2C1 ; (1 found)
0x6e3a01b4: retn 0xE2C1 ; (1 found)
0x6e3a1654: retn 0xE2C1 ; (1 found)
0x6e3a19b9: retn 0xE2C1 ; (1 found)
0x6e3a1e08: retn 0xE2C1 ; (1 found)
0x6e39db55: retn 0xE8D9 ; (1 found)
0x6e381841: retn 0xE901 ; (1 found)
0x6e38d451: retn 0xE901 ; (1 found)
0x6e38d5e2: retn 0xE901 ; (1 found)
0x6e38d732: retn 0xE901 ; (1 found)
0x6e38e526: retn 0xE901 ; (1 found)
0x6e396c56: retn 0xE901 ; (1 found)
0x6e3a0b37: retn 0xEAC1 ; (1 found)
0x6e3a1878: retn 0xEAC1 ; (1 found)
0x6e3919a0: retn 0xEED9 ; (1 found)
0x6e3939a7: retn 0xEED9 ; (1 found)
0x6e393cac: retn 0xEED9 ; (1 found)
0x6e393e0b: retn 0xEED9 ; (1 found)
0x6e3940b7: retn 0xEED9 ; (1 found)
0x6e394938: retn 0xEED9 ; (1 found)
0x6e394b3a: retn 0xEED9 ; (1 found)
0x6e393c30: retn 0xF001 ; (1 found)
0x6e3936e1: retn 0xF089 ; (1 found)
0x6e39d251: retn 0xF089 ; (1 found)
0x6e3a0d07: retn 0xF089 ; (1 found)
0x6e3a0dd6: retn 0xF089 ; (1 found)
0x6e392d09: retn 0xF801 ; (1 found)
0x6e381d7d: retn 0xF883 ; (1 found)
0x6e3858db: retn 0xF883 ; (1 found)
0x6e385a45: retn 0xF883 ; (1 found)
0x6e388542: retn 0xF883 ; (1 found)
0x6e388617: retn 0xF883 ; (1 found)
0x6e388e42: retn 0xF883 ; (1 found)
0x6e388f48: retn 0xF883 ; (1 found)
0x6e389d50: retn 0xF883 ; (1 found)
0x6e389d76: retn 0xF883 ; (1 found)
0x6e389eac: retn 0xF883 ; (1 found)
0x6e38a6f5: retn 0xF883 ; (1 found)
0x6e38a823: retn 0xF883 ; (1 found)
0x6e38b28f: retn 0xF883 ; (1 found)
0x6e38b2b5: retn 0xF883 ; (1 found)
0x6e38b3bc: retn 0xF883 ; (1 found)
0x6e38bc81: retn 0xF883 ; (1 found)
0x6e38bd8f: retn 0xF883 ; (1 found)
0x6e387086: retn 0xF939 ; (1 found)
0x6e3921f0: retn 0xF9E9 ; (1 found)
0x6e393f11: retn 0xFA89 ; (1 found)
0x6e3892de: retn 0xFFF9 ; (1 found)
0x6e386c01: retn 0xFFFD ; (1 found)
0x6e3a090a: retn 0xFFFD ; (1 found)
0x6e398893: rol  [ebp+0x0FCE89D2], 0xFFFFFF8E ; retn 0x0002 ; (1 found)
0x6e3831f3: rol  [ebx-0x7BF0FE02], 1 ; ret ; (1 found)
0x6e387083: rol  [ecx], 0x01 ; retn 0xF939 ; (1 found)
0x6e39c504: rol  [ecx], 0xFFFFFF83 ; rcl byte [eax], 0x83 ; retn 0xD910 ; (1 found)
0x6e38d3f3: rol  [ecx], 0xFFFFFF83 ; rcl byte [eax], 0x83 ; retn 0xDD10 ; (1 found)
0x6e38e0b4: rol  [ecx], 0xFFFFFF83 ; rcl byte [eax], 0x83 ; retn 0xDD10 ; (1 found)
0x6e391464: rol  [ecx], 0xFFFFFF83 ; rcl byte [eax], 0x83 ; retn 0xDD10 ; (1 found)
0x6e391ab4: rol  [ecx], 0xFFFFFF83 ; rcl byte [eax], 0x83 ; retn 0xDD10 ; (1 found)
0x6e391c64: rol  [ecx], 0xFFFFFF83 ; rcl byte [eax], 0x83 ; retn 0xDD10 ; (1 found)
0x6e3920e4: rol  [ecx], 0xFFFFFF83 ; rcl byte [eax], 0x83 ; retn 0xDD10 ; (1 found)
0x6e392c99: rol  [ecx], 0xFFFFFF83 ; rcl byte [eax], 0x83 ; retn 0xDD10 ; (1 found)
0x6e393934: rol  [ecx], 0xFFFFFF83 ; rcl byte [eax], 0x83 ; retn 0xDD10 ; (1 found)
0x6e394044: rol  [ecx], 0xFFFFFF83 ; rcl byte [eax], 0x83 ; retn 0xDD10 ; (1 found)
0x6e396935: rol  [ecx], 0xFFFFFF83 ; rcl byte [eax], 0x83 ; retn 0xDD10 ; (1 found)
0x6e3984e6: rol  [ecx], 0xFFFFFF83 ; rcl byte [eax], 0x83 ; retn 0xDD10 ; (1 found)
0x6e398584: rol  [ecx], 0xFFFFFF83 ; rcl byte [eax], 0x83 ; retn 0xDD10 ; (1 found)
0x6e398678: rol  [ecx], 0xFFFFFF83 ; rcl byte [eax], 0x83 ; retn 0xDD10 ; (1 found)
0x6e39873b: rol  [ecx], 0xFFFFFF83 ; rcl byte [eax], 0x83 ; retn 0xDD10 ; (1 found)
0x6e398bf3: rol  [ecx], 0xFFFFFF83 ; rcl byte [eax], 0x83 ; retn 0xDD10 ; (1 found)
0x6e399184: rol  [ecx], 0xFFFFFF83 ; rcl byte [eax], 0x83 ; retn 0xDD10 ; (1 found)
0x6e39acb3: rol  [ecx], 0xFFFFFF83 ; rcl byte [eax], 0x83 ; retn 0xDD10 ; (1 found)
0x6e39c366: rol  [ecx], 0xFFFFFF83 ; rcl byte [eax], 0x83 ; retn 0xDD10 ; (1 found)
0x6e39c404: rol  [ecx], 0xFFFFFF83 ; rcl byte [eax], 0x83 ; retn 0xDD10 ; (1 found)
0x6e39c5be: rol  [ecx], 0xFFFFFF83 ; rcl byte [eax], 0x83 ; retn 0xDD10 ; (1 found)
0x6e39e244: rol  [ecx], 0xFFFFFF83 ; rcl byte [eax], 0x83 ; retn 0xDD10 ; (1 found)
0x6e39f034: rol  [ecx], 0xFFFFFF83 ; rcl byte [eax], 0x83 ; retn 0xDD10 ; (1 found)
0x6e3a00d4: rol  [ecx], 0xFFFFFF83 ; rcl byte [eax], 0x83 ; retn 0xDD10 ; (1 found)
0x6e3a11a4: rol  [ecx], 0xFFFFFF83 ; rcl byte [eax], 0x83 ; retn 0xDD10 ; (1 found)
0x6e3a2838: rol  [ecx], 0xFFFFFF83 ; rcl byte [eax], 0x83 ; retn 0xDD10 ; (1 found)
0x6e3a2ae4: rol  [ecx], 0xFFFFFF83 ; rcl byte [eax], 0x83 ; retn 0xDD10 ; (1 found)
0x6e3a2ce4: rol  [ecx], 0xFFFFFF83 ; rcl byte [eax], 0x83 ; retn 0xDD10 ; (1 found)
0x6e3a3244: rol  [ecx], 0xFFFFFF83 ; rcl byte [eax], 0x83 ; retn 0xDD10 ; (1 found)
0x6e3a34b8: rol  [ecx], 0xFFFFFF83 ; rcl byte [eax], 0x83 ; retn 0xDD10 ; (1 found)
0x6e3a03d9: rol  [ecx], 0xFFFFFF83 ; ret ; (1 found)
0x6e38d2e3: rol  [ecx], 0xFFFFFF83 ; retn 0x3910 ; (1 found)
0x6e3922ed: rol  [ecx], 0xFFFFFF83 ; retn 0x8310 ; (1 found)
0x6e395c84: rol  [ecx], 0xFFFFFF83 ; retn 0x8310 ; (1 found)
0x6e39996c: rol  [ecx], 0xFFFFFF83 ; retn 0x8310 ; (1 found)
0x6e38deb4: rol  [ecx], 0xFFFFFF83 ; retn 0xDD10 ; (1 found)
0x6e38ecf4: rol  [ecx], 0xFFFFFF83 ; retn 0xDD10 ; (1 found)
0x6e392748: rol  [ecx], 0xFFFFFF83 ; retn 0xDD10 ; (1 found)
0x6e394684: rol  [ecx], 0xFFFFFF83 ; retn 0xDD10 ; (1 found)
0x6e3961d4: rol  [ecx], 0xFFFFFF83 ; retn 0xDD10 ; (1 found)
0x6e399764: rol  [ecx], 0xFFFFFF83 ; retn 0xDD10 ; (1 found)
0x6e39a4a4: rol  [ecx], 0xFFFFFF83 ; retn 0xDD10 ; (1 found)
0x6e39e815: rol  [ecx], 0xFFFFFF83 ; retn 0xDD10 ; (1 found)
0x6e39fd66: rol  [ecx], 0xFFFFFF83 ; retn 0xDD10 ; (1 found)
0x6e3a08b4: rol  [ecx], 0xFFFFFF83 ; retn 0xDD10 ; (1 found)
0x6e3a1a63: rol  [ecx], 0xFFFFFF83 ; retn 0xDD10 ; (1 found)
0x6e38d394: rol  [ecx], 0xFFFFFFDD ; add al, byte [ecx] ; fcmovu st0, st1 ; ret ; (1 found)
0x6e3965b4: rol  [ecx], 0xFFFFFFDD ; add cl, bl ; ret ; (1 found)
0x6e3a433c: rol bl, 0x66 ; nop ; cmp word [eax+0x18], 0x010B ; sete al ; movzx eax, al ; ret ; (1 found)
0x6e3a41d7: rol byte [ebx-0x3B7CFB14], 0x18 ; pop ebx ; ret ; (1 found)
0x6e3a39b3: rol byte [ebx-0x49F0E33C], 0xC0 ; neg eax ; ret ; (1 found)
0x6e38b253: rol byte [ebx-0x6AF0FE05], cl ; retn 0xDB85 ; (1 found)
0x6e3a4936: rol byte [ebx-0x6F3CC33C], 0x90 ; nop ; nop ; nop ; jmp  [0x6E3AB198] ; (1 found)
0x6e38c493: rol byte [ecx], 0x83 ; retn 0x0108 ; (1 found)
0x6e3a452e: rol byte [ecx], 0x83 ; retn 0x3928 ; (1 found)
0x6e394855: rol byte [ecx], 0x83 ; retn 0x8310 ; (1 found)
0x6e394a1a: rol byte [ecx], 0x83 ; retn 0x8310 ; (1 found)
0x6e3a09bc: ror  [ebp-0x2FD600B8], 0xFFFFFF89 ; retn 0xC839 ; (1 found)
0x6e386e3e: ror  [ebx-0x26DFDB8C], 1 ; ret ; (1 found)
0x6e397d91: ror byte [eax], 0x8D ; outsd ; add  [ecx], eax ; ret ; (1 found)
0x6e39bc4a: ror byte [eax], 0x8D ; outsd ; add  [ecx], eax ; ret ; (1 found)
0x6e388998: ror byte [ebp+0x000026B4], 0x00 ; add ch, bl ; inc esp ; retn 0xDC10 ; (1 found)
0x6e3814f3: ror byte [ebp+0x5E5BF865], cl ; pop ebp ; ret ; (1 found)
0x6e383e29: ror byte [ecx+0x0F1B74C5], 0xB6 ; ret ; (1 found)
0x6e38b24d: ror byte [ecx+0x311C2454], cl ; rol byte [ebx-0x6AF0FE05], cl ; retn 0xDB85 ; (1 found)
0x6e391a28: ror byte [edi], 0x45 ; ret ; (1 found)
0x6e391a68: ror byte [edi], 0x45 ; ret ; (1 found)
0x6e39368f: ror byte [edi], 0x45 ; ret ; (1 found)
0x6e394338: ror byte [edi], 0x45 ; ret ; (1 found)
0x6e3a334b: ror byte [edi], 0x45 ; ret ; (1 found)
0x6e39d248: ror byte [edi], 0x45 ; retn 0x548B ; (1 found)
0x6e39db6a: ror byte [edi], 0x45 ; retn 0x548B ; (1 found)
0x6e39e008: ror byte [edi], 0x45 ; retn 0x548B ; (1 found)
0x6e38362c: ror byte [edi], 0x45 ; retn 0xC085 ; (1 found)
0x6e387f21: ror byte [edi], 0x45 ; retn 0xC085 ; (1 found)
0x6e38d9ee: ror byte [edi], 0x45 ; retn 0xC085 ; (1 found)
0x6e38d9fe: ror byte [edi], 0x45 ; retn 0xC085 ; (1 found)
0x6e38da18: ror byte [edi], 0x45 ; retn 0xC085 ; (1 found)
0x6e38da33: ror byte [edi], 0x45 ; retn 0xC085 ; (1 found)
0x6e38db32: ror byte [edi], 0x45 ; retn 0xC085 ; (1 found)
0x6e3919ae: ror byte [edi], 0x45 ; retn 0xC085 ; (1 found)
0x6e3919c2: ror byte [edi], 0x45 ; retn 0xC085 ; (1 found)
0x6e391d03: ror byte [edi], 0x45 ; retn 0xC085 ; (1 found)
0x6e391d17: ror byte [edi], 0x45 ; retn 0xC085 ; (1 found)
0x6e396042: ror byte [edi], 0x45 ; retn 0xC085 ; (1 found)
0x6e3965e8: ror byte [edi], 0x45 ; retn 0xC085 ; (1 found)
0x6e3965f6: ror byte [edi], 0x45 ; retn 0xC085 ; (1 found)
0x6e399139: ror byte [edi], 0x45 ; retn 0xC085 ; (1 found)
0x6e39d992: ror byte [edi], 0x45 ; retn 0xC085 ; (1 found)
0x6e3887d7: ror byte [edi], 0x4E ; retn 0x518D ; (1 found)
0x6e38918f: ror byte [edi], 0x4E ; retn 0x518D ; (1 found)
0x6e381ed0: ror byte [edi], 0x4E ; retn 0x548B ; (1 found)
0x6e38d11a: ror byte [edi], 0x8E ; ret ; (1 found)
0x6e398651: ror byte [edi], 0x8E ; ret ; (1 found)
0x6e3a39b0: ror byte [edi], 0x94 ; rol byte [ebx-0x49F0E33C], 0xC0 ; neg eax ; ret ; (1 found)
0x6e39ed26: ror byte [edi], 1 ; dec edi ; retn 0x148D ; (1 found)
0x6e39edda: ror byte [edi], 1 ; dec edi ; retn 0x148D ; (1 found)
0x6e3a24f2: ror byte [edi], cl ; dec edi ; retn 0x0739 ; (1 found)
0x6e39461d: ror byte [edi], cl ; mov ss, word [eax-0x7C000008] ; retn 0xB901 ; (1 found)
0x6e3815dd: sal  [ebp-0x10], 0xFFFFFFEB ; add bl, ch ; fstp  [ebx+0x5E] ; ret ; (1 found)
0x6e381a5e: sal  [ebp-0x11], 0xFFFFFFEB ; add bl, ch ; fstp  [ebx+0x5E] ; pop edi ; ret ; (1 found)
0x6e38474f: sal  [ebp-0x12], 0x5B ; pop esi ; pop edi ; pop ebp ; ret ; (1 found)
0x6e384701: sal  [ebp-0x14], 0x5B ; pop esi ; pop edi ; pop ebp ; ret ; (1 found)
0x6e38d0ae: sal  [ebp-0x21], 0xFFFFFF83 ; les edx,  [eax] ; pop ebx ; ret ; (1 found)
0x6e38d0ff: sal  [ebp-0x22], 0xFFFFFF83 ; les edx,  [eax] ; pop ebx ; ret ; (1 found)
0x6e389d18: sal  [ecx], 1 ; fild  [ebx-0x6BF0B106] ; ret ; (1 found)
0x6e386c36: sal  [edi+ebx+0x0F], 0xFFFFFFB6 ; retn 0x788D ; (1 found)
0x6e3a39b9: sal bh, 0xD8 ; ret ; (1 found)
0x6e3a413f: sal byte [ebp+0x0C], 0x85 ; div byte [eax+ecx-0x75] ; inc ebx ; add al, 0x89 ; xor al, 0x24 ; call eax ; (1 found)
0x6e3a41fe: sal byte [ebp+0x0F], 0x83 ; les ebx,  [eax] ; xor eax, eax ; pop ebx ; ret ; (1 found)
0x6e3a42a9: sal byte [ebp+0x66], 0xB8 ; add  [eax], eax ; add byte [eax], al ; add esp, 0x1C ; ret ; (1 found)
0x6e3a3ba8: sal byte [ebp+edx-0x7D], 0xF8 ; add esi,  [eax+edx-0x48] ; add  [eax], eax ; add byte [eax], al ; add esp, 0x1C ; retn 0x000C ; (1 found)
0x6e3a39e4: sal byte [ebp-0x17], 0x83 ; les ecx,  [ebx+esi*8] ; ret ; (1 found)
0x6e3a442f: sal byte [ebp-0x22], 0x83 ; les ebx,  [ecx+ecx*4] ; fimul word [ecx+0x5F5E5BF0] ; pop ebp ; ret ; (1 found)
0x6e388979: sal byte [ebx+eax-0x24], 0x4A ; or byte [ebx-0x7CDBDBBC], cl ; ret ; (1 found)
0x6e3814e8: sal byte [ecx+ecx-0x39], cl ; add al, 0x24 ; sbb byte [eax+0x3A], dl ; outsb ; call edx ; (1 found)
0x6e3a44bb: sal byte [edi+ebp*8-0x5F], 0x3C ; add byte [eax], bh ; outsb ; movzx eax, word [eax+0x6E380006] ; ret ; (1 found)
0x6e3a39c8: sal byte [edi+ebx-0x7D], 0xEC ; or al, 0x66 ; nop ; call eax ; (1 found)
0x6e3965e1: sal byte [edx+0x0FE9DB00], 0x9B ; ror byte [edi], 0x45 ; retn 0xC085 ; (1 found)
0x6e381548: sal byte [esp+ecx-0x77], 0x04 ; and al, 0xFF ; adc eax, 0x6E3AB114 ; sub esp, 0x04 ; leave ; ret ; (1 found)
0x6e3a4541: salc ; mov eax, esi ; pop ebx ; pop esi ; ret ; (1 found)
0x6e38986c: sar  [eax+0x00000001], 0xFFFFFF83 ; ret ; (1 found)
0x6e384bf4: sar ah, 0xFF ; call  [eax+0x0026B48D] ; (1 found)
0x6e3814c9: sar byte [edx+0x00000000], 0x74 ; push ss ; mov  [esp+0x04], 0x6E3A6037 ; mov  [esp+0x00], eax ; call  [0x6E3AB12C] ; (1 found)
0x6e381517: sar byte [edx+0x00000000], 0x74 ; push ss ; mov  [esp+0x04], 0x6E3A604B ; mov  [esp+0x00], eax ; call  [0x6E3AB12C] ; (1 found)
0x6e3858d8: sbb  [edi], ecx ; inc edi ; retn 0xF883 ; (1 found)
0x6e38a3d0: sbb  [edi], ecx ; inc esi ; div  [ecx] ; fild  [ebx-0x6BF0AA02] ; ret ; (1 found)
0x6e3822ff: sbb  [edi], ecx ; inc esi ; retn 0xB60F ; (1 found)
0x6e381d7a: sbb  [edi], ecx ; inc esi ; retn 0xF883 ; (1 found)
0x6e385a42: sbb  [edi], ecx ; inc esi ; retn 0xF883 ; (1 found)
0x6e38853f: sbb  [edi], ecx ; inc esi ; retn 0xF883 ; (1 found)
0x6e388614: sbb  [edi], ecx ; inc esi ; retn 0xF883 ; (1 found)
0x6e388e3f: sbb  [edi], ecx ; inc esi ; retn 0xF883 ; (1 found)
0x6e388f45: sbb  [edi], ecx ; inc esi ; retn 0xF883 ; (1 found)
0x6e389d4d: sbb  [edi], ecx ; inc esi ; retn 0xF883 ; (1 found)
0x6e389d73: sbb  [edi], ecx ; inc esi ; retn 0xF883 ; (1 found)
0x6e389ea9: sbb  [edi], ecx ; inc esi ; retn 0xF883 ; (1 found)
0x6e38a6f2: sbb  [edi], ecx ; inc esi ; retn 0xF883 ; (1 found)
0x6e38a820: sbb  [edi], ecx ; inc esi ; retn 0xF883 ; (1 found)
0x6e38b28c: sbb  [edi], ecx ; inc esi ; retn 0xF883 ; (1 found)
0x6e38b2b2: sbb  [edi], ecx ; inc esi ; retn 0xF883 ; (1 found)
0x6e38b3b9: sbb  [edi], ecx ; inc esi ; retn 0xF883 ; (1 found)
0x6e38bc7e: sbb  [edi], ecx ; inc esi ; retn 0xF883 ; (1 found)
0x6e38bd8c: sbb  [edi], ecx ; inc esi ; retn 0xF883 ; (1 found)
0x6e389d15: sbb  [edi], ecx ; inc esi ; sal  [ecx], 1 ; fild  [ebx-0x6BF0B106] ; ret ; (1 found)
0x6e3a3fb9: sbb al, 0x00 ; add byte [eax], al ; mov  [esp+0x04], ecx ; mov eax,  [eax+0x04] ; mov  [esp+0x00], eax ; call  [0x6E3AB160] ; (1 found)
0x6e396221: sbb al, 0x0F ; dec esi ; ret ; (1 found)
0x6e3a39b6: sbb al, 0x0F ; mov dh, 0xC0 ; neg eax ; ret ; (1 found)
0x6e38c7b7: sbb al, 0x0F ; xchg eax, esp ; ret ; (1 found)
0x6e3884e4: sbb al, 0x31 ; fild  [ebx-0x6AF0FE02] ; ret ; (1 found)
0x6e389d28: sbb al, 0x31 ; fild  [ebx-0x6AF0FE02] ; ret ; (1 found)
0x6e3a4442: sbb al, 0x31 ; neg byte [ebx-0x77] ; lock pop esi ; pop edi ; pop ebp ; ret ; (1 found)
0x6e38b251: sbb al, 0x31 ; rol byte [ebx-0x6AF0FE05], cl ; retn 0xDB85 ; (1 found)
0x6e3a4167: sbb al, 0x5B ; pop esi ; pop edi ; pop ebp ; ret ; (1 found)
0x6e38a692: sbb al, 0x75 ; fild  [ebx+0x5E5B6CC4] ; pop edi ; pop ebp ; ret ; (1 found)
0x6e38bc22: sbb al, 0x75 ; fild  [ebx+0x5E5B6CC4] ; pop edi ; pop ebp ; ret ; (1 found)
0x6e3866d3: sbb al, 0x83 ; ret ; (1 found)
0x6e38bbe4: sbb al, 0x83 ; ret ; (1 found)
0x6e39f8ff: sbb al, 0x83 ; ret ; (1 found)
0x6e382265: sbb al, 0x83 ; retn 0x0301 ; (1 found)
0x6e39f9a8: sbb al, 0x83 ; retn 0x8301 ; (1 found)
0x6e381ece: sbb al, 0x85 ; ror byte [edi], 0x4E ; retn 0x548B ; (1 found)
0x6e3a17ed: sbb al, 0x89 ; enter 0xD829, 0x83 ; ret ; (1 found)
0x6e3a4434: sbb al, 0x89 ; fimul word [ecx+0x5F5E5BF0] ; pop ebp ; ret ; (1 found)
0x6e3812c3: sbb al, 0x89 ; lock pop ebx ; pop esi ; pop edi ; pop ebp ; ret ; (1 found)
0x6e3a43d7: sbb al, 0x89 ; lock pop ebx ; pop esi ; pop edi ; pop ebp ; ret ; (1 found)
0x6e3829c7: sbb al, 0x89 ; ret ; (1 found)
0x6e385e12: sbb al, 0x89 ; ret ; (1 found)
0x6e38a238: sbb al, 0x89 ; ret ; (1 found)
0x6e39f0c7: sbb al, 0x89 ; ret ; (1 found)
0x6e3a0ba2: sbb al, 0x89 ; ret ; (1 found)
0x6e389a17: sbb al, 0x89 ; retn 0xC689 ; (1 found)
0x6e381a3e: sbb al, 0x8D ; push esp ; retn 0xB8F8 ; (1 found)
0x6e385748: sbb al, 0x8D ; push esp ; retn 0xB8F8 ; (1 found)
0x6e3a42fe: sbb al, 0xC3 ; mov  [esp+0x00], 0x6E3A93E8 ; call  [0x6E3AB138] ; (1 found)
0x6e39f270: sbb al, 0xDD ; inc edi ; or ch, bl ; inc edi ; adc cl, bl ; ret ; (1 found)
0x6e384bf2: sbb al, 0xE9 ; sar ah, 0xFF ; call  [eax+0x0026B48D] ; (1 found)
0x6e38cfab: sbb al, 0xEB ; retn 0x9066 ; (1 found)
0x6e381505: sbb bh, al ; add al, 0x24 ; add byte [eax+0x3A], ah ; outsb ; call  [0x6E3AB128] ; (1 found)
0x6e381037: sbb byte [eax+0x00000001], bh ; pop ebx ; ret ; (1 found)
0x6e3a3c17: sbb byte [eax+0x00000001], bh ; pop ebx ; retn 0x000C ; (1 found)
0x6e3a3c45: sbb byte [eax+0x00000001], bh ; pop ebx ; retn 0x000C ; (1 found)
0x6e3814ee: sbb byte [eax+0x3A], dl ; outsb ; call edx ; (1 found)
0x6e39f26c: sbb byte [ebp-0x22E38B37], al ; inc edi ; or ch, bl ; inc edi ; adc cl, bl ; ret ; (1 found)
0x6e3a1548: sbb byte [ebx+0x29742474], cl ; ret ; (1 found)
0x6e388de0: sbb byte [ebx+0x31142474], cl ; fild  [ebx-0x6AF0FE02] ; ret ; (1 found)
0x6e389d24: sbb byte [ebx+0x311C2474], cl ; fild  [ebx-0x6AF0FE02] ; ret ; (1 found)
0x6e383b5b: sbb byte [ebx+0x5E5B2CC4], al ; ret ; (1 found)
0x6e383c21: sbb byte [ebx+0x5E5B2CC4], al ; ret ; (1 found)
0x6e383d65: sbb byte [ebx+0x5E5B2CC4], al ; ret ; (1 found)
0x6e383d88: sbb byte [ebx+0x5E5B2CC4], al ; ret ; (1 found)
0x6e395c17: sbb byte [ebx+0x5E], bl ; pop edi ; ret ; (1 found)
0x6e3a3d8b: sbb byte [ecx+ecx*4], al ; add al, 0x24 ; call  [0x6E3AB160] ; (1 found)
0x6e389a42: sbb byte [ecx-0x7C8BDBBC], cl ; les ecx,  [ebx+ebx*2+0x5E] ; pop edi ; pop ebp ; ret ; (1 found)
0x6e384c1f: sbb byte [ecx], al ; add byte [eax], al ; add ch, bl ; inc esp ; ret ; (1 found)
0x6e385cb7: sbb byte [ecx], al ; ret ; (1 found)
0x6e38c94c: sbb byte [ecx], dh ; fild  [ebx-0x6AF0FE03] ; ret ; (1 found)
0x6e381030: sbb byte [ecx], dh ; rcr byte [ebx-0x3D], 0x83 ; les ebx,  [eax] ; mov eax, 0x00000001 ; pop ebx ; ret ; (1 found)
0x6e3a4203: sbb byte [ecx], dh ; rcr byte [ebx-0x3D], 0x90 ; lea esi,  [esi+0x00000000] ; mov  [esp+0x00], 0x6E3A93E8 ; call  [0x6E3AB110] ; (1 found)
0x6e383d83: sbb ch, bl ; pop eax ; and ch, bl ; sbb byte [ebx+0x5E5B2CC4], al ; ret ; (1 found)
0x6e38d5b7: sbb ch, bl ; pop eax ; or byte [ebx+0x5E], bl ; pop edi ; pop ebp ; ret ; (1 found)
0x6e38d701: sbb ch, bl ; pop eax ; or byte [ebx+0x5E], bl ; pop edi ; pop ebp ; ret ; (1 found)
0x6e383d63: sbb ch, bl ; sbb byte [ebx+0x5E5B2CC4], al ; ret ; (1 found)
0x6e3a1114: sbb cl, bl ; ret ; (1 found)
0x6e3a12ac: sbb cl, bl ; ret ; (1 found)
0x6e399c24: sbb cl, bl ; retn 0xC9D8 ; (1 found)
0x6e383a22: sbb cl, bl ; retn 0xCCD8 ; (1 found)
0x6e39c1a3: sbb dh, bl ; retn 0xC1DE ; (1 found)
0x6e39e332: sbb dh, bl ; retn 0xCAD9 ; (1 found)
0x6e383665: sbb eax,  [ebx+0x5E5B44C4] ; ret ; (1 found)
0x6e3836af: sbb eax,  [ebx+0x5E5B44C4] ; ret ; (1 found)
0x6e3a41c1: sbb eax, 0x6E3A93E0 ; mov  [esp+0x00], 0x6E3A93E8 ; mov  [ebx+0x08], eax ; call  [0x6E3AB13C] ; (1 found)
0x6e381459: sbb eax, 0x6E3AB128 ; mov  [esp+0x00], 0x6E3A6000 ; call ebx ; (1 found)
0x6e3917e4: sbb eax, 0xDDF841DD ; add ecx, ebx ; ret ; (1 found)
0x6e392b09: sbb eax, 0xDDF841DD ; add ecx, ebx ; ret ; (1 found)
0x6e392e57: sbb eax, 0xDDF841DD ; add ecx, ebx ; ret ; (1 found)
0x6e39b7d2: sbb ebx, ebp ; pop ebx ; or byte [ebx+0x5E5B60C4], al ; pop edi ; ret ; (1 found)
0x6e38d5df: scasd ; aad 0x83 ; retn 0xE901 ; (1 found)
0x6e38d72f: scasd ; aad 0x83 ; retn 0xE901 ; (1 found)
0x6e390935: scasd ; add  [eax], eax ; add byte [edi], cl ; test  [ecx-0x26FFFFFF], ebp ; ret ; (1 found)
0x6e38c15c: scasd ; lds ecx,  [ebp-0x6374FCEC] ; and al, 0x9C ; add byte [eax], al ; add byte [ebp+0x1C8D2A04], cl ; ret ; (1 found)
0x6e384bea: scasd ; mov byte [ebx+0x448901C0], 0x24 ; sbb al, 0xE9 ; sar ah, 0xFF ; call  [eax+0x0026B48D] ; (1 found)
0x6e38905c: scasd ; ret ; (1 found)
0x6e389fcc: scasd ; ret ; (1 found)
0x6e38aafa: scasd ; ret ; (1 found)
0x6e395223: scasd ; ret ; (1 found)
0x6e39eb4b: scasd ; ret ; (1 found)
0x6e39f0ff: scasd ; ret ; (1 found)
0x6e39f228: scasd ; ret ; (1 found)
0x6e3a1875: scasd ; ret ; (1 found)
0x6e396315: scasd ; retn 0x688D ; (1 found)
0x6e392967: scasd ; retn 0x788D ; (1 found)
0x6e3a092b: scasd ; retn 0xC189 ; (1 found)
0x6e392823: scasd ; retn 0xC701 ; (1 found)
0x6e392d08: scasd ; retn 0xF801 ; (1 found)
0x6e3a39b1: sete al ; add esp, 0x1C ; movzx eax, al ; neg eax ; ret ; (1 found)
0x6e381595: sete al ; movzx eax, al ; pop ebx ; ret ; (1 found)
0x6e3a4346: sete al ; movzx eax, al ; ret ; (1 found)
0x6e3817e6: shl byte [eax], 0x83 ; retn 0xD820 ; (1 found)
0x6e3a405b: shl byte [esi-0x77], 0x81 ; add byte [eax], al ; cmp byte [esi-0x7D], ch ; ret ; (1 found)
0x6e3a45c3: shr eax, 0x1F ; add esp, 0x08 ; ret ; (1 found)
0x6e381d79: stc ; sbb  [edi], ecx ; inc esi ; retn 0xF883 ; (1 found)
0x6e389d4c: stc ; sbb  [edi], ecx ; inc esi ; retn 0xF883 ; (1 found)
0x6e389d72: stc ; sbb  [edi], ecx ; inc esi ; retn 0xF883 ; (1 found)
0x6e389ea8: stc ; sbb  [edi], ecx ; inc esi ; retn 0xF883 ; (1 found)
0x6e38a6f1: stc ; sbb  [edi], ecx ; inc esi ; retn 0xF883 ; (1 found)
0x6e38a81f: stc ; sbb  [edi], ecx ; inc esi ; retn 0xF883 ; (1 found)
0x6e38c950: std ; add  [edi], ecx ; xchg eax, ebp ; ret ; (1 found)
0x6e38a3cf: std ; sbb  [edi], ecx ; inc esi ; div  [ecx] ; fild  [ebx-0x6BF0AA02] ; ret ; (1 found)
0x6e38b255: sti ; add  [edi], ecx ; xchg eax, ebp ; retn 0xDB85 ; (1 found)
0x6e38190d: sti ; add ch, byte [ecx] ; ret ; (1 found)
0x6e3858d7: sti ; sbb  [edi], ecx ; inc edi ; retn 0xF883 ; (1 found)
0x6e3822fe: sti ; sbb  [edi], ecx ; inc esi ; retn 0xB60F ; (1 found)
0x6e385a41: sti ; sbb  [edi], ecx ; inc esi ; retn 0xF883 ; (1 found)
0x6e38853e: sti ; sbb  [edi], ecx ; inc esi ; retn 0xF883 ; (1 found)
0x6e388613: sti ; sbb  [edi], ecx ; inc esi ; retn 0xF883 ; (1 found)
0x6e388e3e: sti ; sbb  [edi], ecx ; inc esi ; retn 0xF883 ; (1 found)
0x6e388f44: sti ; sbb  [edi], ecx ; inc esi ; retn 0xF883 ; (1 found)
0x6e38bc7d: sti ; sbb  [edi], ecx ; inc esi ; retn 0xF883 ; (1 found)
0x6e38bd8b: sti ; sbb  [edi], ecx ; inc esi ; retn 0xF883 ; (1 found)
0x6e389d14: sti ; sbb  [edi], ecx ; inc esi ; sal  [ecx], 1 ; fild  [ebx-0x6BF0B106] ; ret ; (1 found)
0x6e3814bf: sub  [eax+0x3A], esp ; outsb ; call ebx ; (1 found)
0x6e3a3a8c: sub al, 0x5B ; pop esi ; pop edi ; pop ebp ; ret ; (1 found)
0x6e3a3af9: sub al, 0x5B ; pop esi ; pop edi ; pop ebp ; ret ; (1 found)
0x6e383b5e: sub al, 0x5B ; pop esi ; ret ; (1 found)
0x6e383c24: sub al, 0x5B ; pop esi ; ret ; (1 found)
0x6e383d68: sub al, 0x5B ; pop esi ; ret ; (1 found)
0x6e383d8b: sub al, 0x5B ; pop esi ; ret ; (1 found)
0x6e395c66: sub al, 0x83 ; ret ; (1 found)
0x6e3a18bb: sub al, 0x89 ; ret ; (1 found)
0x6e38986a: sub al, 0x89 ; sar  [eax+0x00000001], 0xFFFFFF83 ; ret ; (1 found)
0x6e38d1e2: sub al, 0xC3 ; fldz ; add esp, 0x2C ; ret ; (1 found)
0x6e3833f5: sub al, 0xC3 ; mov esi, esi ; lea edi,  [edi+0x00000000] ; fldz ; add esp, 0x2C ; ret ; (1 found)
0x6e3a412c: sub byte [ebp+0x038B0076], cl ; mov  [esp+0x00], eax ; call ebp ; (1 found)
0x6e3a0b9e: sub byte [ebx-0x76E3DBBC], cl ; ret ; (1 found)
0x6e39071c: sub byte [ebx-0x7C93DBBC], cl ; ret ; (1 found)
0x6e3a397a: sub byte [ecx-0x6F3CA428], cl ; mov eax,  [esp+0x30] ; mov  [esp+0x00], eax ; call  [0x6E3AB188] ; (1 found)
0x6e3a48b1: sub byte [ecx-0x72EBDBAC], cl ; push esp ; and al, 0x10 ; mov  [esp+0x00], edx ; call eax ; (1 found)
0x6e38307f: sub byte [ecx-0x7CDFDBBC], cl ; ret ; (1 found)
0x6e3886af: sub byte [ecx], al ; enter 0xC239, 0x0F ; dec esi ; retn 0x518D ; (1 found)
0x6e3a333f: sub byte [edi], cl ; inc ebp ; ret ; (1 found)
0x6e3a36ba: sub ch, 0xFF ; jmp  [esi-0x70] ; (1 found)
0x6e392f08: sub cl, bl ; ret ; (1 found)
0x6e393055: sub cl, bl ; ret ; (1 found)
0x6e3811ae: sub ebx, 0x04 ; call edx ; (1 found)
0x6e3811af: sub ebx, 0x04 ; call edx ; (1 found)
0x6e3a46a2: sub ecx, eax ; or  [ecx], 0x00000000 ; pop eax ; pop ecx ; ret ; (1 found)
0x6e381474: sub edi, eax ; add al, 0x24 ; add byte [eax+0x3A], ah ; outsb ; call  [0x6E3AB140] ; (1 found)
0x6e3a41d8: sub esp, 0x04 ; add esp, 0x18 ; pop ebx ; ret ; (1 found)
0x6e3a424e: sub esp, 0x04 ; add esp, 0x18 ; xor eax, eax ; pop ebx ; ret ; (1 found)
0x6e3a3b75: sub esp, 0x04 ; call  [0x6E3AB118] ; (1 found)
0x6e381554: sub esp, 0x04 ; leave ; ret ; (1 found)
0x6e3a41bd: sub esp, 0x04 ; mov  [0x6E3A93E0], ebx ; mov  [esp+0x00], 0x6E3A93E8 ; mov  [ebx+0x08], eax ; call  [0x6E3AB13C] ; (1 found)
0x6e381482: sub esp, 0x04 ; mov  [0x6E3A9408], eax ; mov  [esp+0x04], 0x6E3A6013 ; mov  [esp+0x00], esi ; call  [0x6E3AB12C] ; (1 found)
0x6e3a3b65: sub esp, 0x04 ; mov  [esp+0x00], 0x6E3A61F0 ; call  [0x6E3AB158] ; (1 found)
0x6e3a3a9f: sub esp, 0x04 ; mov ebx,  [esp+0x10] ; xor ebx,  [esp+0x14] ; call  [0x6E3AB11C] ; (1 found)
0x6e3a4137: sub esp, 0x04 ; mov esi, eax ; call edi ; (1 found)
0x6e3a39cb: sub esp, 0x0C ; nop ; call eax ; (1 found)
0x6e381455: sub esp, 0x10 ; mov ebx,  [0x6E3AB128] ; mov  [esp+0x00], 0x6E3A6000 ; call ebx ; (1 found)
0x6e381503: sub esp, 0x18 ; mov  [esp+0x00], 0x6E3A6000 ; call  [0x6E3AB128] ; (1 found)
0x6e3a4104: sub esp, 0x1C ; mov  [esp+0x00], 0x6E3A93E8 ; call  [0x6E3AB110] ; (1 found)
0x6e389a3c: test  [0xDD000001], esi ; sbb byte [ecx-0x7C8BDBBC], cl ; les ecx,  [ebx+ebx*2+0x5E] ; pop edi ; pop ebp ; ret ; (1 found)
0x6e38b6dc: test  [ebp-0x22FFFFFF], edx ; pop ebp ; add byte [ebx+0x5E5B5CC4], al ; pop edi ; pop ebp ; ret ; (1 found)
0x6e39093a: test  [ecx-0x26FFFFFF], ebp ; ret ; (1 found)
0x6e39b06e: test  [edi-0x7E000002], edi ; les ebx,  [eax+eax+0x5E5B0000] ; pop edi ; pop ebp ; ret ; (1 found)
0x6e3a4812: test al, 0xB1 ; cmp ch, byte [esi-0x70] ; nop ; jmp  [0x6E3AB1A4] ; (1 found)
0x6e383a14: test bh, dh ; add  [eax], eax ; add ch, bl ; add ecx, ebx ; ret ; (1 found)
0x6e3823c6: test byte [0x83000001], al ; call  [edi+ecx-0x7C] ; (1 found)
0x6e385d86: test byte [eax+ebp*4], ah ; add byte [eax], al ; add byte [ecx-0x7CF7DB94], cl ; ret ; (1 found)
0x6e388398: test byte [ebp+0x000027BC], 0x00 ; add byte [ebx+0x5E5B5CC4], al ; pop edi ; pop ebp ; ret ; (1 found)
0x6e39d818: test byte [ebp+0x000027BC], 0x00 ; add byte [ecx+0x00008CC4], al ; add byte [ebx+0x5E], bl ; pop edi ; pop ebp ; ret ; (1 found)
0x6e396308: test byte [ebp+0x000027BC], 0x00 ; add byte [ecx+0x0FF029E8], cl ; scasd ; retn 0x688D ; (1 found)
0x6e389508: test byte [ebp+0x000027BC], 0x00 ; add ch, bl ; fadd  [ebx+0x5E5B4CC4] ; pop edi ; pop ebp ; ret ; (1 found)
0x6e383548: test byte [ebp+0x000027BC], 0x00 ; add ch, bl ; inc esp ; retn 0xDDF8 ; (1 found)
0x6e3833f8: test byte [ebp+0x000027BC], 0x00 ; add cl, bl ; out dx, al ; add esp, 0x2C ; ret ; (1 found)
0x6e3815e8: test byte [ebp+0x000027BC], 0x00 ; add cl, bl ; out dx, al ; pop ebx ; pop esi ; ret ; (1 found)
0x6e3810e3: test byte [ecx+eax], cl ; add byte [eax], al ; mov  [esp+0x00], 0x000003E8 ; call edi ; (1 found)
0x6e3a484a: test byte [ecx-0x6F6F91C6], dh ; jmp  [0x6E3AB17C] ; (1 found)
0x6e38a6a6: test byte [edi-0x7C000003], al ; ret ; (1 found)
0x6e3823bd: test byte [esi], cl ; add  [eax], eax ; add byte [eax-0x7BF0AB06], al ; add eax, 0x83000001 ; call  [edi+ecx-0x7C] ; (1 found)
0x6e397b4d: test byte [esp+ebp*4+0x00], ah ; add byte [eax], al ; add byte [edi], al ; add byte [eax], al ; add bl, ch ; ret ; (1 found)
0x6e39ba0d: test byte [esp+ebx*4+0x00], ah ; add byte [eax], al ; add byte [edi], al ; add byte [eax], al ; add bl, ch ; ret ; (1 found)
0x6e39093b: test eax, 0xD9000001 ; ret ; (1 found)
0x6e3a456c: test eax, eax ; mov eax, 0x6E380000 ; cmovne ebx, eax ; mov eax, ebx ; pop ebx ; ret ; (1 found)
0x6e3a39af: test eax, eax ; sete al ; add esp, 0x1C ; movzx eax, al ; neg eax ; ret ; (1 found)
0x6e38e347: wait ; ret ; (1 found)
0x6e38e355: wait ; ret ; (1 found)
0x6e396a77: wait ; ret ; (1 found)
0x6e396a85: wait ; ret ; (1 found)
0x6e397c26: wait ; ret ; (1 found)
0x6e39bae6: wait ; ret ; (1 found)
0x6e3a2593: wait ; ret ; (1 found)
0x6e3a26c4: wait ; ret ; (1 found)
0x6e3a26d6: wait ; ret ; (1 found)
0x6e38e96c: wait ; retn 0x440F ; (1 found)
0x6e395f24: wait ; retn 0x440F ; (1 found)
0x6e397137: wait ; retn 0x440F ; (1 found)
0x6e397180: wait ; retn 0x440F ; (1 found)
0x6e3983b6: wait ; retn 0x440F ; (1 found)
0x6e39ae13: wait ; retn 0x440F ; (1 found)
0x6e39c229: wait ; retn 0x440F ; (1 found)
0x6e39cd01: wait ; retn 0x440F ; (1 found)
0x6e39d9bd: wait ; retn 0x440F ; (1 found)
0x6e39dcc2: wait ; retn 0x440F ; (1 found)
0x6e38e6a4: wait ; retn 0x450F ; (1 found)
0x6e38e958: wait ; retn 0x450F ; (1 found)
0x6e38e99b: wait ; retn 0x450F ; (1 found)
0x6e38e9b0: wait ; retn 0x450F ; (1 found)
0x6e38ec4d: wait ; retn 0x450F ; (1 found)
0x6e38ec5f: wait ; retn 0x450F ; (1 found)
0x6e395ee6: wait ; retn 0x450F ; (1 found)
0x6e395ef6: wait ; retn 0x450F ; (1 found)
0x6e395f10: wait ; retn 0x450F ; (1 found)
0x6e396df5: wait ; retn 0x450F ; (1 found)
0x6e397123: wait ; retn 0x450F ; (1 found)
0x6e39716b: wait ; retn 0x450F ; (1 found)
0x6e3974ad: wait ; retn 0x450F ; (1 found)
0x6e3974bf: wait ; retn 0x450F ; (1 found)
0x6e398139: wait ; retn 0x450F ; (1 found)
0x6e39a3fa: wait ; retn 0x450F ; (1 found)
0x6e39a40c: wait ; retn 0x450F ; (1 found)
0x6e39ae01: wait ; retn 0x450F ; (1 found)
0x6e39bfcf: wait ; retn 0x450F ; (1 found)
0x6e39c21b: wait ; retn 0x450F ; (1 found)
0x6e39cce9: wait ; retn 0x450F ; (1 found)
0x6e39ce93: wait ; retn 0x450F ; (1 found)
0x6e39dc3c: wait ; retn 0x450F ; (1 found)
0x6e39dcaa: wait ; retn 0x450F ; (1 found)
0x6e39dd98: wait ; retn 0x450F ; (1 found)
0x6e3a2ca5: wait ; retn 0x450F ; (1 found)
0x6e3a2e7c: wait ; retn 0x450F ; (1 found)
0x6e3a304c: wait ; retn 0x450F ; (1 found)
0x6e3a3207: wait ; retn 0x450F ; (1 found)
0x6e3a35ee: wait ; retn 0x450F ; (1 found)
0x6e3a37a3: wait ; retn 0x450F ; (1 found)
0x6e38e695: wait ; retn 0x45DD ; (1 found)
0x6e3983a8: wait ; retn 0xD189 ; (1 found)
0x6e391251: wait ; retn 0xD689 ; (1 found)
0x6e391270: wait ; retn 0xD689 ; (1 found)
0x6e393541: wait ; retn 0xD689 ; (1 found)
0x6e393560: wait ; retn 0xD689 ; (1 found)
0x6e397bb7: wait ; retn 0xD689 ; (1 found)
0x6e397bd4: wait ; retn 0xD689 ; (1 found)
0x6e397c0b: wait ; retn 0xD689 ; (1 found)
0x6e39ba77: wait ; retn 0xD689 ; (1 found)
0x6e39ba94: wait ; retn 0xD689 ; (1 found)
0x6e39bacb: wait ; retn 0xD689 ; (1 found)
0x6e3a334a: wait ; ror byte [edi], 0x45 ; ret ; (1 found)
0x6e39d247: wait ; ror byte [edi], 0x45 ; retn 0x548B ; (1 found)
0x6e39e007: wait ; ror byte [edi], 0x45 ; retn 0x548B ; (1 found)
0x6e38d9ed: wait ; ror byte [edi], 0x45 ; retn 0xC085 ; (1 found)
0x6e38d9fd: wait ; ror byte [edi], 0x45 ; retn 0xC085 ; (1 found)
0x6e38da17: wait ; ror byte [edi], 0x45 ; retn 0xC085 ; (1 found)
0x6e38da32: wait ; ror byte [edi], 0x45 ; retn 0xC085 ; (1 found)
0x6e38db31: wait ; ror byte [edi], 0x45 ; retn 0xC085 ; (1 found)
0x6e396041: wait ; ror byte [edi], 0x45 ; retn 0xC085 ; (1 found)
0x6e3965e7: wait ; ror byte [edi], 0x45 ; retn 0xC085 ; (1 found)
0x6e3965f5: wait ; ror byte [edi], 0x45 ; retn 0xC085 ; (1 found)
0x6e39d991: wait ; ror byte [edi], 0x45 ; retn 0xC085 ; (1 found)
0x6e38e459: xchg ch, bl ; fcomp st0, st5 ; fadd  [ebx+0x5E5B4CC4] ; pop edi ; pop ebp ; ret ; (1 found)
0x6e396b89: xchg ch, bl ; fcomp st0, st5 ; fadd  [ebx+0x5E5B4CC4] ; pop edi ; pop ebp ; ret ; (1 found)
0x6e395c0e: xchg ch, bl ; fcomp st0, st5 ; fcomp st0, st5 ; fadd  [ebx+0x5E5B18C4] ; pop edi ; ret ; (1 found)
0x6e3884eb: xchg eax, ebp ; ret ; (1 found)
0x6e388deb: xchg eax, ebp ; ret ; (1 found)
0x6e389d2f: xchg eax, ebp ; ret ; (1 found)
0x6e38c953: xchg eax, ebp ; ret ; (1 found)
0x6e39f5e1: xchg eax, ebp ; retn 0xC085 ; (1 found)
0x6e38b258: xchg eax, ebp ; retn 0xDB85 ; (1 found)
0x6e398892: xchg eax, ebp ; rol  [ebp+0x0FCE89D2], 0xFFFFFF8E ; retn 0x0002 ; (1 found)
0x6e3a42f0: xchg eax, ebx ; cmp ch, byte [esi+0x01] ; add byte [eax], al ; add byte [eax+0x00000001], bh ; add esp, 0x1C ; ret ; (1 found)
0x6e3a3d86: xchg eax, ebx ; cmp ch, byte [esi-0x75] ; inc esp ; sbb byte [ecx+ecx*4], al ; add al, 0x24 ; call  [0x6E3AB160] ; (1 found)
0x6e3967ca: xchg eax, esi ; idiv bh ; jmp  [esi-0x70] ; (1 found)
0x6e39cea9: xchg eax, esp ; add byte [eax], al ; add byte [ecx], ah ; retn 0x848B ; (1 found)
0x6e3a4832: xchg eax, esp ; mov cl, 0x3A ; outsb ; nop ; nop ; jmp  [0x6E3AB190] ; (1 found)
0x6e38230c: xchg eax, esp ; ret ; (1 found)
0x6e384e90: xchg eax, esp ; ret ; (1 found)
0x6e385963: xchg eax, esp ; ret ; (1 found)
0x6e385a73: xchg eax, esp ; ret ; (1 found)
0x6e388348: xchg eax, esp ; ret ; (1 found)
0x6e3884db: xchg eax, esp ; ret ; (1 found)
0x6e388c55: xchg eax, esp ; ret ; (1 found)
0x6e388ddb: xchg eax, esp ; ret ; (1 found)
0x6e3894b2: xchg eax, esp ; ret ; (1 found)
0x6e389d1f: xchg eax, esp ; ret ; (1 found)
0x6e38a380: xchg eax, esp ; ret ; (1 found)
0x6e38a3da: xchg eax, esp ; ret ; (1 found)
0x6e38b920: xchg eax, esp ; ret ; (1 found)
0x6e38b97e: xchg eax, esp ; ret ; (1 found)
0x6e38c7b9: xchg eax, esp ; ret ; (1 found)
0x6e38c947: xchg eax, esp ; ret ; (1 found)
0x6e38b249: xchg eax, esp ; retn 0xB60F ; (1 found)
0x6e3a39b2: xchg eax, esp ; rol byte [ebx-0x49F0E33C], 0xC0 ; neg eax ; ret ; (1 found)
0x6e383e28: xchg eax, esp ; ror byte [ecx+0x0F1B74C5], 0xB6 ; ret ; (1 found)
0x6e386c35: xchg eax, esp ; sal  [edi+ebx+0x0F], 0xFFFFFFB6 ; retn 0x788D ; (1 found)
0x6e3915fe: xor  [eax-0x7C07BF23], edx ; retn 0x8301 ; (1 found)
0x6e392b9b: xor al, 0x01 ; ret ; (1 found)
0x6e39310e: xor al, 0x01 ; ret ; (1 found)
0x6e381493: xor al, 0x24 ; call  [0x6E3AB12C] ; (1 found)
0x6e3a414a: xor al, 0x24 ; call eax ; (1 found)
0x6e396170: xor al, 0x39 ; ret ; (1 found)
0x6e383536: xor al, 0x83 ; ret ; (1 found)
0x6e391aa4: xor al, 0x83 ; ret ; (1 found)
0x6e39864f: xor al, 0x85 ; ror byte [edi], 0x8E ; ret ; (1 found)
0x6e38ae33: xor al, 0x89 ; ret ; (1 found)
0x6e391701: xor al, 0x89 ; ret ; (1 found)
0x6e391fef: xor al, 0x89 ; ret ; (1 found)
0x6e39229d: xor al, 0x89 ; ret ; (1 found)
0x6e383413: xor al, 0xDD ; add byte [ebx-0x1E26D33C], al ; ret ; (1 found)
0x6e391fdf: xor byte [ebx+0x0F242444], cl ; lea edi,  [ebx+0x01000002] ; fmul  [ebx-0x76CBDBAC] ; ret ; (1 found)
0x6e39616c: xor byte [ebx+0x39342444], cl ; ret ; (1 found)
0x6e3a3de8: xor byte [ebx+0x5E], bl ; pop edi ; ret ; (1 found)
0x6e3a3a9b: xor byte [ecx-0x137C91C6], dh ; add al, 0x8B ; pop esp ; and al, 0x10 ; xor ebx,  [esp+0x14] ; call  [0x6E3AB11C] ; (1 found)
0x6e392297: xor byte [ecx], al ; fmul  [ecx-0x76CBDBBC] ; ret ; (1 found)
0x6e393eb9: xor byte [ecx], al ; ret ; (1 found)
0x6e39dd96: xor byte [edi], cl ; wait ; retn 0x450F ; (1 found)
0x6e39c0a7: xor ch, bl ; inc ebp ; add cl, bl ; ret ; (1 found)
0x6e392bc0: xor cl, bl ; ret ; (1 found)
0x6e393131: xor cl, bl ; ret ; (1 found)
0x6e39e3c4: xor dh, bl ; retn 0x02DD ; (1 found)
0x6e389a3d: xor eax, 0xDD000001 ; sbb byte [ecx-0x7C8BDBBC], cl ; les ecx,  [ebx+ebx*2+0x5E] ; pop edi ; pop ebp ; ret ; (1 found)
0x6e3a4935: xor eax, eax ; add esp, 0x3C ; ret ; (1 found)
0x6e38d010: xor eax, eax ; pop ebx ; pop esi ; ret ; (1 found)
0x6e38d296: xor eax, eax ; pop ebx ; pop esi ; ret ; (1 found)
0x6e3a43a8: xor eax, eax ; pop ebx ; pop esi ; ret ; (1 found)
0x6e381031: xor eax, eax ; pop ebx ; ret ; (1 found)
0x6e3a4204: xor eax, eax ; pop ebx ; ret ; (1 found)
0x6e3a4254: xor eax, eax ; pop ebx ; ret ; (1 found)
0x6e3a3c70: xor eax, eax ; ret ; (1 found)
0x6e3a433b: xor eax, eax ; ret ; (1 found)
0x6e3a435b: xor eax, eax ; ret ; (1 found)
0x6e3a41d6: xor eax, eax ; sub esp, 0x04 ; add esp, 0x18 ; pop ebx ; ret ; (1 found)
0x6e3a3aa6: xor ebx,  [esp+0x14] ; call  [0x6E3AB11C] ; (1 found)
0x6e3a4673: xor edi, edi ; mov eax, edi ; pop ebx ; pop esi ; pop edi ; ret ; (1 found)
0x6e3a4537: xor esi, esi ; mov eax, esi ; pop ebx ; pop esi ; ret ; (1 found)
