Trying to open 'C:\Program Files\R\R-3.4.4\bin\i386\Riconv.dll'..
Loading PE information..
FileFormat: PE, Arch: x86

Wait a few seconds, rp++ is looking for gadgets (2 threads max)..
A total of 2579 gadgets found.
0x643c14d5: aaa ; pushad ; cmp al, 0x64 ; mov  [esp+0x00], eax ; call  [0x643CB134] ; (1 found)
0x643c4332: aam 0xB1 ; cmp al, 0x64 ; nop ; nop ; jmp  [0x643CB1D0] ; (1 found)
0x643c386f: adc  [ebx+0x3B7401F8], eax ; add esp, 0x18 ; mov eax, 0x00000001 ; pop ebx ; retn 0x000C ; (1 found)
0x643c3131: adc al, 0x0F ; test byte [ebp+edi*8-0x01], ah ; inc edi ; inc esp ; and al, 0x04 ; retn 0x3C60 ; (1 found)
0x643c2e95: adc al, 0x0F ; test esi, ebp ; add  [eax], eax ; add byte [ebx-0x16FEFBB6], al ; retn 0x0000 ; (1 found)
0x643c1153: adc al, 0x24 ; call eax ; (1 found)
0x643c27d3: adc al, 0x24 ; mov  [esp+0x08], ecx ; call eax ; (1 found)
0x643c3437: adc al, 0x5B ; pop esi ; ret ; (1 found)
0x643c2fec: adc al, 0x89 ; add al, 0x24 ; call  [0x643CB148] ; (1 found)
0x643c21ae: adc al, 0x89 ; fcomp  [ebx+0x5E] ; ret ; (1 found)
0x643c21f3: adc al, 0x89 ; fcomp  [ebx+0x5E] ; ret ; (1 found)
0x643c3a2a: adc al, 0x89 ; pop esp ; and al, 0x0C ; mov  [esp+0x00], eax ; call  [0x643CB170] ; (1 found)
0x643c3267: adc al, 0x8B ; xor eax, 0x643CB134 ; mov  [esp+0x04], 0x643C60D7 ; mov  [esp+0x00], eax ; call esi ; (1 found)
0x643c331a: adc al, 0x8B ; xor eax, 0x643CB134 ; mov  [esp+0x04], 0x643C60D7 ; mov  [esp+0x00], eax ; call esi ; (1 found)
0x643c1550: adc al, 0xB1 ; cmp al, 0x64 ; sub esp, 0x04 ; leave ; ret ; (1 found)
0x643c3245: adc al, 0xC7 ; add al, 0x24 ; int 0x60 ; cmp al, 0x64 ; call  [0x643CB150] ; (1 found)
0x643c32f8: adc al, 0xC7 ; add al, 0x24 ; int 0x60 ; cmp al, 0x64 ; call  [0x643CB150] ; (1 found)
0x643c311e: adc al, 0xC7 ; inc esp ; and al, 0x04 ; mov esp, 0x89643C60 ; sub al, 0x24 ; call ebx ; (1 found)
0x643c3709: adc al, 0xFF ; adc eax, 0x643CB124 ; mov ebp, eax ; call  [0x643CB128] ; (1 found)
0x643c380f: adc byte [eax+0x00000001], bh ; add esp, 0x1C ; retn 0x000C ; (1 found)
0x643c1163: adc byte [eax+0x00000001], bh ; pop ebx ; pop esi ; pop edi ; retn 0x000C ; (1 found)
0x643c2983: adc byte [eax-0x3B7CFDBD], cl ; and byte [eax+0x00000004], bh ; pop ebx ; pop esi ; pop edi ; ret ; (1 found)
0x643c18e0: adc byte [ebp-0x76C7DBBC], cl ; inc esp ; and al, 0x0C ; lea eax,  [esp+0x3C] ; mov  [esp+0x00], eax ; call  [0x643C902C] ; (1 found)
0x643c3a3a: adc byte [ebp-0x7CEA8B40], al ; add eax, 0x643C93D8 ; add  [ebx+0x5E5B30C4], eax ; pop edi ; ret ; (1 found)
0x643c1457: adc byte [ebx+0x3CB1301D], cl ; mov  [fs:esp+0x00], 0x643C6000 ; call ebx ; (1 found)
0x643c3531: adc byte [ebx+0x5E], bl ; pop edi ; ret ; (1 found)
0x643c10b0: adc byte [ebx+0x5E], bl ; pop edi ; retn 0x000C ; (1 found)
0x643c11ed: adc byte [ebx+0x5E], bl ; pop edi ; retn 0x000C ; (1 found)
0x643c3705: adc byte [ebx], dh ; pop esp ; and al, 0x14 ; call  [0x643CB124] ; (1 found)
0x643c348b: adc byte [ecx+0x5F5E5BF0], cl ; ret ; (1 found)
0x643c21a3: adc byte [ecx], dh ; sal byte [ecx], cl ; fild  [ebp-0x7CDE8A40] ; les edx,  [ecx+ecx*4] ; fcomp  [ebx+0x5E] ; ret ; (1 found)
0x643c421d: adc cl, byte [ebx-0x2F08DBC0] ; shr eax, 0x1F ; add esp, 0x08 ; ret ; (1 found)
0x643c3519: adc eax, 0x08247489 ; mov  [esp+0x04], ebx ; mov  [esp+0x00], 0x00000001 ; call edi ; (1 found)
0x643c154f: adc eax, 0x643CB114 ; sub esp, 0x04 ; leave ; ret ; (1 found)
0x643c37d9: adc eax, 0x643CB120 ; mov  [esp+0x04], 0xC0000409 ; mov  [esp+0x00], eax ; call  [0x643CB164] ; (1 found)
0x643c370b: adc eax, 0x643CB124 ; mov ebp, eax ; call  [0x643CB128] ; (1 found)
0x643c3713: adc eax, 0x643CB128 ; mov edi, eax ; call  [0x643CB13C] ; (1 found)
0x643c36fa: adc eax, 0x643CB138 ; sub esp, 0x04 ; mov ebx,  [esp+0x10] ; xor ebx,  [esp+0x14] ; call  [0x643CB124] ; (1 found)
0x643c371b: adc eax, 0x643CB13C ; mov esi, eax ; lea eax,  [esp+0x18] ; mov  [esp+0x00], eax ; call  [0x643CB158] ; (1 found)
0x643c3ea9: adc eax, 0x643CB14C ; sub esp, 0x04 ; add esp, 0x18 ; xor eax, eax ; pop ebx ; ret ; (1 found)
0x643c3e31: adc eax, 0x643CB14C ; xor eax, eax ; sub esp, 0x04 ; add esp, 0x18 ; pop ebx ; ret ; (1 found)
0x643c147d: adc eax, 0x643CB150 ; sub esp, 0x04 ; mov  [0x643C9404], eax ; mov  [esp+0x04], 0x643C6013 ; mov  [esp+0x00], esi ; call  [0x643CB134] ; (1 found)
0x643c37c0: adc eax, 0x643CB15C ; sub esp, 0x04 ; mov  [esp+0x00], 0x643C6E54 ; call  [0x643CB16C] ; (1 found)
0x643c37d0: adc eax, 0x643CB16C ; sub esp, 0x04 ; call  [0x643CB120] ; (1 found)
0x643c34d5: adc eax, 0x643CB188 ; mov edi, eax ; call  [ebx+0x0C] ; (1 found)
0x643c35e8: adc eax, 0x643CB198 ; add esp, 0x28 ; pop ebx ; ret ; (1 found)
0x643c380a: adc eax, 0x7403F883 ; adc byte [eax+0x00000001], bh ; add esp, 0x1C ; retn 0x000C ; (1 found)
0x643c3a3e: adc eax, 0x93D80583 ; cmp al, 0x64 ; add  [ebx+0x5E5B30C4], eax ; pop edi ; ret ; (1 found)
0x643c1ebc: adc ecx,  [ebp+0x04B8D050] ; add byte [eax], al ; add byte [eax-0x3A89F606], al ; lea esi,  [esi+0x00000000] ; call  [0x643CB188] ; (1 found)
0x643c148e: adc esp,  [eax+0x3C] ; mov  [fs:esp+0x00], esi ; call  [0x643CB134] ; (1 found)
0x643c3a3f: add  [0x643C93D8], 0x01 ; add esp, 0x30 ; pop ebx ; pop esi ; pop edi ; ret ; (1 found)
0x643c3cbe: add  [eax], 0x83643C00 ; ret ; (1 found)
0x643c3f0d: add  [eax], eax ; add byte [eax], al ; add esp, 0x1C ; ret ; (1 found)
0x643c3f58: add  [eax], eax ; add byte [eax], al ; add esp, 0x1C ; ret ; (1 found)
0x643c3811: add  [eax], eax ; add byte [eax], al ; add esp, 0x1C ; retn 0x000C ; (1 found)
0x643c3839: add  [eax], eax ; add byte [eax], al ; add esp, 0x1C ; retn 0x000C ; (1 found)
0x643c3525: add  [eax], eax ; add byte [eax], al ; call edi ; (1 found)
0x643c3f53: add  [eax], eax ; add byte [eax], al ; mov eax, 0x00000001 ; add esp, 0x1C ; ret ; (1 found)
0x643c1165: add  [eax], eax ; add byte [eax], al ; pop ebx ; pop esi ; pop edi ; retn 0x000C ; (1 found)
0x643c1039: add  [eax], eax ; add byte [eax], al ; pop ebx ; ret ; (1 found)
0x643c3879: add  [eax], eax ; add byte [eax], al ; pop ebx ; retn 0x000C ; (1 found)
0x643c38a7: add  [eax], eax ; add byte [eax], al ; pop ebx ; retn 0x000C ; (1 found)
0x643c1571: add  [eax], eax ; add byte [eax], al ; ret ; (1 found)
0x643c4311: add  [eax], eax ; add byte [eax], al ; retn 0x000C ; (1 found)
0x643c4321: add  [eax], eax ; add byte [eax], al ; retn 0x000C ; (1 found)
0x643c2e99: add  [eax], eax ; add byte [ebx-0x16FEFBB6], al ; retn 0x0000 ; (1 found)
0x643c31ef: add  [eax], eax ; add byte [ecx-0x76FBDBBC], cl ; sub al, 0x24 ; call esi ; (1 found)
0x643c3f25: add  [ebp-0x1C], esi ; mov  [0x643C93E4], 0x00000000 ; mov  [esp+0x00], 0x643C93E8 ; call  [0x643CB10C] ; (1 found)
0x643c1160: add  [ebx+0x01B810C4], eax ; add byte [eax], al ; add byte [ebx+0x5E], bl ; pop edi ; retn 0x000C ; (1 found)
0x643c3a45: add  [ebx+0x5E5B30C4], eax ; pop edi ; ret ; (1 found)
0x643c3872: add  [ebx+edi-0x7D], esi ; les ebx,  [eax] ; mov eax, 0x00000001 ; pop ebx ; retn 0x000C ; (1 found)
0x643c2142: add  [ecx], ebx ; rol byte [ebx+0x443B02C0], 0x24 ; sub byte [edi+0x04], bh ; add esp, 0x1C ; ret ; (1 found)
0x643c3f52: add  [fs:eax], eax ; add byte [eax], al ; mov eax, 0x00000001 ; add esp, 0x1C ; ret ; (1 found)
0x643c115f: add  [fs:ebx+0x01B810C4], eax ; add byte [eax], al ; add byte [ebx+0x5E], bl ; pop edi ; retn 0x000C ; (1 found)
0x643c3a44: add  [fs:ebx+0x5E5B30C4], eax ; pop edi ; ret ; (1 found)
0x643c2369: add al, 0x00 ; add byte [eax], al ; pop ebx ; pop esi ; pop edi ; ret ; (1 found)
0x643c23cd: add al, 0x00 ; add byte [eax], al ; pop ebx ; pop esi ; pop edi ; ret ; (1 found)
0x643c2446: add al, 0x00 ; add byte [eax], al ; pop ebx ; pop esi ; pop edi ; ret ; (1 found)
0x643c298b: add al, 0x00 ; add byte [eax], al ; pop ebx ; pop esi ; pop edi ; ret ; (1 found)
0x643c2c14: add al, 0x00 ; add byte [eax], al ; pop ebx ; pop esi ; pop edi ; ret ; (1 found)
0x643c14a5: add al, 0x04 ; nop ; cmp al, 0x64 ; mov  [esp+0x00], 0x643C8150 ; call eax ; (1 found)
0x643c329b: add al, 0x07 ; popad ; cmp al, 0x64 ; mov  [esp+0x00], ebx ; call esi ; (1 found)
0x643c334e: add al, 0x07 ; popad ; cmp al, 0x64 ; mov  [esp+0x00], ebx ; call esi ; (1 found)
0x643c148d: add al, 0x13 ; pushad ; cmp al, 0x64 ; mov  [esp+0x00], esi ; call  [0x643CB134] ; (1 found)
0x643c3523: add al, 0x24 ; add  [eax], eax ; add byte [eax], al ; call edi ; (1 found)
0x643c1507: add al, 0x24 ; add byte [eax+0x3C], ah ; call  [fs:0x643CB130] ; (1 found)
0x643c1476: add al, 0x24 ; add byte [eax+0x3C], ah ; call  [fs:0x643CB150] ; (1 found)
0x643c145f: add al, 0x24 ; add byte [eax+0x3C], ah ; call ebx ; (1 found)
0x643c1760: add al, 0x24 ; call  [0x643C9028] ; (1 found)
0x643c1b1a: add al, 0x24 ; call  [0x643C9028] ; (1 found)
0x643c18ee: add al, 0x24 ; call  [0x643C902C] ; (1 found)
0x643c154c: add al, 0x24 ; call  [0x643CB114] ; (1 found)
0x643c300c: add al, 0x24 ; call  [0x643CB11C] ; (1 found)
0x643c14da: add al, 0x24 ; call  [0x643CB134] ; (1 found)
0x643c1528: add al, 0x24 ; call  [0x643CB134] ; (1 found)
0x643c36f7: add al, 0x24 ; call  [0x643CB138] ; (1 found)
0x643c2135: add al, 0x24 ; call  [0x643CB144] ; (1 found)
0x643c2fee: add al, 0x24 ; call  [0x643CB148] ; (1 found)
0x643c3727: add al, 0x24 ; call  [0x643CB158] ; (1 found)
0x643c37e7: add al, 0x24 ; call  [0x643CB164] ; (1 found)
0x643c3a30: add al, 0x24 ; call  [0x643CB170] ; (1 found)
0x643c3c56: add al, 0x24 ; call  [0x643CB170] ; (1 found)
0x643c39ee: add al, 0x24 ; call  [0x643CB174] ; (1 found)
0x643c3c25: add al, 0x24 ; call  [0x643CB174] ; (1 found)
0x643c35e5: add al, 0x24 ; call  [0x643CB198] ; (1 found)
0x643c346d: add al, 0x24 ; call  [ebx+0x04] ; (1 found)
0x643c34cd: add al, 0x24 ; call  [ebx+0x08] ; (1 found)
0x643c253c: add al, 0x24 ; call  [esi+0x18] ; (1 found)
0x643c265a: add al, 0x24 ; call  [esi+0x3C] ; (1 found)
0x643c3d93: add al, 0x24 ; call ebp ; (1 found)
0x643c3277: add al, 0x24 ; call esi ; (1 found)
0x643c332a: add al, 0x24 ; call esi ; (1 found)
0x643c3247: add al, 0x24 ; int 0x60 ; cmp al, 0x64 ; call  [0x643CB150] ; (1 found)
0x643c32fa: add al, 0x24 ; int 0x60 ; cmp al, 0x64 ; call  [0x643CB150] ; (1 found)
0x643c1dee: add al, 0x24 ; mov  [esp+0x08], edx ; call  [0x643CB178] ; (1 found)
0x643c22b5: add al, 0x24 ; mov  [esp+0x10], ecx ; call  [0x643CB154] ; (1 found)
0x643c14ec: add al, 0x24 ; pop eax ; pop ebp ; cmp al, 0x64 ; call edx ; (1 found)
0x643c37c9: add al, 0x24 ; push esp ; outsb ; cmp al, 0x64 ; call  [0x643CB16C] ; (1 found)
0x643c14bd: add al, 0x24 ; sub  [eax+0x3C], esp ; call ebx ; (1 found)
0x643c32b0: add al, 0x25 ; popad ; cmp al, 0x64 ; mov  [esp+0x00], ebx ; call esi ; (1 found)
0x643c3363: add al, 0x25 ; popad ; cmp al, 0x64 ; mov  [esp+0x00], ebx ; call esi ; (1 found)
0x643c14d4: add al, 0x37 ; pushad ; cmp al, 0x64 ; mov  [esp+0x00], eax ; call  [0x643CB134] ; (1 found)
0x643c32c5: add al, 0x42 ; popad ; cmp al, 0x64 ; mov  [esp+0x00], ebx ; call esi ; (1 found)
0x643c3378: add al, 0x42 ; popad ; cmp al, 0x64 ; mov  [esp+0x00], ebx ; call esi ; (1 found)
0x643c1522: add al, 0x4B ; pushad ; cmp al, 0x64 ; mov  [esp+0x00], eax ; call  [0x643CB134] ; (1 found)
0x643c32da: add al, 0x51 ; popad ; cmp al, 0x64 ; mov  [esp+0x00], ebx ; call esi ; (1 found)
0x643c338d: add al, 0x51 ; popad ; cmp al, 0x64 ; mov  [esp+0x00], ebx ; call esi ; (1 found)
0x643c3fb3: add al, 0x66 ; cmp  [eax], 0x05745A4D ; xor eax, eax ; ret ; (1 found)
0x643c2eac: add al, 0x6E ; pushad ; cmp al, 0x64 ; mov  [esp+0x00], esi ; call  [0x643CB1A0] ; (1 found)
0x643c2ed3: add al, 0x77 ; pushad ; cmp al, 0x64 ; mov  [esp+0x00], esi ; call  [0x643CB1A0] ; (1 found)
0x643c2de7: add al, 0x81 ; pushad ; cmp al, 0x64 ; mov  [esp+0x00], esi ; call  [0x643CB1A0] ; (1 found)
0x643c1b90: add al, 0x81 ; retn 0x5000 ; (1 found)
0x643c3e3a: add al, 0x83 ; les ebx,  [eax] ; pop ebx ; ret ; (1 found)
0x643c3eb0: add al, 0x83 ; les ebx,  [eax] ; xor eax, eax ; pop ebx ; ret ; (1 found)
0x643c214d: add al, 0x83 ; les ebx,  [ebx+eax*8] ; call  [0x643CB188] ; (1 found)
0x643c3dc4: add al, 0x83 ; les ebx,  [ebx+ebx*2] ; pop esi ; pop edi ; pop ebp ; ret ; (1 found)
0x643c14c7: add al, 0x85 ; sar byte [edx+0x00000000], 0x74 ; push ss ; mov  [esp+0x04], 0x643C6037 ; mov  [esp+0x00], eax ; call  [0x643CB134] ; (1 found)
0x643c1515: add al, 0x85 ; sar byte [edx+0x00000000], 0x74 ; push ss ; mov  [esp+0x04], 0x643C604B ; mov  [esp+0x00], eax ; call  [0x643CB134] ; (1 found)
0x643c39ec: add al, 0x89 ; add al, 0x24 ; call  [0x643CB174] ; (1 found)
0x643c3c23: add al, 0x89 ; add al, 0x24 ; call  [0x643CB174] ; (1 found)
0x643c22b3: add al, 0x89 ; add al, 0x24 ; mov  [esp+0x10], ecx ; call  [0x643CB154] ; (1 found)
0x643c1e18: add al, 0x89 ; sbb al, 0x24 ; call  [ebx+0x10] ; (1 found)
0x643c1fc5: add al, 0x89 ; sbb al, 0x24 ; mov  [esp+0x08], eax ; call  [ebx+0x10] ; (1 found)
0x643c3e1f: add al, 0x89 ; sbb eax, 0x643C93E0 ; mov  [esp+0x00], 0x643C93E8 ; mov  [ebx+0x08], eax ; call  [0x643CB14C] ; (1 found)
0x643c31f5: add al, 0x89 ; sub al, 0x24 ; call esi ; (1 found)
0x643c223a: add al, 0x89 ; sub al, 0x24 ; mov  [esp+0x08], eax ; call  [ebp+0x10] ; (1 found)
0x643c3da8: add al, 0x89 ; xor al, 0x24 ; call eax ; (1 found)
0x643c34c9: add al, 0x8B ; add ecx,  [ecx+0x53FF2404] ; or byte [ecx-0x77EA003A], cl ; mov cl, 0x3C ; mov edi, eax ; call  [ebx+0x0C] ; (1 found)
0x643c3c20: add al, 0x8B ; inc eax ; add al, 0x89 ; add al, 0x24 ; call  [0x643CB174] ; (1 found)
0x643c3c51: add al, 0x8B ; inc ebp ; int3 ; mov  [esp+0x00], eax ; call  [0x643CB170] ; (1 found)
0x643c3a26: add al, 0x8B ; inc esp ; and al, 0x14 ; mov  [esp+0x0C], ebx ; mov  [esp+0x00], eax ; call  [0x643CB170] ; (1 found)
0x643c212d: add al, 0x8B ; inc esp ; and al, 0x20 ; mov eax,  [eax] ; mov  [esp+0x00], eax ; call  [0x643CB144] ; (1 found)
0x643c3701: add al, 0x8B ; pop esp ; and al, 0x10 ; xor ebx,  [esp+0x14] ; call  [0x643CB124] ; (1 found)
0x643c2651: add al, 0x8D ; inc esi ; xor byte [ecx-0x76F3DBAC], cl ; add al, 0x24 ; call  [esi+0x3C] ; (1 found)
0x643c1b14: add al, 0x8D ; inc esp ; and al, 0x3C ; mov  [esp+0x00], eax ; call  [0x643C9028] ; (1 found)
0x643c27ce: add al, 0x8D ; push esi ; xor byte [ecx+0x4C892414], cl ; and al, 0x08 ; call eax ; (1 found)
0x643c2b6e: add al, 0x90 ; add esp, 0x20 ; pop ebx ; pop esi ; pop edi ; ret ; (1 found)
0x643c14a6: add al, 0x90 ; cmp al, 0x64 ; mov  [esp+0x00], 0x643C8150 ; call eax ; (1 found)
0x643c1486: add al, 0x94 ; cmp al, 0x64 ; mov  [esp+0x04], 0x643C6013 ; mov  [esp+0x00], esi ; call  [0x643CB134] ; (1 found)
0x643c316f: add al, 0x97 ; pushad ; cmp al, 0x64 ; mov  [esp+0x00], ebp ; mov ebx,  [0x643CB1A4] ; call ebx ; (1 found)
0x643c31a9: add al, 0x9A ; pushad ; cmp al, 0x64 ; mov  [esp+0x00], ebp ; call ebx ; (1 found)
0x643c2e80: add al, 0x9D ; pushad ; cmp al, 0x64 ; mov  [esp+0x00], ebp ; mov ebx,  [0x643CB1A0] ; call ebx ; (1 found)
0x643c39e3: add al, 0xA1 ; fcom qword [ebx+0x448B643C] ; sbb byte [ecx+ecx*4], al ; add al, 0x24 ; call  [0x643CB174] ; (1 found)
0x643c1484: add al, 0xA3 ; add al, 0x94 ; cmp al, 0x64 ; mov  [esp+0x04], 0x643C6013 ; mov  [esp+0x00], esi ; call  [0x643CB134] ; (1 found)
0x643c3091: add al, 0xA4 ; pushad ; cmp al, 0x64 ; mov  [esp+0x00], ebp ; call ebx ; (1 found)
0x643c30aa: add al, 0xAA ; pushad ; cmp al, 0x64 ; mov  [esp+0x00], ebp ; call ebx ; (1 found)
0x643c30c3: add al, 0xB0 ; pushad ; cmp al, 0x64 ; mov  [esp+0x00], ebp ; call ebx ; (1 found)
0x643c30ff: add al, 0xB5 ; pushad ; cmp al, 0x64 ; mov  [esp+0x00], ebp ; mov ebx,  [0x643CB1A0] ; call ebx ; (1 found)
0x643c3122: add al, 0xBC ; pushad ; cmp al, 0x64 ; mov  [esp+0x00], ebp ; call ebx ; (1 found)
0x643c313b: add al, 0xC2 ; pushad ; cmp al, 0x64 ; mov  [esp+0x00], ebp ; call ebx ; (1 found)
0x643c38e3: add al, 0xC3 ; lea esi,  [esi+0x00] ; lea edi,  [edi+0x00000000] ; mov eax,  [esp+0x04] ; ret ; (1 found)
0x643c3521: add al, 0xC7 ; add al, 0x24 ; add  [eax], eax ; add byte [eax], al ; call edi ; (1 found)
0x643c37c7: add al, 0xC7 ; add al, 0x24 ; push esp ; outsb ; cmp al, 0x64 ; call  [0x643CB16C] ; (1 found)
0x643c1556: add al, 0xC9 ; ret ; (1 found)
0x643c3271: add al, 0xD7 ; pushad ; cmp al, 0x64 ; mov  [esp+0x00], eax ; call esi ; (1 found)
0x643c3324: add al, 0xD7 ; pushad ; cmp al, 0x64 ; mov  [esp+0x00], eax ; call esi ; (1 found)
0x643c3286: add al, 0xE9 ; pushad ; cmp al, 0x64 ; mov  [esp+0x00], ebx ; call esi ; (1 found)
0x643c3339: add al, 0xE9 ; pushad ; cmp al, 0x64 ; mov  [esp+0x00], ebx ; call esi ; (1 found)
0x643c37d7: add al, 0xFF ; adc eax, 0x643CB120 ; mov  [esp+0x04], 0xC0000409 ; mov  [esp+0x00], eax ; call  [0x643CB164] ; (1 found)
0x643c37e4: add al, al ; mov  [esp+0x00], eax ; call  [0x643CB164] ; (1 found)
0x643c1f88: add al, byte [eax] ; add byte [eax], al ; add esp, 0x0C ; ret ; (1 found)
0x643c3168: add al, byte [eax] ; add byte [eax], al ; mov  [esp+0x04], 0x643C6097 ; mov  [esp+0x00], ebp ; mov ebx,  [0x643CB1A4] ; call ebx ; (1 found)
0x643c31a2: add al, byte [eax] ; add byte [eax], al ; mov  [esp+0x04], 0x643C609A ; mov  [esp+0x00], ebp ; call ebx ; (1 found)
0x643c1146: add al, byte [eax] ; add byte [eax], al ; mov  [esp+0x08], edx ; mov edx,  [esp+0x20] ; mov  [esp+0x00], edx ; call eax ; (1 found)
0x643c408b: add al, byte [eax] ; add byte [ebp-0x7C218A40], al ; les ebx,  [ecx+ecx*4] ; fimul word [ecx+0x5F5E5BF0] ; pop ebp ; ret ; (1 found)
0x643c2986: add al, byte [ebx+0x04B820C4] ; add byte [eax], al ; add byte [ebx+0x5E], bl ; pop edi ; ret ; (1 found)
0x643c2a13: add al, byte [ebx+0x5E5B20C4] ; pop edi ; ret ; (1 found)
0x643c2e2c: add bh, al ; inc edx ; sbb al, 0x00 ; add byte [eax], al ; add byte [ecx-0x7BF0FBBE], cl ; ret ; (1 found)
0x643c3c91: add bh, bh ; jmp  [esi-0x7D] ; (1 found)
0x643c38cb: add bl, ch ; cmpsd ; nop ; xor eax, eax ; ret ; (1 found)
0x643c10a8: add byte [eax+0x00000001], bh ; add esp, 0x10 ; pop ebx ; pop esi ; pop edi ; retn 0x000C ; (1 found)
0x643c3f56: add byte [eax+0x00000001], bh ; add esp, 0x1C ; ret ; (1 found)
0x643c3837: add byte [eax+0x00000001], bh ; add esp, 0x1C ; retn 0x000C ; (1 found)
0x643c156f: add byte [eax+0x00000001], bh ; ret ; (1 found)
0x643c2367: add byte [eax+0x00000004], bh ; pop ebx ; pop esi ; pop edi ; ret ; (1 found)
0x643c23cb: add byte [eax+0x00000004], bh ; pop ebx ; pop esi ; pop edi ; ret ; (1 found)
0x643c2444: add byte [eax+0x00000004], bh ; pop ebx ; pop esi ; pop edi ; ret ; (1 found)
0x643c1067: add byte [eax+0x0FEB643C], dl ; lea esi,  [esi+0x00] ; mov  [esp+0x00], 0x000003E8 ; call esi ; (1 found)
0x643c1509: add byte [eax+0x3C], ah ; call  [fs:0x643CB130] ; (1 found)
0x643c1478: add byte [eax+0x3C], ah ; call  [fs:0x643CB150] ; (1 found)
0x643c1461: add byte [eax+0x3C], ah ; call ebx ; (1 found)
0x643c4306: add byte [eax+0x59], bl ; ret ; (1 found)
0x643c1ec4: add byte [eax-0x3A89F606], al ; lea esi,  [esi+0x00000000] ; call  [0x643CB188] ; (1 found)
0x643c4327: add byte [eax-0x6F6F6F70], dl ; nop ; nop ; nop ; jmp  [0x643CB1D4] ; (1 found)
0x643c4317: add byte [eax-0x6F6F6F70], dl ; nop ; nop ; nop ; mov eax, 0x00000001 ; retn 0x000C ; (1 found)
0x643c1c59: add byte [eax], 0x00 ; add byte [ebp-0x76], bh ; call  [0x643CB188] ; (1 found)
0x643c3f54: add byte [eax], al ; add byte [eax+0x00000001], bh ; add esp, 0x1C ; ret ; (1 found)
0x643c156d: add byte [eax], al ; add byte [eax+0x00000001], bh ; ret ; (1 found)
0x643c2365: add byte [eax], al ; add byte [eax+0x00000004], bh ; pop ebx ; pop esi ; pop edi ; ret ; (1 found)
0x643c23c9: add byte [eax], al ; add byte [eax+0x00000004], bh ; pop ebx ; pop esi ; pop edi ; ret ; (1 found)
0x643c2442: add byte [eax], al ; add byte [eax+0x00000004], bh ; pop ebx ; pop esi ; pop edi ; ret ; (1 found)
0x643c1ec2: add byte [eax], al ; add byte [eax-0x3A89F606], al ; lea esi,  [esi+0x00000000] ; call  [0x643CB188] ; (1 found)
0x643c102a: add byte [eax], al ; add byte [eax], al ; add esp, 0x18 ; xor eax, eax ; pop ebx ; ret ; (1 found)
0x643c16db: add byte [eax], al ; add byte [eax], al ; call  [0x643CB188] ; (1 found)
0x643c16dc: add byte [eax], al ; add byte [eax], al ; call  [0x643CB188] ; (1 found)
0x643c16fc: add byte [eax], al ; add byte [eax], al ; call  [0x643CB188] ; (1 found)
0x643c1ecc: add byte [eax], al ; add byte [eax], al ; call  [0x643CB188] ; (1 found)
0x643c20fc: add byte [eax], al ; add byte [eax], al ; call  [0x643CB188] ; (1 found)
0x643c21fb: add byte [eax], al ; add byte [eax], al ; call  [0x643CB188] ; (1 found)
0x643c21fc: add byte [eax], al ; add byte [eax], al ; call  [0x643CB188] ; (1 found)
0x643c22ec: add byte [eax], al ; add byte [eax], al ; call  [0x643CB188] ; (1 found)
0x643c249c: add byte [eax], al ; add byte [eax], al ; call  [0x643CB188] ; (1 found)
0x643c2d1b: add byte [eax], al ; add byte [eax], al ; call  [0x643CB188] ; (1 found)
0x643c2d1c: add byte [eax], al ; add byte [eax], al ; call  [0x643CB188] ; (1 found)
0x643c1565: add byte [eax], al ; add byte [eax], al ; lea edi,  [edi+0x00000000] ; mov eax, 0x00000001 ; ret ; (1 found)
0x643c3f2e: add byte [eax], al ; add byte [eax], al ; mov  [esp+0x00], 0x643C93E8 ; call  [0x643CB10C] ; (1 found)
0x643c3e6b: add byte [eax], al ; add byte [eax], al ; mov  [esp+0x00], 0x643C93E8 ; call  [0x643CB110] ; (1 found)
0x643c3e6c: add byte [eax], al ; add byte [eax], al ; mov  [esp+0x00], 0x643C93E8 ; call  [0x643CB110] ; (1 found)
0x643c38ec: add byte [eax], al ; add byte [eax], al ; mov eax,  [esp+0x04] ; ret ; (1 found)
0x643c156c: add byte [eax], al ; add byte [eax], al ; mov eax, 0x00000001 ; ret ; (1 found)
0x643c1566: add byte [eax], al ; add byte [ebp+0x000027BC], cl ; add byte [eax], al ; mov eax, 0x00000001 ; ret ; (1 found)
0x643c3b9d: add byte [eax], al ; add byte [ebp+0x5E5BF465], cl ; pop edi ; pop ebp ; ret ; (1 found)
0x643c146e: add byte [eax], al ; add byte [ebp-0x38D68B0A], al ; add al, 0x24 ; add byte [eax+0x3C], ah ; call  [fs:0x643CB150] ; (1 found)
0x643c1c5a: add byte [eax], al ; add byte [ebp-0x76], bh ; call  [0x643CB188] ; (1 found)
0x643c15f2: add byte [eax], al ; add byte [ebx+0x5E5B0CC4], al ; pop edi ; pop ebp ; ret ; (1 found)
0x643c10ab: add byte [eax], al ; add byte [ebx+0x5E5B10C4], al ; pop edi ; retn 0x000C ; (1 found)
0x643c11e8: add byte [eax], al ; add byte [ebx+0x5E5B10C4], al ; pop edi ; retn 0x000C ; (1 found)
0x643c2945: add byte [eax], al ; add byte [ebx+0x5E5B20C4], al ; pop edi ; ret ; (1 found)
0x643c2801: add byte [eax], al ; add byte [ebx+0x5E5B6CC4], al ; pop edi ; pop ebp ; ret ; (1 found)
0x643c1679: add byte [eax], al ; add byte [ebx+0x5E], bl ; pop edi ; pop ebp ; ret ; (1 found)
0x643c16aa: add byte [eax], al ; add byte [ebx+0x5E], bl ; pop edi ; pop ebp ; ret ; (1 found)
0x643c1a09: add byte [eax], al ; add byte [ebx+0x5E], bl ; pop edi ; pop ebp ; ret ; (1 found)
0x643c1aa8: add byte [eax], al ; add byte [ebx+0x5E], bl ; pop edi ; pop ebp ; ret ; (1 found)
0x643c2fb1: add byte [eax], al ; add byte [ebx+0x5E], bl ; pop edi ; pop ebp ; ret ; (1 found)
0x643c236a: add byte [eax], al ; add byte [ebx+0x5E], bl ; pop edi ; ret ; (1 found)
0x643c23ce: add byte [eax], al ; add byte [ebx+0x5E], bl ; pop edi ; ret ; (1 found)
0x643c2447: add byte [eax], al ; add byte [ebx+0x5E], bl ; pop edi ; ret ; (1 found)
0x643c298c: add byte [eax], al ; add byte [ebx+0x5E], bl ; pop edi ; ret ; (1 found)
0x643c29f4: add byte [eax], al ; add byte [ebx+0x5E], bl ; pop edi ; ret ; (1 found)
0x643c2c15: add byte [eax], al ; add byte [ebx+0x5E], bl ; pop edi ; ret ; (1 found)
0x643c1166: add byte [eax], al ; add byte [ebx+0x5E], bl ; pop edi ; retn 0x000C ; (1 found)
0x643c17c0: add byte [eax], al ; add byte [ebx-0x2776BF3C], al ; pop ebx ; pop esi ; pop edi ; ret ; (1 found)
0x643c102b: add byte [eax], al ; add byte [ebx-0x3FCEE73C], al ; pop ebx ; ret ; (1 found)
0x643c39dd: add byte [eax], al ; add byte [ecx-0x5EFBDBBC], cl ; fcom qword [ebx+0x448B643C] ; sbb byte [ecx+ecx*4], al ; add al, 0x24 ; call  [0x643CB174] ; (1 found)
0x643c1147: add byte [eax], al ; add byte [ecx-0x74F7DBAC], cl ; push esp ; and al, 0x20 ; mov  [esp+0x00], edx ; call eax ; (1 found)
0x643c3c1a: add byte [eax], al ; add byte [ecx-0x74FBDBB4], cl ; inc eax ; add al, 0x89 ; add al, 0x24 ; call  [0x643CB174] ; (1 found)
0x643c2e31: add byte [eax], al ; add byte [ecx-0x7BF0FBBE], cl ; ret ; (1 found)
0x643c2d8e: add byte [eax], al ; add byte [ecx-0x7CF47415], cl ; ret ; (1 found)
0x643c20f2: add byte [eax], al ; add cl, ch ; imul edi, edi, 0xB68DFFFF ; add byte [eax], al ; add byte [eax], al ; call  [0x643CB188] ; (1 found)
0x643c1f8a: add byte [eax], al ; add esp, 0x0C ; ret ; (1 found)
0x643c206b: add byte [eax], al ; add esp, 0x0C ; ret ; (1 found)
0x643c10ac: add byte [eax], al ; add esp, 0x10 ; pop ebx ; pop esi ; pop edi ; retn 0x000C ; (1 found)
0x643c11e9: add byte [eax], al ; add esp, 0x10 ; pop ebx ; pop esi ; pop edi ; retn 0x000C ; (1 found)
0x643c33fb: add byte [eax], al ; add esp, 0x14 ; mov eax, 0xFFFFFFFF ; pop ebx ; pop esi ; ret ; (1 found)
0x643c344a: add byte [eax], al ; add esp, 0x14 ; mov eax, 0xFFFFFFFF ; pop ebx ; pop esi ; ret ; (1 found)
0x643c102c: add byte [eax], al ; add esp, 0x18 ; xor eax, eax ; pop ebx ; ret ; (1 found)
0x643c3f0f: add byte [eax], al ; add esp, 0x1C ; ret ; (1 found)
0x643c3f5a: add byte [eax], al ; add esp, 0x1C ; ret ; (1 found)
0x643c3813: add byte [eax], al ; add esp, 0x1C ; retn 0x000C ; (1 found)
0x643c383b: add byte [eax], al ; add esp, 0x1C ; retn 0x000C ; (1 found)
0x643c2946: add byte [eax], al ; add esp, 0x20 ; pop ebx ; pop esi ; pop edi ; ret ; (1 found)
0x643c35d6: add byte [eax], al ; add esp, 0x28 ; mov eax, ebx ; pop ebx ; ret ; (1 found)
0x643c16de: add byte [eax], al ; call  [0x643CB188] ; (1 found)
0x643c16fe: add byte [eax], al ; call  [0x643CB188] ; (1 found)
0x643c1ece: add byte [eax], al ; call  [0x643CB188] ; (1 found)
0x643c20fe: add byte [eax], al ; call  [0x643CB188] ; (1 found)
0x643c21fe: add byte [eax], al ; call  [0x643CB188] ; (1 found)
0x643c22ee: add byte [eax], al ; call  [0x643CB188] ; (1 found)
0x643c249e: add byte [eax], al ; call  [0x643CB188] ; (1 found)
0x643c26e8: add byte [eax], al ; call  [0x643CB188] ; (1 found)
0x643c2d1e: add byte [eax], al ; call  [0x643CB188] ; (1 found)
0x643c3072: add byte [eax], al ; call  [0x643CB188] ; (1 found)
0x643c347f: add byte [eax], al ; call  [0x643CB188] ; (1 found)
0x643c10ed: add byte [eax], al ; call edi ; (1 found)
0x643c3527: add byte [eax], al ; call edi ; (1 found)
0x643c1075: add byte [eax], al ; call esi ; (1 found)
0x643c33f3: add byte [eax], al ; call esi ; (1 found)
0x643c41cf: add byte [eax], al ; cmp al, 0x64 ; cmovne ebx, eax ; mov eax, ebx ; pop ebx ; ret ; (1 found)
0x643c42c2: add byte [eax], al ; cmp al, 0x64 ; mov eax, edi ; pop edi ; ret ; (1 found)
0x643c1567: add byte [eax], al ; lea edi,  [edi+0x00000000] ; mov eax, 0x00000001 ; ret ; (1 found)
0x643c10e6: add byte [eax], al ; mov  [esp+0x00], 0x000003E8 ; call edi ; (1 found)
0x643c3f30: add byte [eax], al ; mov  [esp+0x00], 0x643C93E8 ; call  [0x643CB10C] ; (1 found)
0x643c3e6e: add byte [eax], al ; mov  [esp+0x00], 0x643C93E8 ; call  [0x643CB110] ; (1 found)
0x643c3ecc: add byte [eax], al ; mov  [esp+0x00], 0x643C93E8 ; call  [0x643CB14C] ; (1 found)
0x643c316a: add byte [eax], al ; mov  [esp+0x04], 0x643C6097 ; mov  [esp+0x00], ebp ; mov ebx,  [0x643CB1A4] ; call ebx ; (1 found)
0x643c31a4: add byte [eax], al ; mov  [esp+0x04], 0x643C609A ; mov  [esp+0x00], ebp ; call ebx ; (1 found)
0x643c31f0: add byte [eax], al ; mov  [esp+0x04], eax ; mov  [esp+0x00], ebp ; call esi ; (1 found)
0x643c39de: add byte [eax], al ; mov  [esp+0x04], eax ; mov eax,  [0x643C93DC] ; mov eax,  [eax+ebx+0x04] ; mov  [esp+0x00], eax ; call  [0x643CB174] ; (1 found)
0x643c3a21: add byte [eax], al ; mov  [esp+0x04], eax ; mov eax,  [esp+0x14] ; mov  [esp+0x0C], ebx ; mov  [esp+0x00], eax ; call  [0x643CB170] ; (1 found)
0x643c3c1b: add byte [eax], al ; mov  [esp+0x04], ecx ; mov eax,  [eax+0x04] ; mov  [esp+0x00], eax ; call  [0x643CB174] ; (1 found)
0x643c319c: add byte [eax], al ; mov  [esp+0x08], 0x00000002 ; mov  [esp+0x04], 0x643C609A ; mov  [esp+0x00], ebp ; call ebx ; (1 found)
0x643c1148: add byte [eax], al ; mov  [esp+0x08], edx ; mov edx,  [esp+0x20] ; mov  [esp+0x00], edx ; call eax ; (1 found)
0x643c2ea3: add byte [eax], al ; mov  [esp+0x18], edx ; mov  [esp+0x04], 0x643C606E ; mov  [esp+0x00], esi ; call  [0x643CB1A0] ; (1 found)
0x643c38ee: add byte [eax], al ; mov eax,  [esp+0x04] ; ret ; (1 found)
0x643c3f55: add byte [eax], al ; mov eax, 0x00000001 ; add esp, 0x1C ; ret ; (1 found)
0x643c3836: add byte [eax], al ; mov eax, 0x00000001 ; add esp, 0x1C ; retn 0x000C ; (1 found)
0x643c156e: add byte [eax], al ; mov eax, 0x00000001 ; ret ; (1 found)
0x643c2366: add byte [eax], al ; mov eax, 0x00000004 ; pop ebx ; pop esi ; pop edi ; ret ; (1 found)
0x643c23ca: add byte [eax], al ; mov eax, 0x00000004 ; pop ebx ; pop esi ; pop edi ; ret ; (1 found)
0x643c2443: add byte [eax], al ; mov eax, 0x00000004 ; pop ebx ; pop esi ; pop edi ; ret ; (1 found)
0x643c167a: add byte [eax], al ; pop ebx ; pop esi ; pop edi ; pop ebp ; ret ; (1 found)
0x643c16ab: add byte [eax], al ; pop ebx ; pop esi ; pop edi ; pop ebp ; ret ; (1 found)
0x643c1a0a: add byte [eax], al ; pop ebx ; pop esi ; pop edi ; pop ebp ; ret ; (1 found)
0x643c1aa9: add byte [eax], al ; pop ebx ; pop esi ; pop edi ; pop ebp ; ret ; (1 found)
0x643c2fb2: add byte [eax], al ; pop ebx ; pop esi ; pop edi ; pop ebp ; ret ; (1 found)
0x643c236b: add byte [eax], al ; pop ebx ; pop esi ; pop edi ; ret ; (1 found)
0x643c23cf: add byte [eax], al ; pop ebx ; pop esi ; pop edi ; ret ; (1 found)
0x643c2448: add byte [eax], al ; pop ebx ; pop esi ; pop edi ; ret ; (1 found)
0x643c298d: add byte [eax], al ; pop ebx ; pop esi ; pop edi ; ret ; (1 found)
0x643c29f5: add byte [eax], al ; pop ebx ; pop esi ; pop edi ; ret ; (1 found)
0x643c2c16: add byte [eax], al ; pop ebx ; pop esi ; pop edi ; ret ; (1 found)
0x643c1167: add byte [eax], al ; pop ebx ; pop esi ; pop edi ; retn 0x000C ; (1 found)
0x643c103b: add byte [eax], al ; pop ebx ; ret ; (1 found)
0x643c387b: add byte [eax], al ; pop ebx ; retn 0x000C ; (1 found)
0x643c38a9: add byte [eax], al ; pop ebx ; retn 0x000C ; (1 found)
0x643c1573: add byte [eax], al ; ret ; (1 found)
0x643c4313: add byte [eax], al ; retn 0x000C ; (1 found)
0x643c4323: add byte [eax], al ; retn 0x000C ; (1 found)
0x643c16f8: add byte [ebp+0x000027BC], cl ; add byte [eax], al ; call  [0x643CB188] ; (1 found)
0x643c2498: add byte [ebp+0x000027BC], cl ; add byte [eax], al ; call  [0x643CB188] ; (1 found)
0x643c38e7: add byte [ebp+0x000027BC], cl ; add byte [eax], al ; mov eax,  [esp+0x04] ; ret ; (1 found)
0x643c38e8: add byte [ebp+0x000027BC], cl ; add byte [eax], al ; mov eax,  [esp+0x04] ; ret ; (1 found)
0x643c1568: add byte [ebp+0x000027BC], cl ; add byte [eax], al ; mov eax, 0x00000001 ; ret ; (1 found)
0x643c3b9f: add byte [ebp+0x5E5BF465], cl ; pop edi ; pop ebp ; ret ; (1 found)
0x643c1c4e: add byte [ebp+0x75D789DB], al ; sbb al, 0x39 ; mov esp, 0x00008024 ; add byte [ebp-0x76], bh ; call  [0x643CB188] ; (1 found)
0x643c1c4f: add byte [ebp+0x75D789DB], al ; sbb al, 0x39 ; mov esp, 0x00008024 ; add byte [ebp-0x76], bh ; call  [0x643CB188] ; (1 found)
0x643c1470: add byte [ebp-0x38D68B0A], al ; add al, 0x24 ; add byte [eax+0x3C], ah ; call  [fs:0x643CB150] ; (1 found)
0x643c1b84: add byte [ebp-0x74238A40], al ; inc edi ; or al, 0x89 ; retn 0xE2C1 ; (1 found)
0x643c1c5c: add byte [ebp-0x76], bh ; call  [0x643CB188] ; (1 found)
0x643c408d: add byte [ebp-0x7C218A40], al ; les ebx,  [ecx+ecx*4] ; fimul word [ecx+0x5F5E5BF0] ; pop ebp ; ret ; (1 found)
0x643c3626: add byte [ebp-0x7CE08B40], al ; in al, dx ; or al, 0x66 ; nop ; call eax ; (1 found)
0x643c2fab: add byte [ebx+0x01B84CC4], al ; add byte [eax], al ; add byte [ebx+0x5E], bl ; pop edi ; pop ebp ; ret ; (1 found)
0x643c1a03: add byte [ebx+0x01B85CC4], al ; add byte [eax], al ; add byte [ebx+0x5E], bl ; pop edi ; pop ebp ; ret ; (1 found)
0x643c1aa2: add byte [ebx+0x01B85CC4], al ; add byte [eax], al ; add byte [ebx+0x5E], bl ; pop edi ; pop ebp ; ret ; (1 found)
0x643c16a4: add byte [ebx+0x02B80CC4], al ; add byte [eax], al ; add byte [ebx+0x5E], bl ; pop edi ; pop ebp ; ret ; (1 found)
0x643c1673: add byte [ebx+0x04B80CC4], al ; add byte [eax], al ; add byte [ebx+0x5E], bl ; pop edi ; pop ebp ; ret ; (1 found)
0x643c27c5: add byte [ebx+0x0F8B485E], cl ; mov  [esp+0x04], edx ; lea edx,  [esi+0x30] ; mov  [esp+0x00], edx ; mov  [esp+0x08], ecx ; call eax ; (1 found)
0x643c3d8f: add byte [ebx+0x24048903], cl ; call ebp ; (1 found)
0x643c15f4: add byte [ebx+0x5E5B0CC4], al ; pop edi ; pop ebp ; ret ; (1 found)
0x643c10ad: add byte [ebx+0x5E5B10C4], al ; pop edi ; retn 0x000C ; (1 found)
0x643c11ea: add byte [ebx+0x5E5B10C4], al ; pop edi ; retn 0x000C ; (1 found)
0x643c2947: add byte [ebx+0x5E5B20C4], al ; pop edi ; ret ; (1 found)
0x643c2803: add byte [ebx+0x5E5B6CC4], al ; pop edi ; pop ebp ; ret ; (1 found)
0x643c167b: add byte [ebx+0x5E], bl ; pop edi ; pop ebp ; ret ; (1 found)
0x643c16ac: add byte [ebx+0x5E], bl ; pop edi ; pop ebp ; ret ; (1 found)
0x643c1a0b: add byte [ebx+0x5E], bl ; pop edi ; pop ebp ; ret ; (1 found)
0x643c1aaa: add byte [ebx+0x5E], bl ; pop edi ; pop ebp ; ret ; (1 found)
0x643c2fb3: add byte [ebx+0x5E], bl ; pop edi ; pop ebp ; ret ; (1 found)
0x643c236c: add byte [ebx+0x5E], bl ; pop edi ; ret ; (1 found)
0x643c23d0: add byte [ebx+0x5E], bl ; pop edi ; ret ; (1 found)
0x643c2449: add byte [ebx+0x5E], bl ; pop edi ; ret ; (1 found)
0x643c298e: add byte [ebx+0x5E], bl ; pop edi ; ret ; (1 found)
0x643c29f6: add byte [ebx+0x5E], bl ; pop edi ; ret ; (1 found)
0x643c2c17: add byte [ebx+0x5E], bl ; pop edi ; ret ; (1 found)
0x643c1168: add byte [ebx+0x5E], bl ; pop edi ; retn 0x000C ; (1 found)
0x643c3faf: add byte [ebx+0x66042444], cl ; cmp  [eax], 0x05745A4D ; xor eax, eax ; ret ; (1 found)
0x643c258b: add byte [ebx+0x74C9850A], cl ; sbb al, 0x83 ; retn 0xF60C ; (1 found)
0x643c42cf: add byte [ebx-0x00CEF73C], al ; mov eax, edi ; pop ebx ; pop esi ; pop edi ; ret ; (1 found)
0x643c2e9b: add byte [ebx-0x16FEFBB6], al ; retn 0x0000 ; (1 found)
0x643c17a8: add byte [ebx-0x2776BF3C], al ; pop ebx ; pop esi ; pop edi ; ret ; (1 found)
0x643c17c2: add byte [ebx-0x2776BF3C], al ; pop ebx ; pop esi ; pop edi ; ret ; (1 found)
0x643c35d7: add byte [ebx-0x2776D73C], al ; pop ebx ; ret ; (1 found)
0x643c307f: add byte [ebx-0x3FCEB33C], al ; pop ebx ; pop esi ; pop edi ; pop ebp ; ret ; (1 found)
0x643c102d: add byte [ebx-0x3FCEE73C], al ; pop ebx ; ret ; (1 found)
0x643c1c20: add byte [ebx-0x76A4A33C], al ; clc ; pop esi ; pop edi ; pop ebp ; ret ; (1 found)
0x643c34e0: add byte [ecx+0x20C48307], cl ; mov eax, esi ; pop ebx ; pop esi ; pop edi ; ret ; (1 found)
0x643c39df: add byte [ecx-0x5EFBDBBC], cl ; fcom qword [ebx+0x448B643C] ; sbb byte [ecx+ecx*4], al ; add al, 0x24 ; call  [0x643CB174] ; (1 found)
0x643c1b10: add byte [ecx-0x72FBDBBC], cl ; inc esp ; and al, 0x3C ; mov  [esp+0x00], eax ; call  [0x643C9028] ; (1 found)
0x643c1149: add byte [ecx-0x74F7DBAC], cl ; push esp ; and al, 0x20 ; mov  [esp+0x00], edx ; call eax ; (1 found)
0x643c3c1c: add byte [ecx-0x74FBDBB4], cl ; inc eax ; add al, 0x89 ; add al, 0x24 ; call  [0x643CB174] ; (1 found)
0x643c3a22: add byte [ecx-0x74FBDBBC], cl ; inc esp ; and al, 0x14 ; mov  [esp+0x0C], ebx ; mov  [esp+0x00], eax ; call  [0x643CB170] ; (1 found)
0x643c2129: add byte [ecx-0x74FBDBBC], cl ; inc esp ; and al, 0x20 ; mov eax,  [eax] ; mov  [esp+0x00], eax ; call  [0x643CB144] ; (1 found)
0x643c31f1: add byte [ecx-0x76FBDBBC], cl ; sub al, 0x24 ; call esi ; (1 found)
0x643c2e33: add byte [ecx-0x7BF0FBBE], cl ; ret ; (1 found)
0x643c2d90: add byte [ecx-0x7CF47415], cl ; ret ; (1 found)
0x643c2589: add byte [ecx], al ; add byte [ebx+0x74C9850A], cl ; sbb al, 0x83 ; retn 0xF60C ; (1 found)
0x643c10df: add byte [ecx], bh ; fmul  [edi] ; test byte [ecx+eax], cl ; add byte [eax], al ; mov  [esp+0x00], 0x000003E8 ; call edi ; (1 found)
0x643c42ff: add byte [edi-0x15], dh ; sub ecx, eax ; or  [ecx], 0x00000000 ; pop eax ; pop ecx ; ret ; (1 found)
0x643c4125: add byte [esi], 0x00 ; cmp al, 0x64 ; ret ; (1 found)
0x643c41d0: add byte [esp+0x00], bh ; cmovne ebx, eax ; mov eax, ebx ; pop ebx ; ret ; (1 found)
0x643c42c3: add byte [esp+0x00], bh ; mov eax, edi ; pop edi ; ret ; (1 found)
0x643c4120: add byte [esp+0x00], bh ; movzx eax, word [eax+0x643C0006] ; ret ; (1 found)
0x643c4127: add byte [esp+0x00], bh ; ret ; (1 found)
0x643c3f2d: add byte [fs:eax], al ; add byte [eax], al ; mov  [esp+0x00], 0x643C93E8 ; call  [0x643CB10C] ; (1 found)
0x643c2ddf: add cl, byte [ecx-0x38E7DBAC] ; inc esp ; and al, 0x04 ; and  [eax+0x3C], 0x24348964 ; call  [0x643CB1A0] ; (1 found)
0x643c2fe8: add cl, byte [ecx-0x76EBDBAC] ; add al, 0x24 ; call  [0x643CB148] ; (1 found)
0x643c20f4: add cl, ch ; imul edi, edi, 0xB68DFFFF ; add byte [eax], al ; add byte [eax], al ; call  [0x643CB188] ; (1 found)
0x643c15ff: add dh, dh ; ret ; (1 found)
0x643c1029: add eax,  [eax] ; add byte [eax], al ; add byte [ebx-0x3FCEE73C], al ; pop ebx ; ret ; (1 found)
0x643c2c0f: add eax,  [ebx+0x04B820C4] ; add byte [eax], al ; add byte [ebx+0x5E], bl ; pop edi ; ret ; (1 found)
0x643c115b: add eax, 0x643C9000 ; add  [ebx+0x01B810C4], eax ; add byte [eax], al ; add byte [ebx+0x5E], bl ; pop edi ; retn 0x000C ; (1 found)
0x643c3a40: add eax, 0x643C93D8 ; add  [ebx+0x5E5B30C4], eax ; pop edi ; ret ; (1 found)
0x643c3f4e: add eax, 0x643C93E4 ; add  [eax], eax ; add byte [eax], al ; mov eax, 0x00000001 ; add esp, 0x1C ; ret ; (1 found)
0x643c3f29: add eax, 0x643C93E4 ; add byte [eax], al ; add byte [eax], al ; mov  [esp+0x00], 0x643C93E8 ; call  [0x643CB10C] ; (1 found)
0x643c3f9a: add eax, 0x66C3C031 ; nop ; cmp word [eax+0x18], 0x010B ; sete al ; movzx eax, al ; ret ; (1 found)
0x643c21eb: add ebx,  [0x643C5004] ; add esp, 0x14 ; mov eax, ebx ; pop ebx ; pop esi ; ret ; (1 found)
0x643c2c0c: add ecx,  [eax-0x3B7CFCB9] ; and byte [eax+0x00000004], bh ; pop ebx ; pop esi ; pop edi ; ret ; (1 found)
0x643c34cb: add ecx,  [ecx+0x53FF2404] ; or byte [ecx-0x77EA003A], cl ; mov cl, 0x3C ; mov edi, eax ; call  [ebx+0x0C] ; (1 found)
0x643c3d91: add ecx,  [ecx-0x2A00DBFC] ; sub esp, 0x04 ; mov esi, eax ; call edi ; (1 found)
0x643c2e9f: add ecx, ebp ; retn 0x0000 ; (1 found)
0x643c42c0: add edi, 0x643C0000 ; mov eax, edi ; pop edi ; ret ; (1 found)
0x643c380d: add esi,  [eax+edx-0x48] ; add  [eax], eax ; add byte [eax], al ; add esp, 0x1C ; retn 0x000C ; (1 found)
0x643c410c: add esi, ebx ; ret ; (1 found)
0x643c159c: add esi, esi ; ret ; (1 found)
0x643c40c1: add esp, 0x08 ; mov eax, ebx ; pop ebx ; ret ; (1 found)
0x643c4257: add esp, 0x08 ; mov eax, edi ; pop ebx ; pop esi ; pop edi ; ret ; (1 found)
0x643c40f7: add esp, 0x08 ; mov ebx, eax ; mov eax, ebx ; pop ebx ; ret ; (1 found)
0x643c4226: add esp, 0x08 ; ret ; (1 found)
0x643c15f5: add esp, 0x0C ; pop ebx ; pop esi ; pop edi ; pop ebp ; ret ; (1 found)
0x643c3647: add esp, 0x0C ; rep ret ; (1 found)
0x643c1e8f: add esp, 0x0C ; ret ; (1 found)
0x643c1f03: add esp, 0x0C ; ret ; (1 found)
0x643c1f8c: add esp, 0x0C ; ret ; (1 found)
0x643c206d: add esp, 0x0C ; ret ; (1 found)
0x643c1161: add esp, 0x10 ; mov eax, 0x00000001 ; pop ebx ; pop esi ; pop edi ; retn 0x000C ; (1 found)
0x643c3489: add esp, 0x10 ; mov eax, esi ; pop ebx ; pop esi ; pop edi ; ret ; (1 found)
0x643c352f: add esp, 0x10 ; pop ebx ; pop esi ; pop edi ; ret ; (1 found)
0x643c10ae: add esp, 0x10 ; pop ebx ; pop esi ; pop edi ; retn 0x000C ; (1 found)
0x643c11eb: add esp, 0x10 ; pop ebx ; pop esi ; pop edi ; retn 0x000C ; (1 found)
0x643c33fd: add esp, 0x14 ; mov eax, 0xFFFFFFFF ; pop ebx ; pop esi ; ret ; (1 found)
0x643c344c: add esp, 0x14 ; mov eax, 0xFFFFFFFF ; pop ebx ; pop esi ; ret ; (1 found)
0x643c21ac: add esp, 0x14 ; mov eax, ebx ; pop ebx ; pop esi ; ret ; (1 found)
0x643c21f0: add esp, 0x14 ; mov eax, ebx ; pop ebx ; pop esi ; ret ; (1 found)
0x643c21f1: add esp, 0x14 ; mov eax, ebx ; pop ebx ; pop esi ; ret ; (1 found)
0x643c3435: add esp, 0x14 ; pop ebx ; pop esi ; ret ; (1 found)
0x643c1035: add esp, 0x18 ; mov eax, 0x00000001 ; pop ebx ; ret ; (1 found)
0x643c3875: add esp, 0x18 ; mov eax, 0x00000001 ; pop ebx ; retn 0x000C ; (1 found)
0x643c38a3: add esp, 0x18 ; mov eax, 0x00000001 ; pop ebx ; retn 0x000C ; (1 found)
0x643c367b: add esp, 0x18 ; pop ebx ; ret ; (1 found)
0x643c3e3b: add esp, 0x18 ; pop ebx ; ret ; (1 found)
0x643c102e: add esp, 0x18 ; xor eax, eax ; pop ebx ; ret ; (1 found)
0x643c3e61: add esp, 0x18 ; xor eax, eax ; pop ebx ; ret ; (1 found)
0x643c3eb1: add esp, 0x18 ; xor eax, eax ; pop ebx ; ret ; (1 found)
0x643c3614: add esp, 0x1C ; movzx eax, al ; neg eax ; ret ; (1 found)
0x643c3dc5: add esp, 0x1C ; pop ebx ; pop esi ; pop edi ; pop ebp ; ret ; (1 found)
0x643c214e: add esp, 0x1C ; ret ; (1 found)
0x643c3f11: add esp, 0x1C ; ret ; (1 found)
0x643c3f5c: add esp, 0x1C ; ret ; (1 found)
0x643c1433: add esp, 0x1C ; retn 0x000C ; (1 found)
0x643c3815: add esp, 0x1C ; retn 0x000C ; (1 found)
0x643c383d: add esp, 0x1C ; retn 0x000C ; (1 found)
0x643c2987: add esp, 0x20 ; mov eax, 0x00000004 ; pop ebx ; pop esi ; pop edi ; ret ; (1 found)
0x643c2c10: add esp, 0x20 ; mov eax, 0x00000004 ; pop ebx ; pop esi ; pop edi ; ret ; (1 found)
0x643c29ee: add esp, 0x20 ; mov eax, 0x00000008 ; pop ebx ; pop esi ; pop edi ; ret ; (1 found)
0x643c29ef: add esp, 0x20 ; mov eax, 0x00000008 ; pop ebx ; pop esi ; pop edi ; ret ; (1 found)
0x643c34e3: add esp, 0x20 ; mov eax, esi ; pop ebx ; pop esi ; pop edi ; ret ; (1 found)
0x643c2948: add esp, 0x20 ; pop ebx ; pop esi ; pop edi ; ret ; (1 found)
0x643c2a14: add esp, 0x20 ; pop ebx ; pop esi ; pop edi ; ret ; (1 found)
0x643c2b70: add esp, 0x20 ; pop ebx ; pop esi ; pop edi ; ret ; (1 found)
0x643c35d8: add esp, 0x28 ; mov eax, ebx ; pop ebx ; ret ; (1 found)
0x643c35ec: add esp, 0x28 ; pop ebx ; ret ; (1 found)
0x643c35ed: add esp, 0x28 ; pop ebx ; ret ; (1 found)
0x643c22cc: add esp, 0x2C ; pop ebx ; pop esi ; pop edi ; pop ebp ; ret ; (1 found)
0x643c36e9: add esp, 0x2C ; pop ebx ; pop esi ; pop edi ; pop ebp ; ret ; (1 found)
0x643c36ea: add esp, 0x2C ; pop ebx ; pop esi ; pop edi ; pop ebp ; ret ; (1 found)
0x643c3756: add esp, 0x2C ; pop ebx ; pop esi ; pop edi ; pop ebp ; ret ; (1 found)
0x643c3757: add esp, 0x2C ; pop ebx ; pop esi ; pop edi ; pop ebp ; ret ; (1 found)
0x643c202c: add esp, 0x30 ; mov eax, 0xFFFFFFFF ; pop ebx ; pop esi ; pop edi ; ret ; (1 found)
0x643c2019: add esp, 0x30 ; pop ebx ; pop esi ; pop edi ; ret ; (1 found)
0x643c3a46: add esp, 0x30 ; pop ebx ; pop esi ; pop edi ; ret ; (1 found)
0x643c1e23: add esp, 0x3C ; pop ebx ; pop esi ; pop edi ; pop ebp ; ret ; (1 found)
0x643c17a9: add esp, 0x40 ; mov eax, ebx ; pop ebx ; pop esi ; pop edi ; ret ; (1 found)
0x643c17c3: add esp, 0x40 ; mov eax, ebx ; pop ebx ; pop esi ; pop edi ; ret ; (1 found)
0x643c1930: add esp, 0x5C ; pop ebx ; pop esi ; pop edi ; pop ebp ; ret ; (1 found)
0x643c1955: add esp, 0x5C ; pop ebx ; pop esi ; pop edi ; pop ebp ; ret ; (1 found)
0x643c26cf: add esp, 0x6C ; pop ebx ; pop esi ; pop edi ; pop ebp ; ret ; (1 found)
0x643c2804: add esp, 0x6C ; pop ebx ; pop esi ; pop edi ; pop ebp ; ret ; (1 found)
0x643c2de8: and  [eax+0x3C], 0x24348964 ; call  [0x643CB1A0] ; (1 found)
0x643c21ab: and  [ebx-0x2776EB3C], eax ; pop ebx ; pop esi ; ret ; (1 found)
0x643c1508: and al, 0x00 ; pushad ; cmp al, 0x64 ; call  [0x643CB130] ; (1 found)
0x643c1477: and al, 0x00 ; pushad ; cmp al, 0x64 ; call  [0x643CB150] ; (1 found)
0x643c1460: and al, 0x00 ; pushad ; cmp al, 0x64 ; call ebx ; (1 found)
0x643c14d3: and al, 0x04 ; aaa ; pushad ; cmp al, 0x64 ; mov  [esp+0x00], eax ; call  [0x643CB134] ; (1 found)
0x643c148c: and al, 0x04 ; adc esp,  [eax+0x3C] ; mov  [fs:esp+0x00], esi ; call  [0x643CB134] ; (1 found)
0x643c14a4: and al, 0x04 ; add al, 0x90 ; cmp al, 0x64 ; mov  [esp+0x00], 0x643C8150 ; call eax ; (1 found)
0x643c2de6: and al, 0x04 ; and  [eax+0x3C], 0x24348964 ; call  [0x643CB1A0] ; (1 found)
0x643c32af: and al, 0x04 ; and eax, 0x89643C61 ; sbb al, 0x24 ; call esi ; (1 found)
0x643c3362: and al, 0x04 ; and eax, 0x89643C61 ; sbb al, 0x24 ; call esi ; (1 found)
0x643c2002: and al, 0x04 ; call  [0x643C902C] ; (1 found)
0x643c1788: and al, 0x04 ; call  [ebx+0x10] ; (1 found)
0x643c1521: and al, 0x04 ; dec ebx ; pushad ; cmp al, 0x64 ; mov  [esp+0x00], eax ; call  [0x643CB134] ; (1 found)
0x643c32c4: and al, 0x04 ; inc edx ; popad ; cmp al, 0x64 ; mov  [esp+0x00], ebx ; call esi ; (1 found)
0x643c3377: and al, 0x04 ; inc edx ; popad ; cmp al, 0x64 ; mov  [esp+0x00], ebx ; call esi ; (1 found)
0x643c175a: and al, 0x04 ; lea eax,  [ebx+0x18] ; mov  [esp+0x00], eax ; call  [0x643C9028] ; (1 found)
0x643c2536: and al, 0x04 ; lea eax,  [esi+0x10] ; mov  [esp+0x00], eax ; call  [esi+0x18] ; (1 found)
0x643c2650: and al, 0x04 ; lea eax,  [esi+0x30] ; mov  [esp+0x0C], edx ; mov  [esp+0x00], eax ; call  [esi+0x3C] ; (1 found)
0x643c1b13: and al, 0x04 ; lea eax,  [esp+0x3C] ; mov  [esp+0x00], eax ; call  [0x643C9028] ; (1 found)
0x643c27cd: and al, 0x04 ; lea edx,  [esi+0x30] ; mov  [esp+0x00], edx ; mov  [esp+0x08], ecx ; call eax ; (1 found)
0x643c3520: and al, 0x04 ; mov  [esp+0x00], 0x00000001 ; call edi ; (1 found)
0x643c22b2: and al, 0x04 ; mov  [esp+0x00], eax ; mov  [esp+0x10], ecx ; call  [0x643CB154] ; (1 found)
0x643c31f4: and al, 0x04 ; mov  [esp+0x00], ebp ; call esi ; (1 found)
0x643c2239: and al, 0x04 ; mov  [esp+0x00], ebp ; mov  [esp+0x08], eax ; call  [ebp+0x10] ; (1 found)
0x643c1e17: and al, 0x04 ; mov  [esp+0x00], ebx ; call  [ebx+0x10] ; (1 found)
0x643c1fc4: and al, 0x04 ; mov  [esp+0x00], ebx ; mov  [esp+0x08], eax ; call  [ebx+0x10] ; (1 found)
0x643c1de3: and al, 0x04 ; mov  [esp+0x0C], edx ; mov edx,  [esp+0x54] ; mov  [esp+0x00], eax ; mov  [esp+0x08], edx ; call  [0x643CB178] ; (1 found)
0x643c30c2: and al, 0x04 ; mov al, 0x60 ; cmp al, 0x64 ; mov  [esp+0x00], ebp ; call ebx ; (1 found)
0x643c30fe: and al, 0x04 ; mov ch, 0x60 ; cmp al, 0x64 ; mov  [esp+0x00], ebp ; mov ebx,  [0x643CB1A0] ; call ebx ; (1 found)
0x643c39e2: and al, 0x04 ; mov eax,  [0x643C93DC] ; mov eax,  [eax+ebx+0x04] ; mov  [esp+0x00], eax ; call  [0x643CB174] ; (1 found)
0x643c3c1f: and al, 0x04 ; mov eax,  [eax+0x04] ; mov  [esp+0x00], eax ; call  [0x643CB174] ; (1 found)
0x643c3c50: and al, 0x04 ; mov eax,  [ebp-0x34] ; mov  [esp+0x00], eax ; call  [0x643CB170] ; (1 found)
0x643c34c8: and al, 0x04 ; mov eax,  [ebx] ; mov  [esp+0x00], eax ; call  [ebx+0x08] ; (1 found)
0x643c3007: and al, 0x04 ; mov eax,  [edx] ; mov  [esp+0x00], eax ; call  [0x643CB11C] ; (1 found)
0x643c3a25: and al, 0x04 ; mov eax,  [esp+0x14] ; mov  [esp+0x0C], ebx ; mov  [esp+0x00], eax ; call  [0x643CB170] ; (1 found)
0x643c212c: and al, 0x04 ; mov eax,  [esp+0x20] ; mov eax,  [eax] ; mov  [esp+0x00], eax ; call  [0x643CB144] ; (1 found)
0x643c3121: and al, 0x04 ; mov esp, 0x89643C60 ; sub al, 0x24 ; call ebx ; (1 found)
0x643c3090: and al, 0x04 ; movsb ; pushad ; cmp al, 0x64 ; mov  [esp+0x00], ebp ; call ebx ; (1 found)
0x643c2eab: and al, 0x04 ; outsb ; pushad ; cmp al, 0x64 ; mov  [esp+0x00], esi ; call  [0x643CB1A0] ; (1 found)
0x643c329a: and al, 0x04 ; pop es ; popad ; cmp al, 0x64 ; mov  [esp+0x00], ebx ; call esi ; (1 found)
0x643c334d: and al, 0x04 ; pop es ; popad ; cmp al, 0x64 ; mov  [esp+0x00], ebx ; call esi ; (1 found)
0x643c32d9: and al, 0x04 ; push ecx ; popad ; cmp al, 0x64 ; mov  [esp+0x00], ebx ; call esi ; (1 found)
0x643c338c: and al, 0x04 ; push ecx ; popad ; cmp al, 0x64 ; mov  [esp+0x00], ebx ; call esi ; (1 found)
0x643c38e2: and al, 0x04 ; ret ; (1 found)
0x643c38f2: and al, 0x04 ; ret ; (1 found)
0x643c313a: and al, 0x04 ; retn 0x3C60 ; (1 found)
0x643c30a9: and al, 0x04 ; stosb ; pushad ; cmp al, 0x64 ; mov  [esp+0x00], ebp ; call ebx ; (1 found)
0x643c3270: and al, 0x04 ; xlatb ; pushad ; cmp al, 0x64 ; mov  [esp+0x00], eax ; call esi ; (1 found)
0x643c3323: and al, 0x04 ; xlatb ; pushad ; cmp al, 0x64 ; mov  [esp+0x00], eax ; call esi ; (1 found)
0x643c31a0: and al, 0x08 ; add al, byte [eax] ; add byte [eax], al ; mov  [esp+0x04], 0x643C609A ; mov  [esp+0x00], ebp ; call ebx ; (1 found)
0x643c1df2: and al, 0x08 ; call  [0x643CB178] ; (1 found)
0x643c2240: and al, 0x08 ; call  [ebp+0x10] ; (1 found)
0x643c1fcb: and al, 0x08 ; call  [ebx+0x10] ; (1 found)
0x643c27d7: and al, 0x08 ; call eax ; (1 found)
0x643c351c: and al, 0x08 ; mov  [esp+0x04], ebx ; mov  [esp+0x00], 0x00000001 ; call edi ; (1 found)
0x643c1e13: and al, 0x08 ; mov  [esp+0x04], edi ; mov  [esp+0x00], ebx ; call  [ebx+0x10] ; (1 found)
0x643c22ae: and al, 0x08 ; mov  [esp+0x04], edx ; mov  [esp+0x00], eax ; mov  [esp+0x10], ecx ; call  [0x643CB154] ; (1 found)
0x643c1784: and al, 0x08 ; mov  [esp+0x04], esi ; call  [ebx+0x10] ; (1 found)
0x643c3c49: and al, 0x08 ; mov eax,  [ebp-0x28] ; mov  [esp+0x04], eax ; mov eax,  [ebp-0x34] ; mov  [esp+0x00], eax ; call  [0x643CB170] ; (1 found)
0x643c1754: and al, 0x08 ; mov eax,  [ebx] ; mov  [esp+0x04], eax ; lea eax,  [ebx+0x18] ; mov  [esp+0x00], eax ; call  [0x643C9028] ; (1 found)
0x643c34c0: and al, 0x08 ; mov eax,  [esp+0x34] ; mov  [esp+0x04], eax ; mov eax,  [ebx] ; mov  [esp+0x00], eax ; call  [ebx+0x08] ; (1 found)
0x643c114c: and al, 0x08 ; mov edx,  [esp+0x20] ; mov  [esp+0x00], edx ; call eax ; (1 found)
0x643c18e7: and al, 0x0C ; lea eax,  [esp+0x3C] ; mov  [esp+0x00], eax ; call  [0x643C902C] ; (1 found)
0x643c3a2d: and al, 0x0C ; mov  [esp+0x00], eax ; call  [0x643CB170] ; (1 found)
0x643c2657: and al, 0x0C ; mov  [esp+0x00], eax ; call  [esi+0x3C] ; (1 found)
0x643c22aa: and al, 0x0C ; mov  [esp+0x08], esi ; mov  [esp+0x04], edx ; mov  [esp+0x00], eax ; mov  [esp+0x10], ecx ; call  [0x643CB154] ; (1 found)
0x643c2530: and al, 0x0C ; mov eax,  [eax] ; mov  [esp+0x04], eax ; lea eax,  [esi+0x10] ; mov  [esp+0x00], eax ; call  [esi+0x18] ; (1 found)
0x643c1ff8: and al, 0x0C ; mov eax,  [ebx-0x18] ; mov  [esp+0x00], ebx ; mov  [esp+0x04], eax ; call  [0x643C902C] ; (1 found)
0x643c1de7: and al, 0x0C ; mov edx,  [esp+0x54] ; mov  [esp+0x00], eax ; mov  [esp+0x08], edx ; call  [0x643CB178] ; (1 found)
0x643c22b9: and al, 0x10 ; call  [0x643CB154] ; (1 found)
0x643c18df: and al, 0x10 ; lea eax,  [esp+0x38] ; mov  [esp+0x0C], eax ; lea eax,  [esp+0x3C] ; mov  [esp+0x00], eax ; call  [0x643C902C] ; (1 found)
0x643c36f4: and al, 0x10 ; mov  [esp+0x00], eax ; call  [0x643CB138] ; (1 found)
0x643c3704: and al, 0x10 ; xor ebx,  [esp+0x14] ; call  [0x643CB124] ; (1 found)
0x643c2f02: and al, 0x14 ; call  [0x643CB118] ; (1 found)
0x643c3708: and al, 0x14 ; call  [0x643CB124] ; (1 found)
0x643c2fff: and al, 0x14 ; lea eax,  [esp+0x2C] ; mov  [esp+0x04], eax ; mov eax,  [edx] ; mov  [esp+0x00], eax ; call  [0x643CB11C] ; (1 found)
0x643c3244: and al, 0x14 ; mov  [esp+0x00], 0x643C60CD ; call  [0x643CB150] ; (1 found)
0x643c32f7: and al, 0x14 ; mov  [esp+0x00], 0x643C60CD ; call  [0x643CB150] ; (1 found)
0x643c2feb: and al, 0x14 ; mov  [esp+0x00], eax ; call  [0x643CB148] ; (1 found)
0x643c2e7b: and al, 0x14 ; mov  [esp+0x04], 0x643C609D ; mov  [esp+0x00], ebp ; mov ebx,  [0x643CB1A0] ; call ebx ; (1 found)
0x643c308c: and al, 0x14 ; mov  [esp+0x04], 0x643C60A4 ; mov  [esp+0x00], ebp ; call ebx ; (1 found)
0x643c30fa: and al, 0x14 ; mov  [esp+0x04], 0x643C60B5 ; mov  [esp+0x00], ebp ; mov ebx,  [0x643CB1A0] ; call ebx ; (1 found)
0x643c311d: and al, 0x14 ; mov  [esp+0x04], 0x643C60BC ; mov  [esp+0x00], ebp ; call ebx ; (1 found)
0x643c3162: and al, 0x14 ; mov  [esp+0x08], 0x00000002 ; mov  [esp+0x04], 0x643C6097 ; mov  [esp+0x00], ebp ; mov ebx,  [0x643CB1A4] ; call ebx ; (1 found)
0x643c3a29: and al, 0x14 ; mov  [esp+0x0C], ebx ; mov  [esp+0x00], eax ; call  [0x643CB170] ; (1 found)
0x643c3266: and al, 0x14 ; mov esi,  [0x643CB134] ; mov  [esp+0x04], 0x643C60D7 ; mov  [esp+0x00], eax ; call esi ; (1 found)
0x643c3319: and al, 0x14 ; mov esi,  [0x643CB134] ; mov  [esp+0x04], 0x643C60D7 ; mov  [esp+0x00], eax ; call esi ; (1 found)
0x643c3724: and al, 0x18 ; mov  [esp+0x00], eax ; call  [0x643CB158] ; (1 found)
0x643c2ea7: and al, 0x18 ; mov  [esp+0x04], 0x643C606E ; mov  [esp+0x00], esi ; call  [0x643CB1A0] ; (1 found)
0x643c2ece: and al, 0x18 ; mov  [esp+0x04], 0x643C6077 ; mov  [esp+0x00], esi ; call  [0x643CB1A0] ; (1 found)
0x643c2de2: and al, 0x18 ; mov  [esp+0x04], 0x643C6081 ; mov  [esp+0x00], esi ; call  [0x643CB1A0] ; (1 found)
0x643c3e00: and al, 0x20 ; mov  [esp+0x00], 0x643C93E8 ; mov  [ebx], eax ; mov eax,  [esp+0x24] ; mov  [ebx+0x04], eax ; call  [0x643CB110] ; (1 found)
0x643c1150: and al, 0x20 ; mov  [esp+0x00], edx ; call eax ; (1 found)
0x643c2130: and al, 0x20 ; mov eax,  [eax] ; mov  [esp+0x00], eax ; call  [0x643CB144] ; (1 found)
0x643c3468: and al, 0x20 ; mov eax,  [ebx] ; mov  [esp+0x00], eax ; call  [ebx+0x04] ; (1 found)
0x643c3e0d: and al, 0x24 ; mov  [ebx+0x04], eax ; call  [0x643CB110] ; (1 found)
0x643c1140: and al, 0x28 ; mov  [esp+0x04], 0x00000002 ; mov  [esp+0x08], edx ; mov edx,  [esp+0x20] ; mov  [esp+0x00], edx ; call eax ; (1 found)
0x643c14be: and al, 0x29 ; pushad ; cmp al, 0x64 ; call ebx ; (1 found)
0x643c3003: and al, 0x2C ; mov  [esp+0x04], eax ; mov eax,  [edx] ; mov  [esp+0x00], eax ; call  [0x643CB11C] ; (1 found)
0x643c1ff4: and al, 0x2C ; mov  [esp+0x0C], eax ; mov eax,  [ebx-0x18] ; mov  [esp+0x00], ebx ; mov  [esp+0x04], eax ; call  [0x643C902C] ; (1 found)
0x643c35e2: and al, 0x30 ; mov  [esp+0x00], eax ; call  [0x643CB198] ; (1 found)
0x643c34c4: and al, 0x34 ; mov  [esp+0x04], eax ; mov eax,  [ebx] ; mov  [esp+0x00], eax ; call  [ebx+0x08] ; (1 found)
0x643c18e3: and al, 0x38 ; mov  [esp+0x0C], eax ; lea eax,  [esp+0x3C] ; mov  [esp+0x00], eax ; call  [0x643C902C] ; (1 found)
0x643c1b17: and al, 0x3C ; mov  [esp+0x00], eax ; call  [0x643C9028] ; (1 found)
0x643c18eb: and al, 0x3C ; mov  [esp+0x00], eax ; call  [0x643C902C] ; (1 found)
0x643c3430: and al, 0x3C ; mov  [fs:ebx], ebx ; add esp, 0x14 ; pop ebx ; pop esi ; ret ; (1 found)
0x643c264c: and al, 0x40 ; mov  [esp+0x04], eax ; lea eax,  [esi+0x30] ; mov  [esp+0x0C], edx ; mov  [esp+0x00], eax ; call  [esi+0x3C] ; (1 found)
0x643c1fbc: and al, 0x44 ; mov eax,  [esp+0x48] ; mov  [esp+0x04], edi ; mov  [esp+0x00], ebx ; mov  [esp+0x08], eax ; call  [ebx+0x10] ; (1 found)
0x643c1fc0: and al, 0x48 ; mov  [esp+0x04], edi ; mov  [esp+0x00], ebx ; mov  [esp+0x08], eax ; call  [ebx+0x10] ; (1 found)
0x643c2231: and al, 0x48 ; mov edi,  [esp+0x50] ; mov  [esp+0x04], esi ; mov  [esp+0x00], ebp ; mov  [esp+0x08], eax ; call  [ebp+0x10] ; (1 found)
0x643c2235: and al, 0x50 ; mov  [esp+0x04], esi ; mov  [esp+0x00], ebp ; mov  [esp+0x08], eax ; call  [ebp+0x10] ; (1 found)
0x643c1deb: and al, 0x54 ; mov  [esp+0x00], eax ; mov  [esp+0x08], edx ; call  [0x643CB178] ; (1 found)
0x643c37ca: and al, 0x54 ; outsb ; cmp al, 0x64 ; call  [0x643CB16C] ; (1 found)
0x643c14ed: and al, 0x58 ; pop ebp ; cmp al, 0x64 ; call edx ; (1 found)
0x643c1b0d: and al, 0x70 ; mov eax,  [eax] ; mov  [esp+0x04], eax ; lea eax,  [esp+0x3C] ; mov  [esp+0x00], eax ; call  [0x643C9028] ; (1 found)
0x643c1c58: and al, 0x80 ; add byte [eax], al ; add byte [ebp-0x76], bh ; call  [0x643CB188] ; (1 found)
0x643c27d4: and al, 0x89 ; dec esp ; and al, 0x08 ; call eax ; (1 found)
0x643c22b6: and al, 0x89 ; dec esp ; and al, 0x10 ; call  [0x643CB154] ; (1 found)
0x643c1fff: and al, 0x89 ; inc esp ; and al, 0x04 ; call  [0x643C902C] ; (1 found)
0x643c223d: and al, 0x89 ; inc esp ; and al, 0x08 ; call  [ebp+0x10] ; (1 found)
0x643c1fc8: and al, 0x89 ; inc esp ; and al, 0x08 ; call  [ebx+0x10] ; (1 found)
0x643c1781: and al, 0x89 ; inc esp ; and al, 0x08 ; mov  [esp+0x04], esi ; call  [ebx+0x10] ; (1 found)
0x643c1def: and al, 0x89 ; push esp ; and al, 0x08 ; call  [0x643CB178] ; (1 found)
0x643c39a0: and al, 0x89 ; ret ; (1 found)
0x643c2e87: and al, 0x8B ; sbb eax, 0x643CB1A0 ; call ebx ; (1 found)
0x643c3106: and al, 0x8B ; sbb eax, 0x643CB1A0 ; call ebx ; (1 found)
0x643c3176: and al, 0x8B ; sbb eax, 0x643CB1A4 ; call ebx ; (1 found)
0x643c32be: and al, 0x90 ; cmp al, 0x64 ; mov  [esp+0x04], 0x643C6142 ; mov  [esp+0x00], ebx ; call esi ; (1 found)
0x643c3371: and al, 0x90 ; cmp al, 0x64 ; mov  [esp+0x04], 0x643C6142 ; mov  [esp+0x00], ebx ; call esi ; (1 found)
0x643c370c: and al, 0xB1 ; cmp al, 0x64 ; mov ebp, eax ; call  [0x643CB128] ; (1 found)
0x643c3248: and al, 0xCD ; pushad ; cmp al, 0x64 ; call  [0x643CB150] ; (1 found)
0x643c32fb: and al, 0xCD ; pushad ; cmp al, 0x64 ; call  [0x643CB150] ; (1 found)
0x643c3832: and al, 0xE8 ; mov eax, 0xB8000006 ; add  [eax], eax ; add byte [eax], al ; add esp, 0x1C ; retn 0x000C ; (1 found)
0x643c347b: and al, 0xE8 ; out 0x0E, eax ; add byte [eax], al ; call  [0x643CB188] ; (1 found)
0x643c3f34: and al, 0xE8 ; xchg eax, ebx ; cmp al, 0x64 ; call  [0x643CB10C] ; (1 found)
0x643c3d69: and al, 0xE8 ; xchg eax, ebx ; cmp al, 0x64 ; call  [0x643CB110] ; (1 found)
0x643c3e72: and al, 0xE8 ; xchg eax, ebx ; cmp al, 0x64 ; call  [0x643CB110] ; (1 found)
0x643c3f62: and al, 0xE8 ; xchg eax, ebx ; cmp al, 0x64 ; call  [0x643CB140] ; (1 found)
0x643c3db7: and al, 0xE8 ; xchg eax, ebx ; cmp al, 0x64 ; call  [0x643CB14C] ; (1 found)
0x643c3ea3: and al, 0xE8 ; xchg eax, ebx ; cmp al, 0x64 ; call  [0x643CB14C] ; (1 found)
0x643c3ed0: and al, 0xE8 ; xchg eax, ebx ; cmp al, 0x64 ; call  [0x643CB14C] ; (1 found)
0x643c3e28: and al, 0xE8 ; xchg eax, ebx ; cmp al, 0x64 ; mov  [ebx+0x08], eax ; call  [0x643CB14C] ; (1 found)
0x643c154d: and al, 0xFF ; adc eax, 0x643CB114 ; sub esp, 0x04 ; leave ; ret ; (1 found)
0x643c36f8: and al, 0xFF ; adc eax, 0x643CB138 ; sub esp, 0x04 ; mov ebx,  [esp+0x10] ; xor ebx,  [esp+0x14] ; call  [0x643CB124] ; (1 found)
0x643c35e6: and al, 0xFF ; adc eax, 0x643CB198 ; add esp, 0x28 ; pop ebx ; ret ; (1 found)
0x643c34ce: and al, 0xFF ; push ebx ; or byte [ecx-0x77EA003A], cl ; mov cl, 0x3C ; mov edi, eax ; call  [ebx+0x0C] ; (1 found)
0x643c26e6: and al, byte [ecx] ; add byte [eax], al ; call  [0x643CB188] ; (1 found)
0x643c2989: and byte [eax+0x00000004], bh ; pop ebx ; pop esi ; pop edi ; ret ; (1 found)
0x643c2c12: and byte [eax+0x00000004], bh ; pop ebx ; pop esi ; pop edi ; ret ; (1 found)
0x643c29f1: and byte [eax+0x00000008], bh ; pop ebx ; pop esi ; pop edi ; ret ; (1 found)
0x643c3e5c: and byte [ebp-0x7CF08A40], al ; les ebx,  [eax] ; xor eax, eax ; pop ebx ; ret ; (1 found)
0x643c2131: and byte [ebx+0x24048900], cl ; call  [0x643CB144] ; (1 found)
0x643c3469: and byte [ebx+0x24048903], cl ; call  [ebx+0x04] ; (1 found)
0x643c294a: and byte [ebx+0x5E], bl ; pop edi ; ret ; (1 found)
0x643c2a16: and byte [ebx+0x5E], bl ; pop edi ; ret ; (1 found)
0x643c2b72: and byte [ebx+0x5E], bl ; pop edi ; ret ; (1 found)
0x643c34e5: and byte [ecx+0x5F5E5BF0], cl ; ret ; (1 found)
0x643c43a9: and eax, 0x643CB184 ; nop ; nop ; jmp  [0x643CB180] ; (1 found)
0x643c43a1: and eax, 0x643CB18C ; nop ; nop ; jmp  [0x643CB184] ; (1 found)
0x643c4399: and eax, 0x643CB194 ; nop ; nop ; jmp  [0x643CB18C] ; (1 found)
0x643c4391: and eax, 0x643CB19C ; nop ; nop ; jmp  [0x643CB194] ; (1 found)
0x643c4389: and eax, 0x643CB1A8 ; nop ; nop ; jmp  [0x643CB19C] ; (1 found)
0x643c4381: and eax, 0x643CB1AC ; nop ; nop ; jmp  [0x643CB1A8] ; (1 found)
0x643c4379: and eax, 0x643CB1B0 ; nop ; nop ; jmp  [0x643CB1AC] ; (1 found)
0x643c4371: and eax, 0x643CB1B4 ; nop ; nop ; jmp  [0x643CB1B0] ; (1 found)
0x643c4369: and eax, 0x643CB1B8 ; nop ; nop ; jmp  [0x643CB1B4] ; (1 found)
0x643c4361: and eax, 0x643CB1BC ; nop ; nop ; jmp  [0x643CB1B8] ; (1 found)
0x643c4359: and eax, 0x643CB1C0 ; nop ; nop ; jmp  [0x643CB1BC] ; (1 found)
0x643c4351: and eax, 0x643CB1C4 ; nop ; nop ; jmp  [0x643CB1C0] ; (1 found)
0x643c4349: and eax, 0x643CB1C8 ; nop ; nop ; jmp  [0x643CB1C4] ; (1 found)
0x643c4341: and eax, 0x643CB1CC ; nop ; nop ; jmp  [0x643CB1C8] ; (1 found)
0x643c4339: and eax, 0x643CB1D0 ; nop ; nop ; jmp  [0x643CB1CC] ; (1 found)
0x643c4331: and eax, 0x643CB1D4 ; nop ; nop ; jmp  [0x643CB1D0] ; (1 found)
0x643c32b1: and eax, 0x89643C61 ; sbb al, 0x24 ; call esi ; (1 found)
0x643c3364: and eax, 0x89643C61 ; sbb al, 0x24 ; call esi ; (1 found)
0x643c33ec: and ecx,  [ecx+0x73E8241C] ; sldt word [eax] ; call esi ; (1 found)
0x643c3663: call  [0x643C43E0+ebx*4] ; (1 found)
0x643c1762: call  [0x643C9028] ; (1 found)
0x643c1b1c: call  [0x643C9028] ; (1 found)
0x643c18f0: call  [0x643C902C] ; (1 found)
0x643c2004: call  [0x643C902C] ; (1 found)
0x643c3f39: call  [0x643CB10C] ; (1 found)
0x643c3d6e: call  [0x643CB110] ; (1 found)
0x643c3e12: call  [0x643CB110] ; (1 found)
0x643c3e77: call  [0x643CB110] ; (1 found)
0x643c154e: call  [0x643CB114] ; (1 found)
0x643c2f04: call  [0x643CB118] ; (1 found)
0x643c300e: call  [0x643CB11C] ; (1 found)
0x643c37d8: call  [0x643CB120] ; (1 found)
0x643c370a: call  [0x643CB124] ; (1 found)
0x643c3712: call  [0x643CB128] ; (1 found)
0x643c1e30: call  [0x643CB12C] ; (1 found)
0x643c3a54: call  [0x643CB12C] ; (1 found)
0x643c150d: call  [0x643CB130] ; (1 found)
0x643c1495: call  [0x643CB134] ; (1 found)
0x643c14dc: call  [0x643CB134] ; (1 found)
0x643c152a: call  [0x643CB134] ; (1 found)
0x643c36f9: call  [0x643CB138] ; (1 found)
0x643c371a: call  [0x643CB13C] ; (1 found)
0x643c3f67: call  [0x643CB140] ; (1 found)
0x643c2137: call  [0x643CB144] ; (1 found)
0x643c2ff0: call  [0x643CB148] ; (1 found)
0x643c3dbc: call  [0x643CB14C] ; (1 found)
0x643c3e30: call  [0x643CB14C] ; (1 found)
0x643c3ea8: call  [0x643CB14C] ; (1 found)
0x643c3ed5: call  [0x643CB14C] ; (1 found)
0x643c147c: call  [0x643CB150] ; (1 found)
0x643c324d: call  [0x643CB150] ; (1 found)
0x643c3300: call  [0x643CB150] ; (1 found)
0x643c22bb: call  [0x643CB154] ; (1 found)
0x643c3729: call  [0x643CB158] ; (1 found)
0x643c37bf: call  [0x643CB15C] ; (1 found)
0x643c37e9: call  [0x643CB164] ; (1 found)
0x643c37cf: call  [0x643CB16C] ; (1 found)
0x643c3a32: call  [0x643CB170] ; (1 found)
0x643c3c58: call  [0x643CB170] ; (1 found)
0x643c39f0: call  [0x643CB174] ; (1 found)
0x643c3c27: call  [0x643CB174] ; (1 found)
0x643c1df4: call  [0x643CB178] ; (1 found)
0x643c16e0: call  [0x643CB188] ; (1 found)
0x643c1700: call  [0x643CB188] ; (1 found)
0x643c17b2: call  [0x643CB188] ; (1 found)
0x643c17d0: call  [0x643CB188] ; (1 found)
0x643c1944: call  [0x643CB188] ; (1 found)
0x643c1ab0: call  [0x643CB188] ; (1 found)
0x643c1c10: call  [0x643CB188] ; (1 found)
0x643c1c5f: call  [0x643CB188] ; (1 found)
0x643c1e3b: call  [0x643CB188] ; (1 found)
0x643c1e54: call  [0x643CB188] ; (1 found)
0x643c1ed0: call  [0x643CB188] ; (1 found)
0x643c1f3a: call  [0x643CB188] ; (1 found)
0x643c1f90: call  [0x643CB188] ; (1 found)
0x643c2020: call  [0x643CB188] ; (1 found)
0x643c209d: call  [0x643CB188] ; (1 found)
0x643c2100: call  [0x643CB188] ; (1 found)
0x643c2152: call  [0x643CB188] ; (1 found)
0x643c2200: call  [0x643CB188] ; (1 found)
0x643c22f0: call  [0x643CB188] ; (1 found)
0x643c2480: call  [0x643CB188] ; (1 found)
0x643c24a0: call  [0x643CB188] ; (1 found)
0x643c26ea: call  [0x643CB188] ; (1 found)
0x643c283a: call  [0x643CB188] ; (1 found)
0x643c2a70: call  [0x643CB188] ; (1 found)
0x643c2a93: call  [0x643CB188] ; (1 found)
0x643c2d20: call  [0x643CB188] ; (1 found)
0x643c2d44: call  [0x643CB188] ; (1 found)
0x643c3074: call  [0x643CB188] ; (1 found)
0x643c3440: call  [0x643CB188] ; (1 found)
0x643c3481: call  [0x643CB188] ; (1 found)
0x643c34d4: call  [0x643CB188] ; (1 found)
0x643c35e7: call  [0x643CB198] ; (1 found)
0x643c2def: call  [0x643CB1A0] ; (1 found)
0x643c2eb4: call  [0x643CB1A0] ; (1 found)
0x643c2edb: call  [0x643CB1A0] ; (1 found)
0x643c120a: call  [eax+0x0026748D] ; (1 found)
0x643c2ce7: call  [eax+0x0026B48D] ; (1 found)
0x643c2d17: call  [eax+0x0026B48D] ; (1 found)
0x643c33ae: call  [eax-0x137CACAA] ; (1 found)
0x643c3d56: call  [eax-0x6F6F6F70] ; (1 found)
0x643c2394: call  [eax] ; (1 found)
0x643c2242: call  [ebp+0x10] ; (1 found)
0x643c346f: call  [ebx+0x04] ; (1 found)
0x643c34cf: call  [ebx+0x08] ; (1 found)
0x643c3474: call  [ebx+0x0C] ; (1 found)
0x643c34dc: call  [ebx+0x0C] ; (1 found)
0x643c178a: call  [ebx+0x10] ; (1 found)
0x643c1e1c: call  [ebx+0x10] ; (1 found)
0x643c1fcd: call  [ebx+0x10] ; (1 found)
0x643c4243: call  [ebx-0x7D] ; (1 found)
0x643c253e: call  [esi+0x18] ; (1 found)
0x643c265c: call  [esi+0x3C] ; (1 found)
0x643c3f38: call  [fs:0x643CB10C] ; (1 found)
0x643c3d6d: call  [fs:0x643CB110] ; (1 found)
0x643c3e76: call  [fs:0x643CB110] ; (1 found)
0x643c150c: call  [fs:0x643CB130] ; (1 found)
0x643c3f66: call  [fs:0x643CB140] ; (1 found)
0x643c3dbb: call  [fs:0x643CB14C] ; (1 found)
0x643c3ea7: call  [fs:0x643CB14C] ; (1 found)
0x643c3ed4: call  [fs:0x643CB14C] ; (1 found)
0x643c147b: call  [fs:0x643CB150] ; (1 found)
0x643c324c: call  [fs:0x643CB150] ; (1 found)
0x643c32ff: call  [fs:0x643CB150] ; (1 found)
0x643c37ce: call  [fs:0x643CB16C] ; (1 found)
0x643c1155: call eax ; (1 found)
0x643c14b0: call eax ; (1 found)
0x643c14b1: call eax ; (1 found)
0x643c27d9: call eax ; (1 found)
0x643c3630: call eax ; (1 found)
0x643c3896: call eax ; (1 found)
0x643c3dac: call eax ; (1 found)
0x643c3d95: call ebp ; (1 found)
0x643c1464: call ebx ; (1 found)
0x643c1465: call ebx ; (1 found)
0x643c14c2: call ebx ; (1 found)
0x643c14c3: call ebx ; (1 found)
0x643c2e8d: call ebx ; (1 found)
0x643c2e8e: call ebx ; (1 found)
0x643c3099: call ebx ; (1 found)
0x643c30b2: call ebx ; (1 found)
0x643c30cb: call ebx ; (1 found)
0x643c310c: call ebx ; (1 found)
0x643c310d: call ebx ; (1 found)
0x643c312a: call ebx ; (1 found)
0x643c3143: call ebx ; (1 found)
0x643c317c: call ebx ; (1 found)
0x643c317d: call ebx ; (1 found)
0x643c31b1: call ebx ; (1 found)
0x643c10ef: call edi ; (1 found)
0x643c3529: call edi ; (1 found)
0x643c3d9c: call edi ; (1 found)
0x643c11b2: call edx ; (1 found)
0x643c14f1: call edx ; (1 found)
0x643c14f2: call edx ; (1 found)
0x643c153f: call edx ; (1 found)
0x643c1540: call edx ; (1 found)
0x643c1077: call esi ; (1 found)
0x643c31f9: call esi ; (1 found)
0x643c3279: call esi ; (1 found)
0x643c328e: call esi ; (1 found)
0x643c32a3: call esi ; (1 found)
0x643c32b8: call esi ; (1 found)
0x643c32cd: call esi ; (1 found)
0x643c32e2: call esi ; (1 found)
0x643c332c: call esi ; (1 found)
0x643c3341: call esi ; (1 found)
0x643c3356: call esi ; (1 found)
0x643c336b: call esi ; (1 found)
0x643c3380: call esi ; (1 found)
0x643c3395: call esi ; (1 found)
0x643c33d4: call esi ; (1 found)
0x643c33d5: call esi ; (1 found)
0x643c33f5: call esi ; (1 found)
0x643c3f24: clc ; add  [ebp-0x1C], esi ; mov  [0x643C93E4], 0x00000000 ; mov  [esp+0x00], 0x643C93E8 ; call  [0x643CB10C] ; (1 found)
0x643c3871: clc ; add  [ebx+edi-0x7D], esi ; les ebx,  [eax] ; mov eax, 0x00000001 ; pop ebx ; retn 0x000C ; (1 found)
0x643c2141: clc ; add  [ecx], ebx ; rol byte [ebx+0x443B02C0], 0x24 ; sub byte [edi+0x04], bh ; add esp, 0x1C ; ret ; (1 found)
0x643c380c: clc ; add esi,  [eax+edx-0x48] ; add  [eax], eax ; add byte [eax], al ; add esp, 0x1C ; retn 0x000C ; (1 found)
0x643c14f5: clc ; pop ebx ; pop esi ; pop ebp ; ret ; (1 found)
0x643c14f6: clc ; pop ebx ; pop esi ; pop ebp ; ret ; (1 found)
0x643c1c08: clc ; pop ebx ; pop esi ; pop edi ; pop ebp ; ret ; (1 found)
0x643c425b: clc ; pop ebx ; pop esi ; pop edi ; ret ; (1 found)
0x643c42d6: clc ; pop ebx ; pop esi ; pop edi ; ret ; (1 found)
0x643c42c7: clc ; pop edi ; ret ; (1 found)
0x643c1c26: clc ; pop esi ; pop edi ; pop ebp ; ret ; (1 found)
0x643c1ec6: cli ; or  [esi-0x3B], esi ; lea esi,  [esi+0x00000000] ; call  [0x643CB188] ; (1 found)
0x643c41d2: cmovne ebx, eax ; mov eax, ebx ; pop ebx ; ret ; (1 found)
0x643c41d3: cmovne ebx, eax ; mov eax, ebx ; pop ebx ; ret ; (1 found)
0x643c4103: cmp  [0x643C0000], 0x03745A4D ; rep ret ; (1 found)
0x643c41e3: cmp  [0x643C0000], 0x03745A4D ; ret ; (1 found)
0x643c41b4: cmp  [0x643C0000], 0x04745A4D ; mov eax, ebx ; pop ebx ; ret ; (1 found)
0x643c40b7: cmp  [0x643C0000], 0x0F745A4D ; add esp, 0x08 ; mov eax, ebx ; pop ebx ; ret ; (1 found)
0x643c3fb5: cmp  [eax], 0x05745A4D ; xor eax, eax ; ret ; (1 found)
0x643c411f: cmp al, 0x00 ; cmp al, 0x64 ; movzx eax, word [eax+0x643C0006] ; ret ; (1 found)
0x643c1e25: cmp al, 0x5B ; pop esi ; pop edi ; pop ebp ; ret ; (1 found)
0x643c3f51: cmp al, 0x64 ; add  [eax], eax ; add byte [eax], al ; mov eax, 0x00000001 ; add esp, 0x1C ; ret ; (1 found)
0x643c115e: cmp al, 0x64 ; add  [ebx+0x01B810C4], eax ; add byte [eax], al ; add byte [ebx+0x5E], bl ; pop edi ; retn 0x000C ; (1 found)
0x643c3a43: cmp al, 0x64 ; add  [ebx+0x5E5B30C4], eax ; pop edi ; ret ; (1 found)
0x643c3f2c: cmp al, 0x64 ; add byte [eax], al ; add byte [eax], al ; mov  [esp+0x00], 0x643C93E8 ; call  [0x643CB10C] ; (1 found)
0x643c21ef: cmp al, 0x64 ; add esp, 0x14 ; mov eax, ebx ; pop ebx ; pop esi ; ret ; (1 found)
0x643c35eb: cmp al, 0x64 ; add esp, 0x28 ; pop ebx ; ret ; (1 found)
0x643c3f37: cmp al, 0x64 ; call  [0x643CB10C] ; (1 found)
0x643c3d6c: cmp al, 0x64 ; call  [0x643CB110] ; (1 found)
0x643c3e75: cmp al, 0x64 ; call  [0x643CB110] ; (1 found)
0x643c150b: cmp al, 0x64 ; call  [0x643CB130] ; (1 found)
0x643c3f65: cmp al, 0x64 ; call  [0x643CB140] ; (1 found)
0x643c3dba: cmp al, 0x64 ; call  [0x643CB14C] ; (1 found)
0x643c3ea6: cmp al, 0x64 ; call  [0x643CB14C] ; (1 found)
0x643c3ed3: cmp al, 0x64 ; call  [0x643CB14C] ; (1 found)
0x643c147a: cmp al, 0x64 ; call  [0x643CB150] ; (1 found)
0x643c324b: cmp al, 0x64 ; call  [0x643CB150] ; (1 found)
0x643c32fe: cmp al, 0x64 ; call  [0x643CB150] ; (1 found)
0x643c37cd: cmp al, 0x64 ; call  [0x643CB16C] ; (1 found)
0x643c14af: cmp al, 0x64 ; call eax ; (1 found)
0x643c1463: cmp al, 0x64 ; call ebx ; (1 found)
0x643c14c1: cmp al, 0x64 ; call ebx ; (1 found)
0x643c2e8c: cmp al, 0x64 ; call ebx ; (1 found)
0x643c310b: cmp al, 0x64 ; call ebx ; (1 found)
0x643c317b: cmp al, 0x64 ; call ebx ; (1 found)
0x643c14f0: cmp al, 0x64 ; call edx ; (1 found)
0x643c153e: cmp al, 0x64 ; call edx ; (1 found)
0x643c33d3: cmp al, 0x64 ; call esi ; (1 found)
0x643c41d1: cmp al, 0x64 ; cmovne ebx, eax ; mov eax, ebx ; pop ebx ; ret ; (1 found)
0x643c37ba: cmp al, 0x64 ; mov  [ebp-0x0C], eax ; call  [0x643CB15C] ; (1 found)
0x643c37b2: cmp al, 0x64 ; mov  [ebp-0x10], eax ; mov eax,  [0x643C5D54] ; mov  [ebp-0x0C], eax ; call  [0x643CB15C] ; (1 found)
0x643c3e2b: cmp al, 0x64 ; mov  [ebx+0x08], eax ; call  [0x643CB14C] ; (1 found)
0x643c3e07: cmp al, 0x64 ; mov  [ebx], eax ; mov eax,  [esp+0x24] ; mov  [ebx+0x04], eax ; call  [0x643CB110] ; (1 found)
0x643c3431: cmp al, 0x64 ; mov  [ebx], ebx ; add esp, 0x14 ; pop ebx ; pop esi ; ret ; (1 found)
0x643c145c: cmp al, 0x64 ; mov  [esp+0x00], 0x643C6000 ; call ebx ; (1 found)
0x643c14a8: cmp al, 0x64 ; mov  [esp+0x00], 0x643C8150 ; call eax ; (1 found)
0x643c3e24: cmp al, 0x64 ; mov  [esp+0x00], 0x643C93E8 ; mov  [ebx+0x08], eax ; call  [0x643CB14C] ; (1 found)
0x643c14d7: cmp al, 0x64 ; mov  [esp+0x00], eax ; call  [0x643CB134] ; (1 found)
0x643c1525: cmp al, 0x64 ; mov  [esp+0x00], eax ; call  [0x643CB134] ; (1 found)
0x643c3274: cmp al, 0x64 ; mov  [esp+0x00], eax ; call esi ; (1 found)
0x643c3327: cmp al, 0x64 ; mov  [esp+0x00], eax ; call esi ; (1 found)
0x643c3094: cmp al, 0x64 ; mov  [esp+0x00], ebp ; call ebx ; (1 found)
0x643c30ad: cmp al, 0x64 ; mov  [esp+0x00], ebp ; call ebx ; (1 found)
0x643c30c6: cmp al, 0x64 ; mov  [esp+0x00], ebp ; call ebx ; (1 found)
0x643c3125: cmp al, 0x64 ; mov  [esp+0x00], ebp ; call ebx ; (1 found)
0x643c313e: cmp al, 0x64 ; mov  [esp+0x00], ebp ; call ebx ; (1 found)
0x643c31ac: cmp al, 0x64 ; mov  [esp+0x00], ebp ; call ebx ; (1 found)
0x643c2e83: cmp al, 0x64 ; mov  [esp+0x00], ebp ; mov ebx,  [0x643CB1A0] ; call ebx ; (1 found)
0x643c3102: cmp al, 0x64 ; mov  [esp+0x00], ebp ; mov ebx,  [0x643CB1A0] ; call ebx ; (1 found)
0x643c3172: cmp al, 0x64 ; mov  [esp+0x00], ebp ; mov ebx,  [0x643CB1A4] ; call ebx ; (1 found)
0x643c3289: cmp al, 0x64 ; mov  [esp+0x00], ebx ; call esi ; (1 found)
0x643c329e: cmp al, 0x64 ; mov  [esp+0x00], ebx ; call esi ; (1 found)
0x643c32b3: cmp al, 0x64 ; mov  [esp+0x00], ebx ; call esi ; (1 found)
0x643c32c8: cmp al, 0x64 ; mov  [esp+0x00], ebx ; call esi ; (1 found)
0x643c32dd: cmp al, 0x64 ; mov  [esp+0x00], ebx ; call esi ; (1 found)
0x643c333c: cmp al, 0x64 ; mov  [esp+0x00], ebx ; call esi ; (1 found)
0x643c3351: cmp al, 0x64 ; mov  [esp+0x00], ebx ; call esi ; (1 found)
0x643c3366: cmp al, 0x64 ; mov  [esp+0x00], ebx ; call esi ; (1 found)
0x643c337b: cmp al, 0x64 ; mov  [esp+0x00], ebx ; call esi ; (1 found)
0x643c3390: cmp al, 0x64 ; mov  [esp+0x00], ebx ; call esi ; (1 found)
0x643c1490: cmp al, 0x64 ; mov  [esp+0x00], esi ; call  [0x643CB134] ; (1 found)
0x643c2dea: cmp al, 0x64 ; mov  [esp+0x00], esi ; call  [0x643CB1A0] ; (1 found)
0x643c2eaf: cmp al, 0x64 ; mov  [esp+0x00], esi ; call  [0x643CB1A0] ; (1 found)
0x643c2ed6: cmp al, 0x64 ; mov  [esp+0x00], esi ; call  [0x643CB1A0] ; (1 found)
0x643c1488: cmp al, 0x64 ; mov  [esp+0x04], 0x643C6013 ; mov  [esp+0x00], esi ; call  [0x643CB134] ; (1 found)
0x643c326c: cmp al, 0x64 ; mov  [esp+0x04], 0x643C60D7 ; mov  [esp+0x00], eax ; call esi ; (1 found)
0x643c331f: cmp al, 0x64 ; mov  [esp+0x04], 0x643C60D7 ; mov  [esp+0x00], eax ; call esi ; (1 found)
0x643c3281: cmp al, 0x64 ; mov  [esp+0x04], 0x643C60E9 ; mov  [esp+0x00], ebx ; call esi ; (1 found)
0x643c3334: cmp al, 0x64 ; mov  [esp+0x04], 0x643C60E9 ; mov  [esp+0x00], ebx ; call esi ; (1 found)
0x643c3296: cmp al, 0x64 ; mov  [esp+0x04], 0x643C6107 ; mov  [esp+0x00], ebx ; call esi ; (1 found)
0x643c3349: cmp al, 0x64 ; mov  [esp+0x04], 0x643C6107 ; mov  [esp+0x00], ebx ; call esi ; (1 found)
0x643c32ab: cmp al, 0x64 ; mov  [esp+0x04], 0x643C6125 ; mov  [esp+0x00], ebx ; call esi ; (1 found)
0x643c335e: cmp al, 0x64 ; mov  [esp+0x04], 0x643C6125 ; mov  [esp+0x00], ebx ; call esi ; (1 found)
0x643c32c0: cmp al, 0x64 ; mov  [esp+0x04], 0x643C6142 ; mov  [esp+0x00], ebx ; call esi ; (1 found)
0x643c3373: cmp al, 0x64 ; mov  [esp+0x04], 0x643C6142 ; mov  [esp+0x00], ebx ; call esi ; (1 found)
0x643c32d5: cmp al, 0x64 ; mov  [esp+0x04], 0x643C6151 ; mov  [esp+0x00], ebx ; call esi ; (1 found)
0x643c3388: cmp al, 0x64 ; mov  [esp+0x04], 0x643C6151 ; mov  [esp+0x00], ebx ; call esi ; (1 found)
0x643c37dc: cmp al, 0x64 ; mov  [esp+0x04], 0xC0000409 ; mov  [esp+0x00], eax ; call  [0x643CB164] ; (1 found)
0x643c2e77: cmp al, 0x64 ; mov  [esp+0x14], edx ; mov  [esp+0x04], 0x643C609D ; mov  [esp+0x00], ebp ; mov ebx,  [0x643CB1A0] ; call ebx ; (1 found)
0x643c30f6: cmp al, 0x64 ; mov  [esp+0x14], edx ; mov  [esp+0x04], 0x643C60B5 ; mov  [esp+0x00], ebp ; mov ebx,  [0x643CB1A0] ; call ebx ; (1 found)
0x643c37ad: cmp al, 0x64 ; mov eax,  [0x643C5D50] ; mov  [ebp-0x10], eax ; mov eax,  [0x643C5D54] ; mov  [ebp-0x0C], eax ; call  [0x643CB15C] ; (1 found)
0x643c39e7: cmp al, 0x64 ; mov eax,  [eax+ebx+0x04] ; mov  [esp+0x00], eax ; call  [0x643CB174] ; (1 found)
0x643c42c4: cmp al, 0x64 ; mov eax, edi ; pop edi ; ret ; (1 found)
0x643c370e: cmp al, 0x64 ; mov ebp, eax ; call  [0x643CB128] ; (1 found)
0x643c3716: cmp al, 0x64 ; mov edi, eax ; call  [0x643CB13C] ; (1 found)
0x643c34d8: cmp al, 0x64 ; mov edi, eax ; call  [ebx+0x0C] ; (1 found)
0x643c371e: cmp al, 0x64 ; mov esi, eax ; lea eax,  [esp+0x18] ; mov  [esp+0x00], eax ; call  [0x643CB158] ; (1 found)
0x643c4121: cmp al, 0x64 ; movzx eax, word [eax+0x643C0006] ; ret ; (1 found)
0x643c43ac: cmp al, 0x64 ; nop ; nop ; jmp  [0x643CB180] ; (1 found)
0x643c43a4: cmp al, 0x64 ; nop ; nop ; jmp  [0x643CB184] ; (1 found)
0x643c439c: cmp al, 0x64 ; nop ; nop ; jmp  [0x643CB18C] ; (1 found)
0x643c4394: cmp al, 0x64 ; nop ; nop ; jmp  [0x643CB194] ; (1 found)
0x643c438c: cmp al, 0x64 ; nop ; nop ; jmp  [0x643CB19C] ; (1 found)
0x643c4384: cmp al, 0x64 ; nop ; nop ; jmp  [0x643CB1A8] ; (1 found)
0x643c437c: cmp al, 0x64 ; nop ; nop ; jmp  [0x643CB1AC] ; (1 found)
0x643c4374: cmp al, 0x64 ; nop ; nop ; jmp  [0x643CB1B0] ; (1 found)
0x643c436c: cmp al, 0x64 ; nop ; nop ; jmp  [0x643CB1B4] ; (1 found)
0x643c4364: cmp al, 0x64 ; nop ; nop ; jmp  [0x643CB1B8] ; (1 found)
0x643c435c: cmp al, 0x64 ; nop ; nop ; jmp  [0x643CB1BC] ; (1 found)
0x643c4354: cmp al, 0x64 ; nop ; nop ; jmp  [0x643CB1C0] ; (1 found)
0x643c434c: cmp al, 0x64 ; nop ; nop ; jmp  [0x643CB1C4] ; (1 found)
0x643c4344: cmp al, 0x64 ; nop ; nop ; jmp  [0x643CB1C8] ; (1 found)
0x643c433c: cmp al, 0x64 ; nop ; nop ; jmp  [0x643CB1CC] ; (1 found)
0x643c4334: cmp al, 0x64 ; nop ; nop ; jmp  [0x643CB1D0] ; (1 found)
0x643c4128: cmp al, 0x64 ; ret ; (1 found)
0x643c3eac: cmp al, 0x64 ; sub esp, 0x04 ; add esp, 0x18 ; xor eax, eax ; pop ebx ; ret ; (1 found)
0x643c37d3: cmp al, 0x64 ; sub esp, 0x04 ; call  [0x643CB120] ; (1 found)
0x643c1552: cmp al, 0x64 ; sub esp, 0x04 ; leave ; ret ; (1 found)
0x643c3e1b: cmp al, 0x64 ; sub esp, 0x04 ; mov  [0x643C93E0], ebx ; mov  [esp+0x00], 0x643C93E8 ; mov  [ebx+0x08], eax ; call  [0x643CB14C] ; (1 found)
0x643c1480: cmp al, 0x64 ; sub esp, 0x04 ; mov  [0x643C9404], eax ; mov  [esp+0x04], 0x643C6013 ; mov  [esp+0x00], esi ; call  [0x643CB134] ; (1 found)
0x643c37c3: cmp al, 0x64 ; sub esp, 0x04 ; mov  [esp+0x00], 0x643C6E54 ; call  [0x643CB16C] ; (1 found)
0x643c36fd: cmp al, 0x64 ; sub esp, 0x04 ; mov ebx,  [esp+0x10] ; xor ebx,  [esp+0x14] ; call  [0x643CB124] ; (1 found)
0x643c3e34: cmp al, 0x64 ; xor eax, eax ; sub esp, 0x04 ; add esp, 0x18 ; pop ebx ; ret ; (1 found)
0x643c1b18: cmp al, 0x89 ; add al, 0x24 ; call  [0x643C9028] ; (1 found)
0x643c18ec: cmp al, 0x89 ; add al, 0x24 ; call  [0x643C902C] ; (1 found)
0x643c371c: cmp al, 0xB1 ; cmp al, 0x64 ; mov esi, eax ; lea eax,  [esp+0x18] ; mov  [esp+0x00], eax ; call  [0x643CB158] ; (1 found)
0x643c14bb: cmp bh, al ; add al, 0x24 ; sub  [eax+0x3C], esp ; call ebx ; (1 found)
0x643c3488: cmp byte [ebx-0x0F76EF3C], al ; pop ebx ; pop esi ; pop edi ; ret ; (1 found)
0x643c36fb: cmp byte [ecx-0x137C9BC4], dh ; add al, 0x8B ; pop esp ; and al, 0x10 ; xor ebx,  [esp+0x14] ; call  [0x643CB124] ; (1 found)
0x643c3478: cmp byte [ecx-0x1817DBE4], cl ; push cs ; add byte [eax], al ; call  [0x643CB188] ; (1 found)
0x643c18e4: cmp byte [ecx-0x72F3DBBC], cl ; inc esp ; and al, 0x3C ; mov  [esp+0x00], eax ; call  [0x643C902C] ; (1 found)
0x643c2ec8: cmp eax, 0x89FFFFFF ; push esp ; and al, 0x18 ; mov  [esp+0x04], 0x643C6077 ; mov  [esp+0x00], esi ; call  [0x643CB1A0] ; (1 found)
0x643c3117: cmp ebp, 0x5489FFFF ; and al, 0x14 ; mov  [esp+0x04], 0x643C60BC ; mov  [esp+0x00], ebp ; call ebx ; (1 found)
0x643c3260: cmp ebp, 0xFFFFFFFF ; dec  [ecx-0x74EBDBAC] ; xor eax, 0x643CB134 ; mov  [esp+0x04], 0x643C60D7 ; mov  [esp+0x00], eax ; call esi ; (1 found)
0x643c3fa0: cmp word [eax+0x18], 0x010B ; sete al ; movzx eax, al ; ret ; (1 found)
0x643c38cd: cmpsd ; nop ; xor eax, eax ; ret ; (1 found)
0x643c35e9: cwde ; mov cl, 0x3C ; add esp, 0x28 ; pop ebx ; ret ; (1 found)
0x643c16fb: daa ; add byte [eax], al ; add byte [eax], al ; call  [0x643CB188] ; (1 found)
0x643c22eb: daa ; add byte [eax], al ; add byte [eax], al ; call  [0x643CB188] ; (1 found)
0x643c249b: daa ; add byte [eax], al ; add byte [eax], al ; call  [0x643CB188] ; (1 found)
0x643c38eb: daa ; add byte [eax], al ; add byte [eax], al ; mov eax,  [esp+0x04] ; ret ; (1 found)
0x643c156b: daa ; add byte [eax], al ; add byte [eax], al ; mov eax, 0x00000001 ; ret ; (1 found)
0x643c3b99: dec  [ebp+0x000000B6] ; add byte [ebp+0x5E5BF465], cl ; pop edi ; pop ebp ; ret ; (1 found)
0x643c16f5: dec  [ebp-0x4372FF8A] ; daa ; add byte [eax], al ; add byte [eax], al ; call  [0x643CB188] ; (1 found)
0x643c2495: dec  [ebp-0x4372FF8A] ; daa ; add byte [eax], al ; add byte [eax], al ; call  [0x643CB188] ; (1 found)
0x643c2efb: dec  [ebp-0x76FFD98C] ; push esp ; and al, 0x14 ; call  [0x643CB118] ; (1 found)
0x643c1c4b: dec  [ebp-0x7AFFD98C] ; fisttp  [ecx+0x391C75D7] ; mov esp, 0x00008024 ; add byte [ebp-0x76], bh ; call  [0x643CB188] ; (1 found)
0x643c42d4: dec  [ecx+0x5F5E5BF8] ; ret ; (1 found)
0x643c3241: dec  [ecx-0x38EBDBAC] ; add al, 0x24 ; int 0x60 ; cmp al, 0x64 ; call  [0x643CB150] ; (1 found)
0x643c32f4: dec  [ecx-0x38EBDBAC] ; add al, 0x24 ; int 0x60 ; cmp al, 0x64 ; call  [0x643CB150] ; (1 found)
0x643c311a: dec  [ecx-0x38EBDBAC] ; inc esp ; and al, 0x04 ; mov esp, 0x89643C60 ; sub al, 0x24 ; call ebx ; (1 found)
0x643c3263: dec  [ecx-0x74EBDBAC] ; xor eax, 0x643CB134 ; mov  [esp+0x04], 0x643C60D7 ; mov  [esp+0x00], eax ; call esi ; (1 found)
0x643c3316: dec  [ecx-0x74EBDBAC] ; xor eax, 0x643CB134 ; mov  [esp+0x04], 0x643C60D7 ; mov  [esp+0x00], eax ; call esi ; (1 found)
0x643c1fc1: dec eax ; mov  [esp+0x04], edi ; mov  [esp+0x00], ebx ; mov  [esp+0x08], eax ; call  [ebx+0x10] ; (1 found)
0x643c2232: dec eax ; mov edi,  [esp+0x50] ; mov  [esp+0x04], esi ; mov  [esp+0x00], ebp ; mov  [esp+0x08], eax ; call  [ebp+0x10] ; (1 found)
0x643c2a12: dec ebx ; add al, byte [ebx+0x5E5B20C4] ; pop edi ; ret ; (1 found)
0x643c1523: dec ebx ; pushad ; cmp al, 0x64 ; mov  [esp+0x00], eax ; call  [0x643CB134] ; (1 found)
0x643c43d6: dec ecx ; ret ; (1 found)
0x643c3c1e: dec esp ; and al, 0x04 ; mov eax,  [eax+0x04] ; mov  [esp+0x00], eax ; call  [0x643CB174] ; (1 found)
0x643c27d6: dec esp ; and al, 0x08 ; call eax ; (1 found)
0x643c22b8: dec esp ; and al, 0x10 ; call  [0x643CB154] ; (1 found)
0x643c3da3: div byte [eax+ecx-0x75] ; inc ebx ; add al, 0x89 ; xor al, 0x24 ; call eax ; (1 found)
0x643c1472: div byte [ecx+ebp-0x39] ; add al, 0x24 ; add byte [eax+0x3C], ah ; call  [fs:0x643CB150] ; (1 found)
0x643c434a: enter 0x3CB1, 0x64 ; nop ; nop ; jmp  [0x643CB1C4] ; (1 found)
0x643c22cb: fadd  [ebx+0x5E5B2CC4] ; pop edi ; pop ebp ; ret ; (1 found)
0x643c3a41: fcom  [ebx-0x7CFE9BC4] ; les esi,  [eax] ; pop ebx ; pop esi ; pop edi ; ret ; (1 found)
0x643c39e5: fcom qword [ebx+0x448B643C] ; sbb byte [ecx+ecx*4], al ; add al, 0x24 ; call  [0x643CB174] ; (1 found)
0x643c17ad: fcomp  [ebx+0x5E] ; pop edi ; ret ; (1 found)
0x643c17c7: fcomp  [ebx+0x5E] ; pop edi ; ret ; (1 found)
0x643c21b0: fcomp  [ebx+0x5E] ; ret ; (1 found)
0x643c21f5: fcomp  [ebx+0x5E] ; ret ; (1 found)
0x643c35dc: fcomp  [ebx-0x3D] ; nop ; mov eax,  [esp+0x30] ; mov  [esp+0x00], eax ; call  [0x643CB198] ; (1 found)
0x643c21a7: fild  [ebp-0x7CDE8A40] ; les edx,  [ecx+ecx*4] ; fcomp  [ebx+0x5E] ; ret ; (1 found)
0x643c4096: fimul word [ecx+0x5F5E5BF0] ; pop ebp ; ret ; (1 found)
0x643c1c51: fisttp  [ecx+0x391C75D7] ; mov esp, 0x00008024 ; add byte [ebp-0x76], bh ; call  [0x643CB188] ; (1 found)
0x643c3c4d: fmul  [ecx-0x74FBDBBC] ; inc ebp ; int3 ; mov  [esp+0x00], eax ; call  [0x643CB170] ; (1 found)
0x643c10e1: fmul  [edi] ; test byte [ecx+eax], cl ; add byte [eax], al ; mov  [esp+0x00], 0x000003E8 ; call edi ; (1 found)
0x643c3e95: fstenv  [eax+ebp-0x77] ; retn 0x428B ; (1 found)
0x643c37be: hlt ; call  [0x643CB15C] ; (1 found)
0x643c3ba1: hlt ; pop ebx ; pop esi ; pop edi ; pop ebp ; ret ; (1 found)
0x643c3ba2: hlt ; pop ebx ; pop esi ; pop edi ; pop ebp ; ret ; (1 found)
0x643c1fd6: imul ecx,  [ecx-0x74D3DBBC], 0x83502444 ; ret ; (1 found)
0x643c20f6: imul edi, edi, 0xB68DFFFF ; add byte [eax], al ; add byte [eax], al ; call  [0x643CB188] ; (1 found)
0x643c3f2a: in al, 0x93 ; cmp al, 0x64 ; add byte [eax], al ; add byte [eax], al ; mov  [esp+0x00], 0x643C93E8 ; call  [0x643CB10C] ; (1 found)
0x643c3f27: in al, 0xC7 ; add eax, 0x643C93E4 ; add byte [eax], al ; add byte [eax], al ; mov  [esp+0x00], 0x643C93E8 ; call  [0x643CB10C] ; (1 found)
0x643c3a39: in al, dx ; adc byte [ebp-0x7CEA8B40], al ; add eax, 0x643C93D8 ; add  [ebx+0x5E5B30C4], eax ; pop edi ; ret ; (1 found)
0x643c1456: in al, dx ; adc byte [ebx+0x3CB1301D], cl ; mov  [fs:esp+0x00], 0x643C6000 ; call ebx ; (1 found)
0x643c3e39: in al, dx ; add al, 0x83 ; les ebx,  [eax] ; pop ebx ; ret ; (1 found)
0x643c3eaf: in al, dx ; add al, 0x83 ; les ebx,  [eax] ; xor eax, eax ; pop ebx ; ret ; (1 found)
0x643c3e1e: in al, dx ; add al, 0x89 ; sbb eax, 0x643C93E0 ; mov  [esp+0x00], 0x643C93E8 ; mov  [ebx+0x08], eax ; call  [0x643CB14C] ; (1 found)
0x643c3700: in al, dx ; add al, 0x8B ; pop esp ; and al, 0x10 ; xor ebx,  [esp+0x14] ; call  [0x643CB124] ; (1 found)
0x643c1555: in al, dx ; add al, 0xC9 ; ret ; (1 found)
0x643c37d6: in al, dx ; add al, 0xFF ; adc eax, 0x643CB120 ; mov  [esp+0x04], 0xC0000409 ; mov  [esp+0x00], eax ; call  [0x643CB164] ; (1 found)
0x643c362c: in al, dx ; or al, 0x66 ; nop ; call eax ; (1 found)
0x643c32d0: in al, dx ; or byte [ebx+0x643C9020], ah ; mov  [esp+0x04], 0x643C6151 ; mov  [esp+0x00], ebx ; call esi ; (1 found)
0x643c3383: in al, dx ; or byte [ebx+0x643C9020], ah ; mov  [esp+0x04], 0x643C6151 ; mov  [esp+0x00], ebx ; call esi ; (1 found)
0x643c32bb: in al, dx ; or byte [ebx+0x643C9024], ah ; mov  [esp+0x04], 0x643C6142 ; mov  [esp+0x00], ebx ; call esi ; (1 found)
0x643c336e: in al, dx ; or byte [ebx+0x643C9024], ah ; mov  [esp+0x04], 0x643C6142 ; mov  [esp+0x00], ebx ; call esi ; (1 found)
0x643c32a6: in al, dx ; or byte [ebx+0x643C9028], ah ; mov  [esp+0x04], 0x643C6125 ; mov  [esp+0x00], ebx ; call esi ; (1 found)
0x643c3359: in al, dx ; or byte [ebx+0x643C9028], ah ; mov  [esp+0x04], 0x643C6125 ; mov  [esp+0x00], ebx ; call esi ; (1 found)
0x643c3291: in al, dx ; or byte [ebx+0x643C902C], ah ; mov  [esp+0x04], 0x643C6107 ; mov  [esp+0x00], ebx ; call esi ; (1 found)
0x643c3344: in al, dx ; or byte [ebx+0x643C902C], ah ; mov  [esp+0x04], 0x643C6107 ; mov  [esp+0x00], ebx ; call esi ; (1 found)
0x643c327c: in al, dx ; or byte [ebx+0x643C9030], ah ; mov  [esp+0x04], 0x643C60E9 ; mov  [esp+0x00], ebx ; call esi ; (1 found)
0x643c332f: in al, dx ; or byte [ebx+0x643C9030], ah ; mov  [esp+0x04], 0x643C60E9 ; mov  [esp+0x00], ebx ; call esi ; (1 found)
0x643c1504: in al, dx ; sbb bh, al ; add al, 0x24 ; add byte [eax+0x3C], ah ; call  [fs:0x643CB130] ; (1 found)
0x643c1452: in eax, 0x56 ; push ebx ; sub esp, 0x10 ; mov ebx,  [0x643CB130] ; mov  [esp+0x00], 0x643C6000 ; call ebx ; (1 found)
0x643c1502: in eax, 0x83 ; in al, dx ; sbb bh, al ; add al, 0x24 ; add byte [eax+0x3C], ah ; call  [fs:0x643CB130] ; (1 found)
0x643c38a2: in eax, dx ; add esp, 0x18 ; mov eax, 0x00000001 ; pop ebx ; retn 0x000C ; (1 found)
0x643c41cb: inc  [ebp+0x0000B8C0] ; cmp al, 0x64 ; cmovne ebx, eax ; mov eax, ebx ; pop ebx ; ret ; (1 found)
0x643c360e: inc  [ebp-0x3F6BF040] ; add esp, 0x1C ; movzx eax, al ; neg eax ; ret ; (1 found)
0x643c4119: inc  [ebp-0x5E108B40] ; cmp al, 0x00 ; cmp al, 0x64 ; movzx eax, word [eax+0x643C0006] ; ret ; (1 found)
0x643c428c: inc  [ebp-0x7E398B40] ; ret ; (1 found)
0x643c1954: inc  [ebx+0x5E5B5CC4] ; pop edi ; pop ebp ; ret ; (1 found)
0x643c26ce: inc  [ebx+0x5E5B6CC4] ; pop edi ; pop ebp ; ret ; (1 found)
0x643c12c0: inc  [ebx-0x0F76E33C] ; pop ebx ; pop esi ; pop edi ; pop ebp ; ret ; (1 found)
0x643c40f6: inc  [ebx-0x3C76F73C] ; mov eax, ebx ; pop ebx ; ret ; (1 found)
0x643c2097: inc byte [eax+0x5374FCFA] ; call  [0x643CB188] ; (1 found)
0x643c3c22: inc eax ; add al, 0x89 ; add al, 0x24 ; call  [0x643CB174] ; (1 found)
0x643c264d: inc eax ; mov  [esp+0x04], eax ; lea eax,  [esi+0x30] ; mov  [esp+0x0C], edx ; mov  [esp+0x00], eax ; call  [esi+0x3C] ; (1 found)
0x643c17ab: inc eax ; mov eax, ebx ; pop ebx ; pop esi ; pop edi ; ret ; (1 found)
0x643c17c5: inc eax ; mov eax, ebx ; pop ebx ; pop esi ; pop edi ; ret ; (1 found)
0x643c3c4c: inc ebp ; fmul  [ecx-0x74FBDBBC] ; inc ebp ; int3 ; mov  [esp+0x00], eax ; call  [0x643CB170] ; (1 found)
0x643c37bd: inc ebp ; hlt ; call  [0x643CB15C] ; (1 found)
0x643c3c53: inc ebp ; int3 ; mov  [esp+0x00], eax ; call  [0x643CB170] ; (1 found)
0x643c37b5: inc ebp ; lock mov eax,  [0x643C5D54] ; mov  [ebp-0x0C], eax ; call  [0x643CB15C] ; (1 found)
0x643c3da7: inc ebx ; add al, 0x89 ; xor al, 0x24 ; call eax ; (1 found)
0x643c2985: inc ebx ; add al, byte [ebx+0x04B820C4] ; add byte [eax], al ; add byte [ebx+0x5E], bl ; pop edi ; ret ; (1 found)
0x643c2c0e: inc edi ; add eax,  [ebx+0x04B820C4] ; add byte [eax], al ; add byte [ebx+0x5E], bl ; pop edi ; ret ; (1 found)
0x643c3137: inc edi ; inc esp ; and al, 0x04 ; retn 0x3C60 ; (1 found)
0x643c1b8a: inc edi ; or al, 0x89 ; retn 0xE2C1 ; (1 found)
0x643c32c6: inc edx ; popad ; cmp al, 0x64 ; mov  [esp+0x00], ebx ; call esi ; (1 found)
0x643c3379: inc edx ; popad ; cmp al, 0x64 ; mov  [esp+0x00], ebx ; call esi ; (1 found)
0x643c2e2e: inc edx ; sbb al, 0x00 ; add byte [eax], al ; add byte [ecx-0x7BF0FBBE], cl ; ret ; (1 found)
0x643c2653: inc esi ; xor byte [ecx-0x76F3DBAC], cl ; add al, 0x24 ; call  [esi+0x3C] ; (1 found)
0x643c148b: inc esp ; and al, 0x04 ; adc esp,  [eax+0x3C] ; mov  [fs:esp+0x00], esi ; call  [0x643CB134] ; (1 found)
0x643c14a3: inc esp ; and al, 0x04 ; add al, 0x90 ; cmp al, 0x64 ; mov  [esp+0x00], 0x643C8150 ; call eax ; (1 found)
0x643c2de5: inc esp ; and al, 0x04 ; and  [eax+0x3C], 0x24348964 ; call  [0x643CB1A0] ; (1 found)
0x643c32ae: inc esp ; and al, 0x04 ; and eax, 0x89643C61 ; sbb al, 0x24 ; call esi ; (1 found)
0x643c3361: inc esp ; and al, 0x04 ; and eax, 0x89643C61 ; sbb al, 0x24 ; call esi ; (1 found)
0x643c2001: inc esp ; and al, 0x04 ; call  [0x643C902C] ; (1 found)
0x643c1759: inc esp ; and al, 0x04 ; lea eax,  [ebx+0x18] ; mov  [esp+0x00], eax ; call  [0x643C9028] ; (1 found)
0x643c2535: inc esp ; and al, 0x04 ; lea eax,  [esi+0x10] ; mov  [esp+0x00], eax ; call  [esi+0x18] ; (1 found)
0x643c264f: inc esp ; and al, 0x04 ; lea eax,  [esi+0x30] ; mov  [esp+0x0C], edx ; mov  [esp+0x00], eax ; call  [esi+0x3C] ; (1 found)
0x643c1b12: inc esp ; and al, 0x04 ; lea eax,  [esp+0x3C] ; mov  [esp+0x00], eax ; call  [0x643C9028] ; (1 found)
0x643c31f3: inc esp ; and al, 0x04 ; mov  [esp+0x00], ebp ; call esi ; (1 found)
0x643c30c1: inc esp ; and al, 0x04 ; mov al, 0x60 ; cmp al, 0x64 ; mov  [esp+0x00], ebp ; call ebx ; (1 found)
0x643c39e1: inc esp ; and al, 0x04 ; mov eax,  [0x643C93DC] ; mov eax,  [eax+ebx+0x04] ; mov  [esp+0x00], eax ; call  [0x643CB174] ; (1 found)
0x643c3c4f: inc esp ; and al, 0x04 ; mov eax,  [ebp-0x34] ; mov  [esp+0x00], eax ; call  [0x643CB170] ; (1 found)
0x643c34c7: inc esp ; and al, 0x04 ; mov eax,  [ebx] ; mov  [esp+0x00], eax ; call  [ebx+0x08] ; (1 found)
0x643c3006: inc esp ; and al, 0x04 ; mov eax,  [edx] ; mov  [esp+0x00], eax ; call  [0x643CB11C] ; (1 found)
0x643c3a24: inc esp ; and al, 0x04 ; mov eax,  [esp+0x14] ; mov  [esp+0x0C], ebx ; mov  [esp+0x00], eax ; call  [0x643CB170] ; (1 found)
0x643c212b: inc esp ; and al, 0x04 ; mov eax,  [esp+0x20] ; mov eax,  [eax] ; mov  [esp+0x00], eax ; call  [0x643CB144] ; (1 found)
0x643c3120: inc esp ; and al, 0x04 ; mov esp, 0x89643C60 ; sub al, 0x24 ; call ebx ; (1 found)
0x643c38e1: inc esp ; and al, 0x04 ; ret ; (1 found)
0x643c38f1: inc esp ; and al, 0x04 ; ret ; (1 found)
0x643c3139: inc esp ; and al, 0x04 ; retn 0x3C60 ; (1 found)
0x643c223f: inc esp ; and al, 0x08 ; call  [ebp+0x10] ; (1 found)
0x643c1fca: inc esp ; and al, 0x08 ; call  [ebx+0x10] ; (1 found)
0x643c1783: inc esp ; and al, 0x08 ; mov  [esp+0x04], esi ; call  [ebx+0x10] ; (1 found)
0x643c18e6: inc esp ; and al, 0x0C ; lea eax,  [esp+0x3C] ; mov  [esp+0x00], eax ; call  [0x643C902C] ; (1 found)
0x643c1ff7: inc esp ; and al, 0x0C ; mov eax,  [ebx-0x18] ; mov  [esp+0x00], ebx ; mov  [esp+0x04], eax ; call  [0x643C902C] ; (1 found)
0x643c36f3: inc esp ; and al, 0x10 ; mov  [esp+0x00], eax ; call  [0x643CB138] ; (1 found)
0x643c3a28: inc esp ; and al, 0x14 ; mov  [esp+0x0C], ebx ; mov  [esp+0x00], eax ; call  [0x643CB170] ; (1 found)
0x643c3723: inc esp ; and al, 0x18 ; mov  [esp+0x00], eax ; call  [0x643CB158] ; (1 found)
0x643c212f: inc esp ; and al, 0x20 ; mov eax,  [eax] ; mov  [esp+0x00], eax ; call  [0x643CB144] ; (1 found)
0x643c3e0c: inc esp ; and al, 0x24 ; mov  [ebx+0x04], eax ; call  [0x643CB110] ; (1 found)
0x643c3002: inc esp ; and al, 0x2C ; mov  [esp+0x04], eax ; mov eax,  [edx] ; mov  [esp+0x00], eax ; call  [0x643CB11C] ; (1 found)
0x643c35e1: inc esp ; and al, 0x30 ; mov  [esp+0x00], eax ; call  [0x643CB198] ; (1 found)
0x643c34c3: inc esp ; and al, 0x34 ; mov  [esp+0x04], eax ; mov eax,  [ebx] ; mov  [esp+0x00], eax ; call  [ebx+0x08] ; (1 found)
0x643c18e2: inc esp ; and al, 0x38 ; mov  [esp+0x0C], eax ; lea eax,  [esp+0x3C] ; mov  [esp+0x00], eax ; call  [0x643C902C] ; (1 found)
0x643c1b16: inc esp ; and al, 0x3C ; mov  [esp+0x00], eax ; call  [0x643C9028] ; (1 found)
0x643c18ea: inc esp ; and al, 0x3C ; mov  [esp+0x00], eax ; call  [0x643C902C] ; (1 found)
0x643c1fbf: inc esp ; and al, 0x48 ; mov  [esp+0x04], edi ; mov  [esp+0x00], ebx ; mov  [esp+0x08], eax ; call  [ebx+0x10] ; (1 found)
0x643c1fbd: inc esp ; mov eax,  [esp+0x48] ; mov  [esp+0x04], edi ; mov  [esp+0x00], ebx ; mov  [esp+0x08], eax ; call  [ebx+0x10] ; (1 found)
0x643c39ea: inc esp ; sbb byte [ecx+ecx*4], al ; add al, 0x24 ; call  [0x643CB174] ; (1 found)
0x643c37d1: insb ; mov cl, 0x3C ; sub esp, 0x04 ; call  [0x643CB120] ; (1 found)
0x643c26d1: insb ; pop ebx ; pop esi ; pop edi ; pop ebp ; ret ; (1 found)
0x643c2806: insb ; pop ebx ; pop esi ; pop edi ; pop ebp ; ret ; (1 found)
0x643c3249: int 0x60 ; cmp al, 0x64 ; call  [0x643CB150] ; (1 found)
0x643c32fc: int 0x60 ; cmp al, 0x64 ; call  [0x643CB150] ; (1 found)
0x643c3ea0: int1 ; mov  [esp+0x00], 0x643C93E8 ; call  [0x643CB14C] ; (1 found)
0x643c3c54: int3 ; mov  [esp+0x00], eax ; call  [0x643CB170] ; (1 found)
0x643c3c14: int3 ; mov  [esp+0x08], 0x0000001C ; mov  [esp+0x04], ecx ; mov eax,  [eax+0x04] ; mov  [esp+0x00], eax ; call  [0x643CB174] ; (1 found)
0x643c4342: int3 ; mov cl, 0x3C ; nop ; nop ; jmp  [0x643CB1C8] ; (1 found)
0x643c43b0: jmp  [0x643CB180] ; (1 found)
0x643c43a8: jmp  [0x643CB184] ; (1 found)
0x643c43a0: jmp  [0x643CB18C] ; (1 found)
0x643c4398: jmp  [0x643CB194] ; (1 found)
0x643c4390: jmp  [0x643CB19C] ; (1 found)
0x643c4388: jmp  [0x643CB1A8] ; (1 found)
0x643c4380: jmp  [0x643CB1AC] ; (1 found)
0x643c4378: jmp  [0x643CB1B0] ; (1 found)
0x643c4370: jmp  [0x643CB1B4] ; (1 found)
0x643c4368: jmp  [0x643CB1B8] ; (1 found)
0x643c4360: jmp  [0x643CB1BC] ; (1 found)
0x643c4358: jmp  [0x643CB1C0] ; (1 found)
0x643c4350: jmp  [0x643CB1C4] ; (1 found)
0x643c4348: jmp  [0x643CB1C8] ; (1 found)
0x643c4340: jmp  [0x643CB1CC] ; (1 found)
0x643c4338: jmp  [0x643CB1D0] ; (1 found)
0x643c4330: jmp  [0x643CB1D4] ; (1 found)
0x643c2a41: jmp  [ecx+0x643C6064] ; (1 found)
0x643c2a85: jmp  [ecx+0x643C6064] ; (1 found)
0x643c3a69: jmp  [ecx+0x643C93DC] ; (1 found)
0x643c11fd: jmp  [esi-0x70] ; (1 found)
0x643c136d: jmp  [esi-0x70] ; (1 found)
0x643c1a7d: jmp  [esi-0x70] ; (1 found)
0x643c30dd: jmp  [esi-0x70] ; (1 found)
0x643c315d: jmp  [esi-0x70] ; (1 found)
0x643c31dd: jmp  [esi-0x70] ; (1 found)
0x643c2c24: jmp  [esi-0x77] ; (1 found)
0x643c2cde: jmp  [esi-0x77] ; (1 found)
0x643c2d09: jmp  [esi-0x77] ; (1 found)
0x643c2d3a: jmp  [esi-0x77] ; (1 found)
0x643c3c93: jmp  [esi-0x7D] ; (1 found)
0x643c175c: lea eax,  [ebx+0x18] ; mov  [esp+0x00], eax ; call  [0x643C9028] ; (1 found)
0x643c2538: lea eax,  [esi+0x10] ; mov  [esp+0x00], eax ; call  [esi+0x18] ; (1 found)
0x643c2652: lea eax,  [esi+0x30] ; mov  [esp+0x0C], edx ; mov  [esp+0x00], eax ; call  [esi+0x3C] ; (1 found)
0x643c36f2: lea eax,  [esp+0x10] ; mov  [esp+0x00], eax ; call  [0x643CB138] ; (1 found)
0x643c3722: lea eax,  [esp+0x18] ; mov  [esp+0x00], eax ; call  [0x643CB158] ; (1 found)
0x643c3001: lea eax,  [esp+0x2C] ; mov  [esp+0x04], eax ; mov eax,  [edx] ; mov  [esp+0x00], eax ; call  [0x643CB11C] ; (1 found)
0x643c1ff2: lea eax,  [esp+0x2C] ; mov  [esp+0x0C], eax ; mov eax,  [ebx-0x18] ; mov  [esp+0x00], ebx ; mov  [esp+0x04], eax ; call  [0x643C902C] ; (1 found)
0x643c18e1: lea eax,  [esp+0x38] ; mov  [esp+0x0C], eax ; lea eax,  [esp+0x3C] ; mov  [esp+0x00], eax ; call  [0x643C902C] ; (1 found)
0x643c1b15: lea eax,  [esp+0x3C] ; mov  [esp+0x00], eax ; call  [0x643C9028] ; (1 found)
0x643c18e9: lea eax,  [esp+0x3C] ; mov  [esp+0x00], eax ; call  [0x643C902C] ; (1 found)
0x643c264a: lea eax,  [esp+0x40] ; mov  [esp+0x04], eax ; lea eax,  [esi+0x30] ; mov  [esp+0x0C], edx ; mov  [esp+0x00], eax ; call  [esi+0x3C] ; (1 found)
0x643c3c12: lea ecx,  [ebp-0x34] ; mov  [esp+0x08], 0x0000001C ; mov  [esp+0x04], ecx ; mov eax,  [eax+0x04] ; mov  [esp+0x00], eax ; call  [0x643CB174] ; (1 found)
0x643c16f9: lea edi,  [edi+0x00000000] ; call  [0x643CB188] ; (1 found)
0x643c22e9: lea edi,  [edi+0x00000000] ; call  [0x643CB188] ; (1 found)
0x643c2499: lea edi,  [edi+0x00000000] ; call  [0x643CB188] ; (1 found)
0x643c38e9: lea edi,  [edi+0x00000000] ; mov eax,  [esp+0x04] ; ret ; (1 found)
0x643c1569: lea edi,  [edi+0x00000000] ; mov eax, 0x00000001 ; ret ; (1 found)
0x643c27cf: lea edx,  [esi+0x30] ; mov  [esp+0x00], edx ; mov  [esp+0x08], ecx ; call eax ; (1 found)
0x643c2ddd: lea esi,  [ebx+0x02] ; mov  [esp+0x18], edx ; mov  [esp+0x04], 0x643C6081 ; mov  [esp+0x00], esi ; call  [0x643CB1A0] ; (1 found)
0x643c16d9: lea esi,  [esi+0x00000000] ; call  [0x643CB188] ; (1 found)
0x643c1eca: lea esi,  [esi+0x00000000] ; call  [0x643CB188] ; (1 found)
0x643c20fa: lea esi,  [esi+0x00000000] ; call  [0x643CB188] ; (1 found)
0x643c21f9: lea esi,  [esi+0x00000000] ; call  [0x643CB188] ; (1 found)
0x643c2d19: lea esi,  [esi+0x00000000] ; call  [0x643CB188] ; (1 found)
0x643c1563: lea esi,  [esi+0x00000000] ; lea edi,  [edi+0x00000000] ; mov eax, 0x00000001 ; ret ; (1 found)
0x643c3e69: lea esi,  [esi+0x00000000] ; mov  [esp+0x00], 0x643C93E8 ; call  [0x643CB110] ; (1 found)
0x643c1e2c: lea esi,  [esi+0x00] ; call  [0x643CB12C] ; (1 found)
0x643c17cc: lea esi,  [esi+0x00] ; call  [0x643CB188] ; (1 found)
0x643c247d: lea esi,  [esi+0x00] ; call  [0x643CB188] ; (1 found)
0x643c2a6c: lea esi,  [esi+0x00] ; call  [0x643CB188] ; (1 found)
0x643c343c: lea esi,  [esi+0x00] ; call  [0x643CB188] ; (1 found)
0x643c16f6: lea esi,  [esi+0x00] ; lea edi,  [edi+0x00000000] ; call  [0x643CB188] ; (1 found)
0x643c2496: lea esi,  [esi+0x00] ; lea edi,  [edi+0x00000000] ; call  [0x643CB188] ; (1 found)
0x643c38e5: lea esi,  [esi+0x00] ; lea edi,  [edi+0x00000000] ; mov eax,  [esp+0x04] ; ret ; (1 found)
0x643c106d: lea esi,  [esi+0x00] ; mov  [esp+0x00], 0x000003E8 ; call esi ; (1 found)
0x643c2efc: lea esi,  [esi+0x00] ; mov  [esp+0x14], edx ; call  [0x643CB118] ; (1 found)
0x643c3d8d: lea esi,  [esi+0x00] ; mov eax,  [ebx] ; mov  [esp+0x00], eax ; call ebp ; (1 found)
0x643c14fc: lea esi,  [esi+0x00] ; push ebp ; mov ebp, esp ; sub esp, 0x18 ; mov  [esp+0x00], 0x643C6000 ; call  [0x643CB130] ; (1 found)
0x643c14f4: lea esp,  [ebp-0x08] ; pop ebx ; pop esi ; pop ebp ; ret ; (1 found)
0x643c3ba0: lea esp,  [ebp-0x0C] ; pop ebx ; pop esi ; pop edi ; pop ebp ; ret ; (1 found)
0x643c1f39: leave ; call  [0x643CB188] ; (1 found)
0x643c1557: leave ; ret ; (1 found)
0x643c43d7: leave ; ret ; (1 found)
0x643c17aa: les eax,  [eax-0x77] ; fcomp  [ebx+0x5E] ; pop edi ; ret ; (1 found)
0x643c17c4: les eax,  [eax-0x77] ; fcomp  [ebx+0x5E] ; pop edi ; ret ; (1 found)
0x643c35d9: les ebp,  [eax] ; mov eax, ebx ; pop ebx ; ret ; (1 found)
0x643c35ee: les ebp,  [eax] ; pop ebx ; ret ; (1 found)
0x643c26d0: les ebp,  [ebx+ebx*2+0x5E] ; pop edi ; pop ebp ; ret ; (1 found)
0x643c2805: les ebp,  [ebx+ebx*2+0x5E] ; pop edi ; pop ebp ; ret ; (1 found)
0x643c22cd: les ebp,  [ebx+ebx*2] ; pop esi ; pop edi ; pop ebp ; ret ; (1 found)
0x643c36eb: les ebp,  [ebx+ebx*2] ; pop esi ; pop edi ; pop ebp ; ret ; (1 found)
0x643c3758: les ebp,  [ebx+ebx*2] ; pop esi ; pop edi ; pop ebp ; ret ; (1 found)
0x643c1a05: les ebx,  [eax+edi*4+0x01] ; add byte [eax], al ; add byte [ebx+0x5E], bl ; pop edi ; pop ebp ; ret ; (1 found)
0x643c1aa4: les ebx,  [eax+edi*4+0x01] ; add byte [eax], al ; add byte [ebx+0x5E], bl ; pop edi ; pop ebp ; ret ; (1 found)
0x643c1036: les ebx,  [eax] ; mov eax, 0x00000001 ; pop ebx ; ret ; (1 found)
0x643c3876: les ebx,  [eax] ; mov eax, 0x00000001 ; pop ebx ; retn 0x000C ; (1 found)
0x643c38a4: les ebx,  [eax] ; mov eax, 0x00000001 ; pop ebx ; retn 0x000C ; (1 found)
0x643c367c: les ebx,  [eax] ; pop ebx ; ret ; (1 found)
0x643c3e3c: les ebx,  [eax] ; pop ebx ; ret ; (1 found)
0x643c102f: les ebx,  [eax] ; xor eax, eax ; pop ebx ; ret ; (1 found)
0x643c3e62: les ebx,  [eax] ; xor eax, eax ; pop ebx ; ret ; (1 found)
0x643c3eb2: les ebx,  [eax] ; xor eax, eax ; pop ebx ; ret ; (1 found)
0x643c214f: les ebx,  [ebx+eax*8] ; call  [0x643CB188] ; (1 found)
0x643c3f5d: les ebx,  [ebx+eax*8] ; mov  [esp+0x00], 0x643C93E8 ; call  [0x643CB140] ; (1 found)
0x643c1931: les ebx,  [ebx+ebx*2+0x5E] ; pop edi ; pop ebp ; ret ; (1 found)
0x643c1956: les ebx,  [ebx+ebx*2+0x5E] ; pop edi ; pop ebp ; ret ; (1 found)
0x643c1c22: les ebx,  [ebx+ebx*2-0x77] ; clc ; pop esi ; pop edi ; pop ebp ; ret ; (1 found)
0x643c3dc6: les ebx,  [ebx+ebx*2] ; pop esi ; pop edi ; pop ebp ; ret ; (1 found)
0x643c1c05: les ebx,  [ecx+ecx*4-0x08] ; pop ebx ; pop esi ; pop edi ; pop ebp ; ret ; (1 found)
0x643c4093: les ebx,  [ecx+ecx*4] ; fimul word [ecx+0x5F5E5BF0] ; pop ebp ; ret ; (1 found)
0x643c12c2: les ebx,  [ecx+ecx*4] ; lock pop ebx ; pop esi ; pop edi ; pop ebp ; ret ; (1 found)
0x643c4036: les ebx,  [ecx+ecx*4] ; lock pop ebx ; pop esi ; pop edi ; pop ebp ; ret ; (1 found)
0x643c40a1: les ebx,  [ecx+esi] ; neg byte [ebx-0x77] ; lock pop esi ; pop edi ; pop ebp ; ret ; (1 found)
0x643c3615: les ebx,  [edi+ecx] ; mov dh, 0xC0 ; neg eax ; ret ; (1 found)
0x643c2fad: les ecx,  [eax+edi*4+0x01] ; add byte [eax], al ; add byte [ebx+0x5E], bl ; pop edi ; pop ebp ; ret ; (1 found)
0x643c40c2: les ecx,  [eax] ; mov eax, ebx ; pop ebx ; ret ; (1 found)
0x643c4258: les ecx,  [eax] ; mov eax, edi ; pop ebx ; pop esi ; pop edi ; ret ; (1 found)
0x643c40f8: les ecx,  [eax] ; mov ebx, eax ; mov eax, ebx ; pop ebx ; ret ; (1 found)
0x643c4227: les ecx,  [eax] ; ret ; (1 found)
0x643c1f8d: les ecx,  [ebx+eax*8] ; call  [0x643CB188] ; (1 found)
0x643c15f6: les ecx,  [ebx+ebx*2] ; pop esi ; pop edi ; pop ebp ; ret ; (1 found)
0x643c3648: les ecx,  [ebx+esi*8] ; ret ; (1 found)
0x643c3081: les ecx,  [ecx+esi-0x40] ; pop ebx ; pop esi ; pop edi ; pop ebp ; ret ; (1 found)
0x643c30e1: les ecx,  [ecx+esi-0x40] ; pop ebx ; pop esi ; pop edi ; pop ebp ; ret ; (1 found)
0x643c218c: les ecx,  [edi] ; xchg eax, ebp ; ret ; (1 found)
0x643c1e24: les edi,  [ebx+ebx*2] ; pop esi ; pop edi ; pop ebp ; ret ; (1 found)
0x643c1162: les edx,  [eax] ; mov eax, 0x00000001 ; pop ebx ; pop esi ; pop edi ; retn 0x000C ; (1 found)
0x643c348a: les edx,  [eax] ; mov eax, esi ; pop ebx ; pop esi ; pop edi ; ret ; (1 found)
0x643c3530: les edx,  [eax] ; pop ebx ; pop esi ; pop edi ; ret ; (1 found)
0x643c10af: les edx,  [eax] ; pop ebx ; pop esi ; pop edi ; retn 0x000C ; (1 found)
0x643c11ec: les edx,  [eax] ; pop ebx ; pop esi ; pop edi ; retn 0x000C ; (1 found)
0x643c3436: les edx,  [ebx+ebx*2] ; pop esi ; ret ; (1 found)
0x643c21ad: les edx,  [ecx+ecx*4] ; fcomp  [ebx+0x5E] ; ret ; (1 found)
0x643c21f2: les edx,  [ecx+ecx*4] ; fcomp  [ebx+0x5E] ; ret ; (1 found)
0x643c202d: les esi,  [eax] ; mov eax, 0xFFFFFFFF ; pop ebx ; pop esi ; pop edi ; ret ; (1 found)
0x643c201a: les esi,  [eax] ; pop ebx ; pop esi ; pop edi ; ret ; (1 found)
0x643c3a47: les esi,  [eax] ; pop ebx ; pop esi ; pop edi ; ret ; (1 found)
0x643c4352: les esi,  [ecx-0x6F6F9BC4] ; jmp  [0x643CB1C0] ; (1 found)
0x643c2988: les esp,  [eax] ; mov eax, 0x00000004 ; pop ebx ; pop esi ; pop edi ; ret ; (1 found)
0x643c2c11: les esp,  [eax] ; mov eax, 0x00000004 ; pop ebx ; pop esi ; pop edi ; ret ; (1 found)
0x643c29f0: les esp,  [eax] ; mov eax, 0x00000008 ; pop ebx ; pop esi ; pop edi ; ret ; (1 found)
0x643c34e4: les esp,  [eax] ; mov eax, esi ; pop ebx ; pop esi ; pop edi ; ret ; (1 found)
0x643c2949: les esp,  [eax] ; pop ebx ; pop esi ; pop edi ; ret ; (1 found)
0x643c2a15: les esp,  [eax] ; pop ebx ; pop esi ; pop edi ; ret ; (1 found)
0x643c2b71: les esp,  [eax] ; pop ebx ; pop esi ; pop edi ; ret ; (1 found)
0x643c159b: lock add esi, esi ; ret ; (1 found)
0x643c37b6: lock mov eax,  [0x643C5D54] ; mov  [ebp-0x0C], eax ; call  [0x643CB15C] ; (1 found)
0x643c12c5: lock pop ebx ; pop esi ; pop edi ; pop ebp ; ret ; (1 found)
0x643c4039: lock pop ebx ; pop esi ; pop edi ; pop ebp ; ret ; (1 found)
0x643c4098: lock pop ebx ; pop esi ; pop edi ; pop ebp ; ret ; (1 found)
0x643c348d: lock pop ebx ; pop esi ; pop edi ; ret ; (1 found)
0x643c34e7: lock pop ebx ; pop esi ; pop edi ; ret ; (1 found)
0x643c4144: lock pop ebx ; pop esi ; ret ; (1 found)
0x643c419a: lock pop ebx ; pop esi ; ret ; (1 found)
0x643c41a3: lock pop ebx ; pop esi ; ret ; (1 found)
0x643c40a7: lock pop esi ; pop edi ; pop ebp ; ret ; (1 found)
0x643c4382: lodsb ; mov cl, 0x3C ; nop ; nop ; jmp  [0x643CB1A8] ; (1 found)
0x643c32d2: mov  [0x643C9020], eax ; mov  [esp+0x04], 0x643C6151 ; mov  [esp+0x00], ebx ; call esi ; (1 found)
0x643c3385: mov  [0x643C9020], eax ; mov  [esp+0x04], 0x643C6151 ; mov  [esp+0x00], ebx ; call esi ; (1 found)
0x643c32bd: mov  [0x643C9024], eax ; mov  [esp+0x04], 0x643C6142 ; mov  [esp+0x00], ebx ; call esi ; (1 found)
0x643c3370: mov  [0x643C9024], eax ; mov  [esp+0x04], 0x643C6142 ; mov  [esp+0x00], ebx ; call esi ; (1 found)
0x643c32a8: mov  [0x643C9028], eax ; mov  [esp+0x04], 0x643C6125 ; mov  [esp+0x00], ebx ; call esi ; (1 found)
0x643c335b: mov  [0x643C9028], eax ; mov  [esp+0x04], 0x643C6125 ; mov  [esp+0x00], ebx ; call esi ; (1 found)
0x643c3293: mov  [0x643C902C], eax ; mov  [esp+0x04], 0x643C6107 ; mov  [esp+0x00], ebx ; call esi ; (1 found)
0x643c3346: mov  [0x643C902C], eax ; mov  [esp+0x04], 0x643C6107 ; mov  [esp+0x00], ebx ; call esi ; (1 found)
0x643c327e: mov  [0x643C9030], eax ; mov  [esp+0x04], 0x643C60E9 ; mov  [esp+0x00], ebx ; call esi ; (1 found)
0x643c3331: mov  [0x643C9030], eax ; mov  [esp+0x04], 0x643C60E9 ; mov  [esp+0x00], ebx ; call esi ; (1 found)
0x643c37aa: mov  [0x643C90EC], eax ; mov eax,  [0x643C5D50] ; mov  [ebp-0x10], eax ; mov eax,  [0x643C5D54] ; mov  [ebp-0x0C], eax ; call  [0x643CB15C] ; (1 found)
0x643c3e20: mov  [0x643C93E0], ebx ; mov  [esp+0x00], 0x643C93E8 ; mov  [ebx+0x08], eax ; call  [0x643CB14C] ; (1 found)
0x643c3f28: mov  [0x643C93E4], 0x00000000 ; mov  [esp+0x00], 0x643C93E8 ; call  [0x643CB10C] ; (1 found)
0x643c3f4d: mov  [0x643C93E4], 0x00000001 ; mov eax, 0x00000001 ; add esp, 0x1C ; ret ; (1 found)
0x643c1485: mov  [0x643C9404], eax ; mov  [esp+0x04], 0x643C6013 ; mov  [esp+0x00], esi ; call  [0x643CB134] ; (1 found)
0x643c243f: mov  [eax], 0x00000000 ; mov eax, 0x00000004 ; pop ebx ; pop esi ; pop edi ; ret ; (1 found)
0x643c2362: mov  [eax], 0x00000001 ; mov eax, 0x00000004 ; pop ebx ; pop esi ; pop edi ; ret ; (1 found)
0x643c23c6: mov  [eax], 0x00000002 ; mov eax, 0x00000004 ; pop ebx ; pop esi ; pop edi ; ret ; (1 found)
0x643c3446: mov  [eax], 0x0000000C ; add esp, 0x14 ; mov eax, 0xFFFFFFFF ; pop ebx ; pop esi ; ret ; (1 found)
0x643c33f7: mov  [eax], 0x00000016 ; add esp, 0x14 ; mov eax, 0xFFFFFFFF ; pop ebx ; pop esi ; ret ; (1 found)
0x643c42c1: mov  [eax], 0x89643C00 ; clc ; pop edi ; ret ; (1 found)
0x643c37bc: mov  [ebp-0x0C], eax ; call  [0x643CB15C] ; (1 found)
0x643c37b4: mov  [ebp-0x10], eax ; mov eax,  [0x643C5D54] ; mov  [ebp-0x0C], eax ; call  [0x643CB15C] ; (1 found)
0x643c3e0f: mov  [ebx+0x04], eax ; call  [0x643CB110] ; (1 found)
0x643c342c: mov  [ebx+0x08], 0x643C24C0 ; mov  [ebx], ebx ; add esp, 0x14 ; pop ebx ; pop esi ; ret ; (1 found)
0x643c3e2d: mov  [ebx+0x08], eax ; call  [0x643CB14C] ; (1 found)
0x643c1028: mov  [ebx], 0x00000000 ; add esp, 0x18 ; xor eax, eax ; pop ebx ; ret ; (1 found)
0x643c3e09: mov  [ebx], eax ; mov eax,  [esp+0x24] ; mov  [ebx+0x04], eax ; call  [0x643CB110] ; (1 found)
0x643c3433: mov  [ebx], ebx ; add esp, 0x14 ; pop ebx ; pop esi ; ret ; (1 found)
0x643c30f1: mov  [edx+0x0C], 0x643C2850 ; mov  [esp+0x14], edx ; mov  [esp+0x04], 0x643C60B5 ; mov  [esp+0x00], ebp ; mov ebx,  [0x643CB1A0] ; call ebx ; (1 found)
0x643c2e72: mov  [edx+0x0C], 0x643C2AB0 ; mov  [esp+0x14], edx ; mov  [esp+0x04], 0x643C609D ; mov  [esp+0x00], ebp ; mov ebx,  [0x643CB1A0] ; call ebx ; (1 found)
0x643c3522: mov  [esp+0x00], 0x00000001 ; call edi ; (1 found)
0x643c10e8: mov  [esp+0x00], 0x000003E8 ; call edi ; (1 found)
0x643c1070: mov  [esp+0x00], 0x000003E8 ; call esi ; (1 found)
0x643c14eb: mov  [esp+0x00], 0x643C5D58 ; call edx ; (1 found)
0x643c1506: mov  [esp+0x00], 0x643C6000 ; call  [0x643CB130] ; (1 found)
0x643c1475: mov  [esp+0x00], 0x643C6000 ; call  [0x643CB150] ; (1 found)
0x643c145e: mov  [esp+0x00], 0x643C6000 ; call ebx ; (1 found)
0x643c14bc: mov  [esp+0x00], 0x643C6029 ; call ebx ; (1 found)
0x643c3246: mov  [esp+0x00], 0x643C60CD ; call  [0x643CB150] ; (1 found)
0x643c32f9: mov  [esp+0x00], 0x643C60CD ; call  [0x643CB150] ; (1 found)
0x643c37c8: mov  [esp+0x00], 0x643C6E54 ; call  [0x643CB16C] ; (1 found)
0x643c14aa: mov  [esp+0x00], 0x643C8150 ; call eax ; (1 found)
0x643c1539: mov  [esp+0x00], 0x643C8150 ; call edx ; (1 found)
0x643c3f32: mov  [esp+0x00], 0x643C93E8 ; call  [0x643CB10C] ; (1 found)
0x643c3d67: mov  [esp+0x00], 0x643C93E8 ; call  [0x643CB110] ; (1 found)
0x643c3e70: mov  [esp+0x00], 0x643C93E8 ; call  [0x643CB110] ; (1 found)
0x643c3f60: mov  [esp+0x00], 0x643C93E8 ; call  [0x643CB140] ; (1 found)
0x643c3db5: mov  [esp+0x00], 0x643C93E8 ; call  [0x643CB14C] ; (1 found)
0x643c3ea1: mov  [esp+0x00], 0x643C93E8 ; call  [0x643CB14C] ; (1 found)
0x643c3ece: mov  [esp+0x00], 0x643C93E8 ; call  [0x643CB14C] ; (1 found)
0x643c3e26: mov  [esp+0x00], 0x643C93E8 ; mov  [ebx+0x08], eax ; call  [0x643CB14C] ; (1 found)
0x643c3e02: mov  [esp+0x00], 0x643C93E8 ; mov  [ebx], eax ; mov eax,  [esp+0x24] ; mov  [ebx+0x04], eax ; call  [0x643CB110] ; (1 found)
0x643c175f: mov  [esp+0x00], eax ; call  [0x643C9028] ; (1 found)
0x643c1b19: mov  [esp+0x00], eax ; call  [0x643C9028] ; (1 found)
0x643c18ed: mov  [esp+0x00], eax ; call  [0x643C902C] ; (1 found)
0x643c154b: mov  [esp+0x00], eax ; call  [0x643CB114] ; (1 found)
0x643c300b: mov  [esp+0x00], eax ; call  [0x643CB11C] ; (1 found)
0x643c14d9: mov  [esp+0x00], eax ; call  [0x643CB134] ; (1 found)
0x643c1527: mov  [esp+0x00], eax ; call  [0x643CB134] ; (1 found)
0x643c36f6: mov  [esp+0x00], eax ; call  [0x643CB138] ; (1 found)
0x643c2134: mov  [esp+0x00], eax ; call  [0x643CB144] ; (1 found)
0x643c2fed: mov  [esp+0x00], eax ; call  [0x643CB148] ; (1 found)
0x643c3726: mov  [esp+0x00], eax ; call  [0x643CB158] ; (1 found)
0x643c37e6: mov  [esp+0x00], eax ; call  [0x643CB164] ; (1 found)
0x643c3a2f: mov  [esp+0x00], eax ; call  [0x643CB170] ; (1 found)
0x643c3c55: mov  [esp+0x00], eax ; call  [0x643CB170] ; (1 found)
0x643c39ed: mov  [esp+0x00], eax ; call  [0x643CB174] ; (1 found)
0x643c3c24: mov  [esp+0x00], eax ; call  [0x643CB174] ; (1 found)
0x643c35e4: mov  [esp+0x00], eax ; call  [0x643CB198] ; (1 found)
0x643c346c: mov  [esp+0x00], eax ; call  [ebx+0x04] ; (1 found)
0x643c34cc: mov  [esp+0x00], eax ; call  [ebx+0x08] ; (1 found)
0x643c253b: mov  [esp+0x00], eax ; call  [esi+0x18] ; (1 found)
0x643c2659: mov  [esp+0x00], eax ; call  [esi+0x3C] ; (1 found)
0x643c3d92: mov  [esp+0x00], eax ; call ebp ; (1 found)
0x643c3276: mov  [esp+0x00], eax ; call esi ; (1 found)
0x643c3329: mov  [esp+0x00], eax ; call esi ; (1 found)
0x643c1ded: mov  [esp+0x00], eax ; mov  [esp+0x08], edx ; call  [0x643CB178] ; (1 found)
0x643c22b4: mov  [esp+0x00], eax ; mov  [esp+0x10], ecx ; call  [0x643CB154] ; (1 found)
0x643c3096: mov  [esp+0x00], ebp ; call ebx ; (1 found)
0x643c30af: mov  [esp+0x00], ebp ; call ebx ; (1 found)
0x643c30c8: mov  [esp+0x00], ebp ; call ebx ; (1 found)
0x643c3127: mov  [esp+0x00], ebp ; call ebx ; (1 found)
0x643c3140: mov  [esp+0x00], ebp ; call ebx ; (1 found)
0x643c31ae: mov  [esp+0x00], ebp ; call ebx ; (1 found)
0x643c31f6: mov  [esp+0x00], ebp ; call esi ; (1 found)
0x643c223b: mov  [esp+0x00], ebp ; mov  [esp+0x08], eax ; call  [ebp+0x10] ; (1 found)
0x643c2e85: mov  [esp+0x00], ebp ; mov ebx,  [0x643CB1A0] ; call ebx ; (1 found)
0x643c3104: mov  [esp+0x00], ebp ; mov ebx,  [0x643CB1A0] ; call ebx ; (1 found)
0x643c3174: mov  [esp+0x00], ebp ; mov ebx,  [0x643CB1A4] ; call ebx ; (1 found)
0x643c1e19: mov  [esp+0x00], ebx ; call  [ebx+0x10] ; (1 found)
0x643c328b: mov  [esp+0x00], ebx ; call esi ; (1 found)
0x643c32a0: mov  [esp+0x00], ebx ; call esi ; (1 found)
0x643c32b5: mov  [esp+0x00], ebx ; call esi ; (1 found)
0x643c32ca: mov  [esp+0x00], ebx ; call esi ; (1 found)
0x643c32df: mov  [esp+0x00], ebx ; call esi ; (1 found)
0x643c333e: mov  [esp+0x00], ebx ; call esi ; (1 found)
0x643c3353: mov  [esp+0x00], ebx ; call esi ; (1 found)
0x643c3368: mov  [esp+0x00], ebx ; call esi ; (1 found)
0x643c337d: mov  [esp+0x00], ebx ; call esi ; (1 found)
0x643c3392: mov  [esp+0x00], ebx ; call esi ; (1 found)
0x643c1ffd: mov  [esp+0x00], ebx ; mov  [esp+0x04], eax ; call  [0x643C902C] ; (1 found)
0x643c1fc6: mov  [esp+0x00], ebx ; mov  [esp+0x08], eax ; call  [ebx+0x10] ; (1 found)
0x643c177f: mov  [esp+0x00], ebx ; mov  [esp+0x08], eax ; mov  [esp+0x04], esi ; call  [ebx+0x10] ; (1 found)
0x643c1152: mov  [esp+0x00], edx ; call eax ; (1 found)
0x643c27d2: mov  [esp+0x00], edx ; mov  [esp+0x08], ecx ; call eax ; (1 found)
0x643c1492: mov  [esp+0x00], esi ; call  [0x643CB134] ; (1 found)
0x643c2dec: mov  [esp+0x00], esi ; call  [0x643CB1A0] ; (1 found)
0x643c2eb1: mov  [esp+0x00], esi ; call  [0x643CB1A0] ; (1 found)
0x643c2ed8: mov  [esp+0x00], esi ; call  [0x643CB1A0] ; (1 found)
0x643c3da9: mov  [esp+0x00], esi ; call eax ; (1 found)
0x643c1142: mov  [esp+0x04], 0x00000002 ; mov  [esp+0x08], edx ; mov edx,  [esp+0x20] ; mov  [esp+0x00], edx ; call eax ; (1 found)
0x643c148a: mov  [esp+0x04], 0x643C6013 ; mov  [esp+0x00], esi ; call  [0x643CB134] ; (1 found)
0x643c14d1: mov  [esp+0x04], 0x643C6037 ; mov  [esp+0x00], eax ; call  [0x643CB134] ; (1 found)
0x643c151f: mov  [esp+0x04], 0x643C604B ; mov  [esp+0x00], eax ; call  [0x643CB134] ; (1 found)
0x643c2ea9: mov  [esp+0x04], 0x643C606E ; mov  [esp+0x00], esi ; call  [0x643CB1A0] ; (1 found)
0x643c2ed0: mov  [esp+0x04], 0x643C6077 ; mov  [esp+0x00], esi ; call  [0x643CB1A0] ; (1 found)
0x643c2de4: mov  [esp+0x04], 0x643C6081 ; mov  [esp+0x00], esi ; call  [0x643CB1A0] ; (1 found)
0x643c316c: mov  [esp+0x04], 0x643C6097 ; mov  [esp+0x00], ebp ; mov ebx,  [0x643CB1A4] ; call ebx ; (1 found)
0x643c31a6: mov  [esp+0x04], 0x643C609A ; mov  [esp+0x00], ebp ; call ebx ; (1 found)
0x643c2e7d: mov  [esp+0x04], 0x643C609D ; mov  [esp+0x00], ebp ; mov ebx,  [0x643CB1A0] ; call ebx ; (1 found)
0x643c308e: mov  [esp+0x04], 0x643C60A4 ; mov  [esp+0x00], ebp ; call ebx ; (1 found)
0x643c30a7: mov  [esp+0x04], 0x643C60AA ; mov  [esp+0x00], ebp ; call ebx ; (1 found)
0x643c30c0: mov  [esp+0x04], 0x643C60B0 ; mov  [esp+0x00], ebp ; call ebx ; (1 found)
0x643c30fc: mov  [esp+0x04], 0x643C60B5 ; mov  [esp+0x00], ebp ; mov ebx,  [0x643CB1A0] ; call ebx ; (1 found)
0x643c311f: mov  [esp+0x04], 0x643C60BC ; mov  [esp+0x00], ebp ; call ebx ; (1 found)
0x643c3138: mov  [esp+0x04], 0x643C60C2 ; mov  [esp+0x00], ebp ; call ebx ; (1 found)
0x643c326e: mov  [esp+0x04], 0x643C60D7 ; mov  [esp+0x00], eax ; call esi ; (1 found)
0x643c3321: mov  [esp+0x04], 0x643C60D7 ; mov  [esp+0x00], eax ; call esi ; (1 found)
0x643c3283: mov  [esp+0x04], 0x643C60E9 ; mov  [esp+0x00], ebx ; call esi ; (1 found)
0x643c3336: mov  [esp+0x04], 0x643C60E9 ; mov  [esp+0x00], ebx ; call esi ; (1 found)
0x643c3298: mov  [esp+0x04], 0x643C6107 ; mov  [esp+0x00], ebx ; call esi ; (1 found)
0x643c334b: mov  [esp+0x04], 0x643C6107 ; mov  [esp+0x00], ebx ; call esi ; (1 found)
0x643c32ad: mov  [esp+0x04], 0x643C6125 ; mov  [esp+0x00], ebx ; call esi ; (1 found)
0x643c3360: mov  [esp+0x04], 0x643C6125 ; mov  [esp+0x00], ebx ; call esi ; (1 found)
0x643c32c2: mov  [esp+0x04], 0x643C6142 ; mov  [esp+0x00], ebx ; call esi ; (1 found)
0x643c3375: mov  [esp+0x04], 0x643C6142 ; mov  [esp+0x00], ebx ; call esi ; (1 found)
0x643c32d7: mov  [esp+0x04], 0x643C6151 ; mov  [esp+0x00], ebx ; call esi ; (1 found)
0x643c338a: mov  [esp+0x04], 0x643C6151 ; mov  [esp+0x00], ebx ; call esi ; (1 found)
0x643c14a2: mov  [esp+0x04], 0x643C9004 ; mov  [esp+0x00], 0x643C8150 ; call eax ; (1 found)
0x643c37de: mov  [esp+0x04], 0xC0000409 ; mov  [esp+0x00], eax ; call  [0x643CB164] ; (1 found)
0x643c2000: mov  [esp+0x04], eax ; call  [0x643C902C] ; (1 found)
0x643c1758: mov  [esp+0x04], eax ; lea eax,  [ebx+0x18] ; mov  [esp+0x00], eax ; call  [0x643C9028] ; (1 found)
0x643c2534: mov  [esp+0x04], eax ; lea eax,  [esi+0x10] ; mov  [esp+0x00], eax ; call  [esi+0x18] ; (1 found)
0x643c264e: mov  [esp+0x04], eax ; lea eax,  [esi+0x30] ; mov  [esp+0x0C], edx ; mov  [esp+0x00], eax ; call  [esi+0x3C] ; (1 found)
0x643c1b11: mov  [esp+0x04], eax ; lea eax,  [esp+0x3C] ; mov  [esp+0x00], eax ; call  [0x643C9028] ; (1 found)
0x643c31f2: mov  [esp+0x04], eax ; mov  [esp+0x00], ebp ; call esi ; (1 found)
0x643c39e0: mov  [esp+0x04], eax ; mov eax,  [0x643C93DC] ; mov eax,  [eax+ebx+0x04] ; mov  [esp+0x00], eax ; call  [0x643CB174] ; (1 found)
0x643c3c4e: mov  [esp+0x04], eax ; mov eax,  [ebp-0x34] ; mov  [esp+0x00], eax ; call  [0x643CB170] ; (1 found)
0x643c34c6: mov  [esp+0x04], eax ; mov eax,  [ebx] ; mov  [esp+0x00], eax ; call  [ebx+0x08] ; (1 found)
0x643c3005: mov  [esp+0x04], eax ; mov eax,  [edx] ; mov  [esp+0x00], eax ; call  [0x643CB11C] ; (1 found)
0x643c3a23: mov  [esp+0x04], eax ; mov eax,  [esp+0x14] ; mov  [esp+0x0C], ebx ; mov  [esp+0x00], eax ; call  [0x643CB170] ; (1 found)
0x643c212a: mov  [esp+0x04], eax ; mov eax,  [esp+0x20] ; mov eax,  [eax] ; mov  [esp+0x00], eax ; call  [0x643CB144] ; (1 found)
0x643c351e: mov  [esp+0x04], ebx ; mov  [esp+0x00], 0x00000001 ; call edi ; (1 found)
0x643c1de1: mov  [esp+0x04], ecx ; mov  [esp+0x0C], edx ; mov edx,  [esp+0x54] ; mov  [esp+0x00], eax ; mov  [esp+0x08], edx ; call  [0x643CB178] ; (1 found)
0x643c3c1d: mov  [esp+0x04], ecx ; mov eax,  [eax+0x04] ; mov  [esp+0x00], eax ; call  [0x643CB174] ; (1 found)
0x643c1e15: mov  [esp+0x04], edi ; mov  [esp+0x00], ebx ; call  [ebx+0x10] ; (1 found)
0x643c1fc2: mov  [esp+0x04], edi ; mov  [esp+0x00], ebx ; mov  [esp+0x08], eax ; call  [ebx+0x10] ; (1 found)
0x643c27cb: mov  [esp+0x04], edx ; lea edx,  [esi+0x30] ; mov  [esp+0x00], edx ; mov  [esp+0x08], ecx ; call eax ; (1 found)
0x643c22b0: mov  [esp+0x04], edx ; mov  [esp+0x00], eax ; mov  [esp+0x10], ecx ; call  [0x643CB154] ; (1 found)
0x643c1786: mov  [esp+0x04], esi ; call  [ebx+0x10] ; (1 found)
0x643c2237: mov  [esp+0x04], esi ; mov  [esp+0x00], ebp ; mov  [esp+0x08], eax ; call  [ebp+0x10] ; (1 found)
0x643c3164: mov  [esp+0x08], 0x00000002 ; mov  [esp+0x04], 0x643C6097 ; mov  [esp+0x00], ebp ; mov ebx,  [0x643CB1A4] ; call ebx ; (1 found)
0x643c319e: mov  [esp+0x08], 0x00000002 ; mov  [esp+0x04], 0x643C609A ; mov  [esp+0x00], ebp ; call ebx ; (1 found)
0x643c39d8: mov  [esp+0x08], 0x0000001C ; mov  [esp+0x04], eax ; mov eax,  [0x643C93DC] ; mov eax,  [eax+ebx+0x04] ; mov  [esp+0x00], eax ; call  [0x643CB174] ; (1 found)
0x643c3c15: mov  [esp+0x08], 0x0000001C ; mov  [esp+0x04], ecx ; mov eax,  [eax+0x04] ; mov  [esp+0x00], eax ; call  [0x643CB174] ; (1 found)
0x643c3a1b: mov  [esp+0x08], 0x00000040 ; mov  [esp+0x04], eax ; mov eax,  [esp+0x14] ; mov  [esp+0x0C], ebx ; mov  [esp+0x00], eax ; call  [0x643CB170] ; (1 found)
0x643c223e: mov  [esp+0x08], eax ; call  [ebp+0x10] ; (1 found)
0x643c1fc9: mov  [esp+0x08], eax ; call  [ebx+0x10] ; (1 found)
0x643c1782: mov  [esp+0x08], eax ; mov  [esp+0x04], esi ; call  [ebx+0x10] ; (1 found)
0x643c3c47: mov  [esp+0x08], eax ; mov eax,  [ebp-0x28] ; mov  [esp+0x04], eax ; mov eax,  [ebp-0x34] ; mov  [esp+0x00], eax ; call  [0x643CB170] ; (1 found)
0x643c1752: mov  [esp+0x08], eax ; mov eax,  [ebx] ; mov  [esp+0x04], eax ; lea eax,  [ebx+0x18] ; mov  [esp+0x00], eax ; call  [0x643C9028] ; (1 found)
0x643c34be: mov  [esp+0x08], eax ; mov eax,  [esp+0x34] ; mov  [esp+0x04], eax ; mov eax,  [ebx] ; mov  [esp+0x00], eax ; call  [ebx+0x08] ; (1 found)
0x643c27d5: mov  [esp+0x08], ecx ; call eax ; (1 found)
0x643c1df0: mov  [esp+0x08], edx ; call  [0x643CB178] ; (1 found)
0x643c114a: mov  [esp+0x08], edx ; mov edx,  [esp+0x20] ; mov  [esp+0x00], edx ; call eax ; (1 found)
0x643c351a: mov  [esp+0x08], esi ; mov  [esp+0x04], ebx ; mov  [esp+0x00], 0x00000001 ; call edi ; (1 found)
0x643c1e11: mov  [esp+0x08], esi ; mov  [esp+0x04], edi ; mov  [esp+0x00], ebx ; call  [ebx+0x10] ; (1 found)
0x643c22ac: mov  [esp+0x08], esi ; mov  [esp+0x04], edx ; mov  [esp+0x00], eax ; mov  [esp+0x10], ecx ; call  [0x643CB154] ; (1 found)
0x643c18e5: mov  [esp+0x0C], eax ; lea eax,  [esp+0x3C] ; mov  [esp+0x00], eax ; call  [0x643C902C] ; (1 found)
0x643c1ff6: mov  [esp+0x0C], eax ; mov eax,  [ebx-0x18] ; mov  [esp+0x00], ebx ; mov  [esp+0x04], eax ; call  [0x643C902C] ; (1 found)
0x643c3a2b: mov  [esp+0x0C], ebx ; mov  [esp+0x00], eax ; call  [0x643CB170] ; (1 found)
0x643c22a8: mov  [esp+0x0C], ebx ; mov  [esp+0x08], esi ; mov  [esp+0x04], edx ; mov  [esp+0x00], eax ; mov  [esp+0x10], ecx ; call  [0x643CB154] ; (1 found)
0x643c252e: mov  [esp+0x0C], edi ; mov eax,  [eax] ; mov  [esp+0x04], eax ; lea eax,  [esi+0x10] ; mov  [esp+0x00], eax ; call  [esi+0x18] ; (1 found)
0x643c2655: mov  [esp+0x0C], edx ; mov  [esp+0x00], eax ; call  [esi+0x3C] ; (1 found)
0x643c1de5: mov  [esp+0x0C], edx ; mov edx,  [esp+0x54] ; mov  [esp+0x00], eax ; mov  [esp+0x08], edx ; call  [0x643CB178] ; (1 found)
0x643c18dd: mov  [esp+0x10], eax ; lea eax,  [esp+0x38] ; mov  [esp+0x0C], eax ; lea eax,  [esp+0x3C] ; mov  [esp+0x00], eax ; call  [0x643C902C] ; (1 found)
0x643c22b7: mov  [esp+0x10], ecx ; call  [0x643CB154] ; (1 found)
0x643c2f00: mov  [esp+0x14], edx ; call  [0x643CB118] ; (1 found)
0x643c3242: mov  [esp+0x14], edx ; mov  [esp+0x00], 0x643C60CD ; call  [0x643CB150] ; (1 found)
0x643c32f5: mov  [esp+0x14], edx ; mov  [esp+0x00], 0x643C60CD ; call  [0x643CB150] ; (1 found)
0x643c2fe9: mov  [esp+0x14], edx ; mov  [esp+0x00], eax ; call  [0x643CB148] ; (1 found)
0x643c2e79: mov  [esp+0x14], edx ; mov  [esp+0x04], 0x643C609D ; mov  [esp+0x00], ebp ; mov ebx,  [0x643CB1A0] ; call ebx ; (1 found)
0x643c308a: mov  [esp+0x14], edx ; mov  [esp+0x04], 0x643C60A4 ; mov  [esp+0x00], ebp ; call ebx ; (1 found)
0x643c30f8: mov  [esp+0x14], edx ; mov  [esp+0x04], 0x643C60B5 ; mov  [esp+0x00], ebp ; mov ebx,  [0x643CB1A0] ; call ebx ; (1 found)
0x643c311b: mov  [esp+0x14], edx ; mov  [esp+0x04], 0x643C60BC ; mov  [esp+0x00], ebp ; call ebx ; (1 found)
0x643c3160: mov  [esp+0x14], edx ; mov  [esp+0x08], 0x00000002 ; mov  [esp+0x04], 0x643C6097 ; mov  [esp+0x00], ebp ; mov ebx,  [0x643CB1A4] ; call ebx ; (1 found)
0x643c3264: mov  [esp+0x14], edx ; mov esi,  [0x643CB134] ; mov  [esp+0x04], 0x643C60D7 ; mov  [esp+0x00], eax ; call esi ; (1 found)
0x643c3317: mov  [esp+0x14], edx ; mov esi,  [0x643CB134] ; mov  [esp+0x04], 0x643C60D7 ; mov  [esp+0x00], eax ; call esi ; (1 found)
0x643c2ea5: mov  [esp+0x18], edx ; mov  [esp+0x04], 0x643C606E ; mov  [esp+0x00], esi ; call  [0x643CB1A0] ; (1 found)
0x643c2ecc: mov  [esp+0x18], edx ; mov  [esp+0x04], 0x643C6077 ; mov  [esp+0x00], esi ; call  [0x643CB1A0] ; (1 found)
0x643c2de0: mov  [esp+0x18], edx ; mov  [esp+0x04], 0x643C6081 ; mov  [esp+0x00], esi ; call  [0x643CB1A0] ; (1 found)
0x643c3445: mov  [fs:eax], 0x0000000C ; add esp, 0x14 ; mov eax, 0xFFFFFFFF ; pop ebx ; pop esi ; ret ; (1 found)
0x643c37bb: mov  [fs:ebp-0x0C], eax ; call  [0x643CB15C] ; (1 found)
0x643c37b3: mov  [fs:ebp-0x10], eax ; mov eax,  [0x643C5D54] ; mov  [ebp-0x0C], eax ; call  [0x643CB15C] ; (1 found)
0x643c3e2c: mov  [fs:ebx+0x08], eax ; call  [0x643CB14C] ; (1 found)
0x643c3e08: mov  [fs:ebx], eax ; mov eax,  [esp+0x24] ; mov  [ebx+0x04], eax ; call  [0x643CB110] ; (1 found)
0x643c3432: mov  [fs:ebx], ebx ; add esp, 0x14 ; pop ebx ; pop esi ; ret ; (1 found)
0x643c30f0: mov  [fs:edx+0x0C], 0x643C2850 ; mov  [esp+0x14], edx ; mov  [esp+0x04], 0x643C60B5 ; mov  [esp+0x00], ebp ; mov ebx,  [0x643CB1A0] ; call ebx ; (1 found)
0x643c2e71: mov  [fs:edx+0x0C], 0x643C2AB0 ; mov  [esp+0x14], edx ; mov  [esp+0x04], 0x643C609D ; mov  [esp+0x00], ebp ; mov ebx,  [0x643CB1A0] ; call ebx ; (1 found)
0x643c145d: mov  [fs:esp+0x00], 0x643C6000 ; call ebx ; (1 found)
0x643c14a9: mov  [fs:esp+0x00], 0x643C8150 ; call eax ; (1 found)
0x643c3e25: mov  [fs:esp+0x00], 0x643C93E8 ; mov  [ebx+0x08], eax ; call  [0x643CB14C] ; (1 found)
0x643c14d8: mov  [fs:esp+0x00], eax ; call  [0x643CB134] ; (1 found)
0x643c1526: mov  [fs:esp+0x00], eax ; call  [0x643CB134] ; (1 found)
0x643c3275: mov  [fs:esp+0x00], eax ; call esi ; (1 found)
0x643c3328: mov  [fs:esp+0x00], eax ; call esi ; (1 found)
0x643c3095: mov  [fs:esp+0x00], ebp ; call ebx ; (1 found)
0x643c30ae: mov  [fs:esp+0x00], ebp ; call ebx ; (1 found)
0x643c30c7: mov  [fs:esp+0x00], ebp ; call ebx ; (1 found)
0x643c3126: mov  [fs:esp+0x00], ebp ; call ebx ; (1 found)
0x643c313f: mov  [fs:esp+0x00], ebp ; call ebx ; (1 found)
0x643c31ad: mov  [fs:esp+0x00], ebp ; call ebx ; (1 found)
0x643c2e84: mov  [fs:esp+0x00], ebp ; mov ebx,  [0x643CB1A0] ; call ebx ; (1 found)
0x643c3103: mov  [fs:esp+0x00], ebp ; mov ebx,  [0x643CB1A0] ; call ebx ; (1 found)
0x643c3173: mov  [fs:esp+0x00], ebp ; mov ebx,  [0x643CB1A4] ; call ebx ; (1 found)
0x643c328a: mov  [fs:esp+0x00], ebx ; call esi ; (1 found)
0x643c329f: mov  [fs:esp+0x00], ebx ; call esi ; (1 found)
0x643c32b4: mov  [fs:esp+0x00], ebx ; call esi ; (1 found)
0x643c32c9: mov  [fs:esp+0x00], ebx ; call esi ; (1 found)
0x643c32de: mov  [fs:esp+0x00], ebx ; call esi ; (1 found)
0x643c333d: mov  [fs:esp+0x00], ebx ; call esi ; (1 found)
0x643c3352: mov  [fs:esp+0x00], ebx ; call esi ; (1 found)
0x643c3367: mov  [fs:esp+0x00], ebx ; call esi ; (1 found)
0x643c337c: mov  [fs:esp+0x00], ebx ; call esi ; (1 found)
0x643c3391: mov  [fs:esp+0x00], ebx ; call esi ; (1 found)
0x643c1491: mov  [fs:esp+0x00], esi ; call  [0x643CB134] ; (1 found)
0x643c2deb: mov  [fs:esp+0x00], esi ; call  [0x643CB1A0] ; (1 found)
0x643c2eb0: mov  [fs:esp+0x00], esi ; call  [0x643CB1A0] ; (1 found)
0x643c2ed7: mov  [fs:esp+0x00], esi ; call  [0x643CB1A0] ; (1 found)
0x643c1489: mov  [fs:esp+0x04], 0x643C6013 ; mov  [esp+0x00], esi ; call  [0x643CB134] ; (1 found)
0x643c326d: mov  [fs:esp+0x04], 0x643C60D7 ; mov  [esp+0x00], eax ; call esi ; (1 found)
0x643c3320: mov  [fs:esp+0x04], 0x643C60D7 ; mov  [esp+0x00], eax ; call esi ; (1 found)
0x643c3282: mov  [fs:esp+0x04], 0x643C60E9 ; mov  [esp+0x00], ebx ; call esi ; (1 found)
0x643c3335: mov  [fs:esp+0x04], 0x643C60E9 ; mov  [esp+0x00], ebx ; call esi ; (1 found)
0x643c3297: mov  [fs:esp+0x04], 0x643C6107 ; mov  [esp+0x00], ebx ; call esi ; (1 found)
0x643c334a: mov  [fs:esp+0x04], 0x643C6107 ; mov  [esp+0x00], ebx ; call esi ; (1 found)
0x643c32ac: mov  [fs:esp+0x04], 0x643C6125 ; mov  [esp+0x00], ebx ; call esi ; (1 found)
0x643c335f: mov  [fs:esp+0x04], 0x643C6125 ; mov  [esp+0x00], ebx ; call esi ; (1 found)
0x643c32c1: mov  [fs:esp+0x04], 0x643C6142 ; mov  [esp+0x00], ebx ; call esi ; (1 found)
0x643c3374: mov  [fs:esp+0x04], 0x643C6142 ; mov  [esp+0x00], ebx ; call esi ; (1 found)
0x643c32d6: mov  [fs:esp+0x04], 0x643C6151 ; mov  [esp+0x00], ebx ; call esi ; (1 found)
0x643c3389: mov  [fs:esp+0x04], 0x643C6151 ; mov  [esp+0x00], ebx ; call esi ; (1 found)
0x643c37dd: mov  [fs:esp+0x04], 0xC0000409 ; mov  [esp+0x00], eax ; call  [0x643CB164] ; (1 found)
0x643c3a1a: mov  [fs:esp+0x08], 0x00000040 ; mov  [esp+0x04], eax ; mov eax,  [esp+0x14] ; mov  [esp+0x0C], ebx ; mov  [esp+0x00], eax ; call  [0x643CB170] ; (1 found)
0x643c2e78: mov  [fs:esp+0x14], edx ; mov  [esp+0x04], 0x643C609D ; mov  [esp+0x00], ebp ; mov ebx,  [0x643CB1A0] ; call ebx ; (1 found)
0x643c30f7: mov  [fs:esp+0x14], edx ; mov  [esp+0x04], 0x643C60B5 ; mov  [esp+0x00], ebp ; mov ebx,  [0x643CB1A0] ; call ebx ; (1 found)
0x643c16da: mov ah, 0x26 ; add byte [eax], al ; add byte [eax], al ; call  [0x643CB188] ; (1 found)
0x643c21fa: mov ah, 0x26 ; add byte [eax], al ; add byte [eax], al ; call  [0x643CB188] ; (1 found)
0x643c2d1a: mov ah, 0x26 ; add byte [eax], al ; add byte [eax], al ; call  [0x643CB188] ; (1 found)
0x643c3e6a: mov ah, 0x26 ; add byte [eax], al ; add byte [eax], al ; mov  [esp+0x00], 0x643C93E8 ; call  [0x643CB110] ; (1 found)
0x643c4372: mov ah, 0xB1 ; cmp al, 0x64 ; nop ; nop ; jmp  [0x643CB1B0] ; (1 found)
0x643c35d4: mov al, 0x0D ; add byte [eax], al ; add esp, 0x28 ; mov eax, ebx ; pop ebx ; ret ; (1 found)
0x643c30c4: mov al, 0x60 ; cmp al, 0x64 ; mov  [esp+0x00], ebp ; call ebx ; (1 found)
0x643c437a: mov al, 0xB1 ; cmp al, 0x64 ; nop ; nop ; jmp  [0x643CB1AC] ; (1 found)
0x643c3f0b: mov ax, 0x0001 ; add byte [eax], al ; add esp, 0x1C ; ret ; (1 found)
0x643c4124: mov bh, 0x80 ; push es ; add byte [esp+0x00], bh ; ret ; (1 found)
0x643c1f86: mov bl, 0xB8 ; add al, byte [eax] ; add byte [eax], al ; add esp, 0x0C ; ret ; (1 found)
0x643c2a11: mov byte [ebx+0x02], cl ; add esp, 0x20 ; pop ebx ; pop esi ; pop edi ; ret ; (1 found)
0x643c34d6: mov byte [ecx-0x38769BC4], dh ; call  [ebx+0x0C] ; (1 found)
0x643c4071: mov byte [ecx], 0x83 ; ret ; (1 found)
0x643c3100: mov ch, 0x60 ; cmp al, 0x64 ; mov  [esp+0x00], ebp ; mov ebx,  [0x643CB1A0] ; call ebx ; (1 found)
0x643c35ea: mov cl, 0x3C ; add esp, 0x28 ; pop ebx ; ret ; (1 found)
0x643c2e8b: mov cl, 0x3C ; call ebx ; (1 found)
0x643c310a: mov cl, 0x3C ; call ebx ; (1 found)
0x643c317a: mov cl, 0x3C ; call ebx ; (1 found)
0x643c33d2: mov cl, 0x3C ; call esi ; (1 found)
0x643c145b: mov cl, 0x3C ; mov  [fs:esp+0x00], 0x643C6000 ; call ebx ; (1 found)
0x643c326b: mov cl, 0x3C ; mov  [fs:esp+0x04], 0x643C60D7 ; mov  [esp+0x00], eax ; call esi ; (1 found)
0x643c331e: mov cl, 0x3C ; mov  [fs:esp+0x04], 0x643C60D7 ; mov  [esp+0x00], eax ; call esi ; (1 found)
0x643c37db: mov cl, 0x3C ; mov  [fs:esp+0x04], 0xC0000409 ; mov  [esp+0x00], eax ; call  [0x643CB164] ; (1 found)
0x643c370d: mov cl, 0x3C ; mov ebp, eax ; call  [0x643CB128] ; (1 found)
0x643c3715: mov cl, 0x3C ; mov edi, eax ; call  [0x643CB13C] ; (1 found)
0x643c34d7: mov cl, 0x3C ; mov edi, eax ; call  [ebx+0x0C] ; (1 found)
0x643c371d: mov cl, 0x3C ; mov esi, eax ; lea eax,  [esp+0x18] ; mov  [esp+0x00], eax ; call  [0x643CB158] ; (1 found)
0x643c43ab: mov cl, 0x3C ; nop ; nop ; jmp  [0x643CB180] ; (1 found)
0x643c43a3: mov cl, 0x3C ; nop ; nop ; jmp  [0x643CB184] ; (1 found)
0x643c439b: mov cl, 0x3C ; nop ; nop ; jmp  [0x643CB18C] ; (1 found)
0x643c4393: mov cl, 0x3C ; nop ; nop ; jmp  [0x643CB194] ; (1 found)
0x643c438b: mov cl, 0x3C ; nop ; nop ; jmp  [0x643CB19C] ; (1 found)
0x643c4383: mov cl, 0x3C ; nop ; nop ; jmp  [0x643CB1A8] ; (1 found)
0x643c437b: mov cl, 0x3C ; nop ; nop ; jmp  [0x643CB1AC] ; (1 found)
0x643c4373: mov cl, 0x3C ; nop ; nop ; jmp  [0x643CB1B0] ; (1 found)
0x643c436b: mov cl, 0x3C ; nop ; nop ; jmp  [0x643CB1B4] ; (1 found)
0x643c4363: mov cl, 0x3C ; nop ; nop ; jmp  [0x643CB1B8] ; (1 found)
0x643c435b: mov cl, 0x3C ; nop ; nop ; jmp  [0x643CB1BC] ; (1 found)
0x643c4353: mov cl, 0x3C ; nop ; nop ; jmp  [0x643CB1C0] ; (1 found)
0x643c434b: mov cl, 0x3C ; nop ; nop ; jmp  [0x643CB1C4] ; (1 found)
0x643c4343: mov cl, 0x3C ; nop ; nop ; jmp  [0x643CB1C8] ; (1 found)
0x643c433b: mov cl, 0x3C ; nop ; nop ; jmp  [0x643CB1CC] ; (1 found)
0x643c4333: mov cl, 0x3C ; nop ; nop ; jmp  [0x643CB1D0] ; (1 found)
0x643c3eab: mov cl, 0x3C ; sub esp, 0x04 ; add esp, 0x18 ; xor eax, eax ; pop ebx ; ret ; (1 found)
0x643c37d2: mov cl, 0x3C ; sub esp, 0x04 ; call  [0x643CB120] ; (1 found)
0x643c1551: mov cl, 0x3C ; sub esp, 0x04 ; leave ; ret ; (1 found)
0x643c147f: mov cl, 0x3C ; sub esp, 0x04 ; mov  [0x643C9404], eax ; mov  [esp+0x04], 0x643C6013 ; mov  [esp+0x00], esi ; call  [0x643CB134] ; (1 found)
0x643c37c2: mov cl, 0x3C ; sub esp, 0x04 ; mov  [esp+0x00], 0x643C6E54 ; call  [0x643CB16C] ; (1 found)
0x643c36fc: mov cl, 0x3C ; sub esp, 0x04 ; mov ebx,  [esp+0x10] ; xor ebx,  [esp+0x14] ; call  [0x643CB124] ; (1 found)
0x643c3e33: mov cl, 0x3C ; xor eax, eax ; sub esp, 0x04 ; add esp, 0x18 ; pop ebx ; ret ; (1 found)
0x643c1564: mov dh, 0x00 ; add byte [eax], al ; add byte [ebp+0x000027BC], cl ; add byte [eax], al ; mov eax, 0x00000001 ; ret ; (1 found)
0x643c3b9b: mov dh, 0x00 ; add byte [eax], al ; add byte [ebp+0x5E5BF465], cl ; pop edi ; pop ebp ; ret ; (1 found)
0x643c2128: mov dh, 0x00 ; mov  [esp+0x04], eax ; mov eax,  [esp+0x20] ; mov eax,  [eax] ; mov  [esp+0x00], eax ; call  [0x643CB144] ; (1 found)
0x643c31ee: mov dh, 0x01 ; add byte [eax], al ; mov  [esp+0x04], eax ; mov  [esp+0x00], ebp ; call esi ; (1 found)
0x643c3618: mov dh, 0xC0 ; neg eax ; ret ; (1 found)
0x643c3faa: mov dh, 0xC0 ; ret ; (1 found)
0x643c411e: mov eax,  [0x643C003C] ; movzx eax, word [eax+0x643C0006] ; ret ; (1 found)
0x643c37af: mov eax,  [0x643C5D50] ; mov  [ebp-0x10], eax ; mov eax,  [0x643C5D54] ; mov  [ebp-0x0C], eax ; call  [0x643CB15C] ; (1 found)
0x643c37b7: mov eax,  [0x643C5D54] ; mov  [ebp-0x0C], eax ; call  [0x643CB15C] ; (1 found)
0x643c39e4: mov eax,  [0x643C93DC] ; mov eax,  [eax+ebx+0x04] ; mov  [esp+0x00], eax ; call  [0x643CB174] ; (1 found)
0x643c3e18: mov eax,  [0x643C93E0] ; sub esp, 0x04 ; mov  [0x643C93E0], ebx ; mov  [esp+0x00], 0x643C93E8 ; mov  [ebx+0x08], eax ; call  [0x643CB14C] ; (1 found)
0x643c3c21: mov eax,  [eax+0x04] ; mov  [esp+0x00], eax ; call  [0x643CB174] ; (1 found)
0x643c421e: mov eax,  [eax+0x24] ; not eax ; shr eax, 0x1F ; add esp, 0x08 ; ret ; (1 found)
0x643c39e9: mov eax,  [eax+ebx+0x04] ; mov  [esp+0x00], eax ; call  [0x643CB174] ; (1 found)
0x643c2132: mov eax,  [eax] ; mov  [esp+0x00], eax ; call  [0x643CB144] ; (1 found)
0x643c2532: mov eax,  [eax] ; mov  [esp+0x04], eax ; lea eax,  [esi+0x10] ; mov  [esp+0x00], eax ; call  [esi+0x18] ; (1 found)
0x643c1b0f: mov eax,  [eax] ; mov  [esp+0x04], eax ; lea eax,  [esp+0x3C] ; mov  [esp+0x00], eax ; call  [0x643C9028] ; (1 found)
0x643c3c4b: mov eax,  [ebp-0x28] ; mov  [esp+0x04], eax ; mov eax,  [ebp-0x34] ; mov  [esp+0x00], eax ; call  [0x643CB170] ; (1 found)
0x643c3c52: mov eax,  [ebp-0x34] ; mov  [esp+0x00], eax ; call  [0x643CB170] ; (1 found)
0x643c3da6: mov eax,  [ebx+0x04] ; mov  [esp+0x00], esi ; call eax ; (1 found)
0x643c1ffa: mov eax,  [ebx-0x18] ; mov  [esp+0x00], ebx ; mov  [esp+0x04], eax ; call  [0x643C902C] ; (1 found)
0x643c346a: mov eax,  [ebx] ; mov  [esp+0x00], eax ; call  [ebx+0x04] ; (1 found)
0x643c34ca: mov eax,  [ebx] ; mov  [esp+0x00], eax ; call  [ebx+0x08] ; (1 found)
0x643c3d90: mov eax,  [ebx] ; mov  [esp+0x00], eax ; call ebp ; (1 found)
0x643c1756: mov eax,  [ebx] ; mov  [esp+0x04], eax ; lea eax,  [ebx+0x18] ; mov  [esp+0x00], eax ; call  [0x643C9028] ; (1 found)
0x643c3009: mov eax,  [edx] ; mov  [esp+0x00], eax ; call  [0x643CB11C] ; (1 found)
0x643c2fe7: mov eax,  [edx] ; mov  [esp+0x14], edx ; mov  [esp+0x00], eax ; call  [0x643CB148] ; (1 found)
0x643c38e0: mov eax,  [esp+0x04] ; ret ; (1 found)
0x643c38f0: mov eax,  [esp+0x04] ; ret ; (1 found)
0x643c3a27: mov eax,  [esp+0x14] ; mov  [esp+0x0C], ebx ; mov  [esp+0x00], eax ; call  [0x643CB170] ; (1 found)
0x643c3dfe: mov eax,  [esp+0x20] ; mov  [esp+0x00], 0x643C93E8 ; mov  [ebx], eax ; mov eax,  [esp+0x24] ; mov  [ebx+0x04], eax ; call  [0x643CB110] ; (1 found)
0x643c212e: mov eax,  [esp+0x20] ; mov eax,  [eax] ; mov  [esp+0x00], eax ; call  [0x643CB144] ; (1 found)
0x643c3e0b: mov eax,  [esp+0x24] ; mov  [ebx+0x04], eax ; call  [0x643CB110] ; (1 found)
0x643c35e0: mov eax,  [esp+0x30] ; mov  [esp+0x00], eax ; call  [0x643CB198] ; (1 found)
0x643c34c2: mov eax,  [esp+0x34] ; mov  [esp+0x04], eax ; mov eax,  [ebx] ; mov  [esp+0x00], eax ; call  [ebx+0x08] ; (1 found)
0x643c1fbe: mov eax,  [esp+0x48] ; mov  [esp+0x04], edi ; mov  [esp+0x00], ebx ; mov  [esp+0x08], eax ; call  [ebx+0x10] ; (1 found)
0x643c222f: mov eax,  [esp+0x48] ; mov edi,  [esp+0x50] ; mov  [esp+0x04], esi ; mov  [esp+0x00], ebp ; mov  [esp+0x08], eax ; call  [ebp+0x10] ; (1 found)
0x643c1b0b: mov eax,  [esp+0x70] ; mov eax,  [eax] ; mov  [esp+0x04], eax ; lea eax,  [esp+0x3C] ; mov  [esp+0x00], eax ; call  [0x643C9028] ; (1 found)
0x643c37ae: mov eax,  [fs:0x643C5D50] ; mov  [ebp-0x10], eax ; mov eax,  [0x643C5D54] ; mov  [ebp-0x0C], eax ; call  [0x643CB15C] ; (1 found)
0x643c3e17: mov eax,  [fs:0x643C93E0] ; sub esp, 0x04 ; mov  [0x643C93E0], ebx ; mov  [esp+0x00], 0x643C93E8 ; mov  [ebx+0x08], eax ; call  [0x643CB14C] ; (1 found)
0x643c39e8: mov eax,  [fs:eax+ebx+0x04] ; mov  [esp+0x00], eax ; call  [0x643CB174] ; (1 found)
0x643c10a9: mov eax, 0x00000001 ; add esp, 0x10 ; pop ebx ; pop esi ; pop edi ; retn 0x000C ; (1 found)
0x643c11e5: mov eax, 0x00000001 ; add esp, 0x10 ; pop ebx ; pop esi ; pop edi ; retn 0x000C ; (1 found)
0x643c11e6: mov eax, 0x00000001 ; add esp, 0x10 ; pop ebx ; pop esi ; pop edi ; retn 0x000C ; (1 found)
0x643c3f0c: mov eax, 0x00000001 ; add esp, 0x1C ; ret ; (1 found)
0x643c3f57: mov eax, 0x00000001 ; add esp, 0x1C ; ret ; (1 found)
0x643c3810: mov eax, 0x00000001 ; add esp, 0x1C ; retn 0x000C ; (1 found)
0x643c3838: mov eax, 0x00000001 ; add esp, 0x1C ; retn 0x000C ; (1 found)
0x643c1a07: mov eax, 0x00000001 ; pop ebx ; pop esi ; pop edi ; pop ebp ; ret ; (1 found)
0x643c1aa6: mov eax, 0x00000001 ; pop ebx ; pop esi ; pop edi ; pop ebp ; ret ; (1 found)
0x643c2faf: mov eax, 0x00000001 ; pop ebx ; pop esi ; pop edi ; pop ebp ; ret ; (1 found)
0x643c1164: mov eax, 0x00000001 ; pop ebx ; pop esi ; pop edi ; retn 0x000C ; (1 found)
0x643c1038: mov eax, 0x00000001 ; pop ebx ; ret ; (1 found)
0x643c3878: mov eax, 0x00000001 ; pop ebx ; retn 0x000C ; (1 found)
0x643c38a6: mov eax, 0x00000001 ; pop ebx ; retn 0x000C ; (1 found)
0x643c1570: mov eax, 0x00000001 ; ret ; (1 found)
0x643c4310: mov eax, 0x00000001 ; retn 0x000C ; (1 found)
0x643c4320: mov eax, 0x00000001 ; retn 0x000C ; (1 found)
0x643c1f87: mov eax, 0x00000002 ; add esp, 0x0C ; ret ; (1 found)
0x643c16a8: mov eax, 0x00000002 ; pop ebx ; pop esi ; pop edi ; pop ebp ; ret ; (1 found)
0x643c1677: mov eax, 0x00000004 ; pop ebx ; pop esi ; pop edi ; pop ebp ; ret ; (1 found)
0x643c2368: mov eax, 0x00000004 ; pop ebx ; pop esi ; pop edi ; ret ; (1 found)
0x643c23cc: mov eax, 0x00000004 ; pop ebx ; pop esi ; pop edi ; ret ; (1 found)
0x643c2445: mov eax, 0x00000004 ; pop ebx ; pop esi ; pop edi ; ret ; (1 found)
0x643c298a: mov eax, 0x00000004 ; pop ebx ; pop esi ; pop edi ; ret ; (1 found)
0x643c2c13: mov eax, 0x00000004 ; pop ebx ; pop esi ; pop edi ; ret ; (1 found)
0x643c29f2: mov eax, 0x00000008 ; pop ebx ; pop esi ; pop edi ; ret ; (1 found)
0x643c3c46: mov eax, 0x08244489 ; mov eax,  [ebp-0x28] ; mov  [esp+0x04], eax ; mov eax,  [ebp-0x34] ; mov  [esp+0x00], eax ; call  [0x643CB170] ; (1 found)
0x643c41ce: mov eax, 0x643C0000 ; cmovne ebx, eax ; mov eax, ebx ; pop ebx ; ret ; (1 found)
0x643c2944: mov eax, 0x83000000 ; les esp,  [eax] ; pop ebx ; pop esi ; pop edi ; ret ; (1 found)
0x643c436a: mov eax, 0x90643CB1 ; nop ; jmp  [0x643CB1B4] ; (1 found)
0x643c3834: mov eax, 0xB8000006 ; add  [eax], eax ; add byte [eax], al ; add esp, 0x1C ; retn 0x000C ; (1 found)
0x643c1e4a: mov eax, 0xFFFFFFFF ; pop ebx ; pop esi ; pop edi ; pop ebp ; ret ; (1 found)
0x643c281d: mov eax, 0xFFFFFFFF ; pop ebx ; pop esi ; pop edi ; pop ebp ; ret ; (1 found)
0x643c202f: mov eax, 0xFFFFFFFF ; pop ebx ; pop esi ; pop edi ; ret ; (1 found)
0x643c3400: mov eax, 0xFFFFFFFF ; pop ebx ; pop esi ; ret ; (1 found)
0x643c344f: mov eax, 0xFFFFFFFF ; pop ebx ; pop esi ; ret ; (1 found)
0x643c17ac: mov eax, ebx ; pop ebx ; pop esi ; pop edi ; ret ; (1 found)
0x643c17c6: mov eax, ebx ; pop ebx ; pop esi ; pop edi ; ret ; (1 found)
0x643c21af: mov eax, ebx ; pop ebx ; pop esi ; ret ; (1 found)
0x643c21f4: mov eax, ebx ; pop ebx ; pop esi ; ret ; (1 found)
0x643c35db: mov eax, ebx ; pop ebx ; ret ; (1 found)
0x643c40c4: mov eax, ebx ; pop ebx ; ret ; (1 found)
0x643c40fc: mov eax, ebx ; pop ebx ; ret ; (1 found)
0x643c41be: mov eax, ebx ; pop ebx ; ret ; (1 found)
0x643c41d6: mov eax, ebx ; pop ebx ; ret ; (1 found)
0x643c1c07: mov eax, edi ; pop ebx ; pop esi ; pop edi ; pop ebp ; ret ; (1 found)
0x643c425a: mov eax, edi ; pop ebx ; pop esi ; pop edi ; ret ; (1 found)
0x643c42d5: mov eax, edi ; pop ebx ; pop esi ; pop edi ; ret ; (1 found)
0x643c42c5: mov eax, edi ; pop edi ; ret ; (1 found)
0x643c42c6: mov eax, edi ; pop edi ; ret ; (1 found)
0x643c1c25: mov eax, edi ; pop esi ; pop edi ; pop ebp ; ret ; (1 found)
0x643c12c4: mov eax, esi ; pop ebx ; pop esi ; pop edi ; pop ebp ; ret ; (1 found)
0x643c4038: mov eax, esi ; pop ebx ; pop esi ; pop edi ; pop ebp ; ret ; (1 found)
0x643c4097: mov eax, esi ; pop ebx ; pop esi ; pop edi ; pop ebp ; ret ; (1 found)
0x643c348c: mov eax, esi ; pop ebx ; pop esi ; pop edi ; ret ; (1 found)
0x643c34e6: mov eax, esi ; pop ebx ; pop esi ; pop edi ; ret ; (1 found)
0x643c4143: mov eax, esi ; pop ebx ; pop esi ; ret ; (1 found)
0x643c4199: mov eax, esi ; pop ebx ; pop esi ; ret ; (1 found)
0x643c41a2: mov eax, esi ; pop ebx ; pop esi ; ret ; (1 found)
0x643c40a6: mov eax, esi ; pop esi ; pop edi ; pop ebp ; ret ; (1 found)
0x643c370f: mov ebp, eax ; call  [0x643CB128] ; (1 found)
0x643c3710: mov ebp, eax ; call  [0x643CB128] ; (1 found)
0x643c1501: mov ebp, esp ; sub esp, 0x18 ; mov  [esp+0x00], 0x643C6000 ; call  [0x643CB130] ; (1 found)
0x643c1458: mov ebx,  [0x643CB130] ; mov  [esp+0x00], 0x643C6000 ; call ebx ; (1 found)
0x643c2e88: mov ebx,  [0x643CB1A0] ; call ebx ; (1 found)
0x643c3107: mov ebx,  [0x643CB1A0] ; call ebx ; (1 found)
0x643c3177: mov ebx,  [0x643CB1A4] ; call ebx ; (1 found)
0x643c3702: mov ebx,  [esp+0x10] ; xor ebx,  [esp+0x14] ; call  [0x643CB124] ; (1 found)
0x643c3466: mov ebx,  [esp+0x20] ; mov eax,  [ebx] ; mov  [esp+0x00], eax ; call  [ebx+0x04] ; (1 found)
0x643c40fa: mov ebx, eax ; mov eax, ebx ; pop ebx ; ret ; (1 found)
0x643c27c9: mov ecx,  [edi] ; mov  [esp+0x04], edx ; lea edx,  [esi+0x30] ; mov  [esp+0x00], edx ; mov  [esp+0x08], ecx ; call eax ; (1 found)
0x643c1fba: mov edi,  [esp+0x44] ; mov eax,  [esp+0x48] ; mov  [esp+0x04], edi ; mov  [esp+0x00], ebx ; mov  [esp+0x08], eax ; call  [ebx+0x10] ; (1 found)
0x643c2233: mov edi,  [esp+0x50] ; mov  [esp+0x04], esi ; mov  [esp+0x00], ebp ; mov  [esp+0x08], eax ; call  [ebp+0x10] ; (1 found)
0x643c3717: mov edi, eax ; call  [0x643CB13C] ; (1 found)
0x643c3718: mov edi, eax ; call  [0x643CB13C] ; (1 found)
0x643c34d9: mov edi, eax ; call  [ebx+0x0C] ; (1 found)
0x643c34da: mov edi, eax ; call  [ebx+0x0C] ; (1 found)
0x643c2ffd: mov edx,  [esp+0x14] ; lea eax,  [esp+0x2C] ; mov  [esp+0x04], eax ; mov eax,  [edx] ; mov  [esp+0x00], eax ; call  [0x643CB11C] ; (1 found)
0x643c114e: mov edx,  [esp+0x20] ; mov  [esp+0x00], edx ; call eax ; (1 found)
0x643c113e: mov edx,  [esp+0x28] ; mov  [esp+0x04], 0x00000002 ; mov  [esp+0x08], edx ; mov edx,  [esp+0x20] ; mov  [esp+0x00], edx ; call eax ; (1 found)
0x643c1de9: mov edx,  [esp+0x54] ; mov  [esp+0x00], eax ; mov  [esp+0x08], edx ; call  [0x643CB178] ; (1 found)
0x643c3268: mov esi,  [0x643CB134] ; mov  [esp+0x04], 0x643C60D7 ; mov  [esp+0x00], eax ; call esi ; (1 found)
0x643c331b: mov esi,  [0x643CB134] ; mov  [esp+0x04], 0x643C60D7 ; mov  [esp+0x00], eax ; call esi ; (1 found)
0x643c33cf: mov esi,  [0x643CB188] ; call esi ; (1 found)
0x643c34d2: mov esi, eax ; call  [0x643CB188] ; (1 found)
0x643c3472: mov esi, eax ; call  [ebx+0x0C] ; (1 found)
0x643c3d9a: mov esi, eax ; call edi ; (1 found)
0x643c371f: mov esi, eax ; lea eax,  [esp+0x18] ; mov  [esp+0x00], eax ; call  [0x643CB158] ; (1 found)
0x643c3720: mov esi, eax ; lea eax,  [esp+0x18] ; mov  [esp+0x00], eax ; call  [0x643CB158] ; (1 found)
0x643c41a0: mov esi, edx ; mov eax, esi ; pop ebx ; pop esi ; ret ; (1 found)
0x643c22e7: mov esi, esi ; lea edi,  [edi+0x00000000] ; call  [0x643CB188] ; (1 found)
0x643c156a: mov esp, 0x00000027 ; add byte [eax+0x00000001], bh ; ret ; (1 found)
0x643c1c57: mov esp, 0x00008024 ; add byte [ebp-0x76], bh ; call  [0x643CB188] ; (1 found)
0x643c3123: mov esp, 0x89643C60 ; sub al, 0x24 ; call ebx ; (1 found)
0x643c4362: mov esp, 0x90643CB1 ; nop ; jmp  [0x643CB1B8] ; (1 found)
0x643c43a2: mov word [ecx-0x6F6F9BC4], seg? ; jmp  [0x643CB184] ; (1 found)
0x643c3179: movsb ; mov cl, 0x3C ; call ebx ; (1 found)
0x643c3092: movsb ; pushad ; cmp al, 0x64 ; mov  [esp+0x00], ebp ; call ebx ; (1 found)
0x643c3617: movzx eax, al ; neg eax ; ret ; (1 found)
0x643c3fa9: movzx eax, al ; ret ; (1 found)
0x643c2127: movzx eax, byte [eax] ; mov  [esp+0x04], eax ; mov eax,  [esp+0x20] ; mov eax,  [eax] ; mov  [esp+0x00], eax ; call  [0x643CB144] ; (1 found)
0x643c4123: movzx eax, word [eax+0x643C0006] ; ret ; (1 found)
0x643c4122: movzx eax, word [fs:eax+0x643C0006] ; ret ; (1 found)
0x643c40a4: neg byte [ebx-0x77] ; lock pop esi ; pop edi ; pop ebp ; ret ; (1 found)
0x643c361a: neg eax ; ret ; (1 found)
0x643c2b6f: nop ; add esp, 0x20 ; pop ebx ; pop esi ; pop edi ; ret ; (1 found)
0x643c1c0e: nop ; call  [0x643CB188] ; (1 found)
0x643c1c0f: nop ; call  [0x643CB188] ; (1 found)
0x643c362e: nop ; call eax ; (1 found)
0x643c362f: nop ; call eax ; (1 found)
0x643c14a7: nop ; cmp al, 0x64 ; mov  [esp+0x00], 0x643C8150 ; call eax ; (1 found)
0x643c3280: nop ; cmp al, 0x64 ; mov  [esp+0x04], 0x643C60E9 ; mov  [esp+0x00], ebx ; call esi ; (1 found)
0x643c3333: nop ; cmp al, 0x64 ; mov  [esp+0x04], 0x643C60E9 ; mov  [esp+0x00], ebx ; call esi ; (1 found)
0x643c3295: nop ; cmp al, 0x64 ; mov  [esp+0x04], 0x643C6107 ; mov  [esp+0x00], ebx ; call esi ; (1 found)
0x643c3348: nop ; cmp al, 0x64 ; mov  [esp+0x04], 0x643C6107 ; mov  [esp+0x00], ebx ; call esi ; (1 found)
0x643c32aa: nop ; cmp al, 0x64 ; mov  [esp+0x04], 0x643C6125 ; mov  [esp+0x00], ebx ; call esi ; (1 found)
0x643c335d: nop ; cmp al, 0x64 ; mov  [esp+0x04], 0x643C6125 ; mov  [esp+0x00], ebx ; call esi ; (1 found)
0x643c32bf: nop ; cmp al, 0x64 ; mov  [esp+0x04], 0x643C6142 ; mov  [esp+0x00], ebx ; call esi ; (1 found)
0x643c3372: nop ; cmp al, 0x64 ; mov  [esp+0x04], 0x643C6142 ; mov  [esp+0x00], ebx ; call esi ; (1 found)
0x643c32d4: nop ; cmp al, 0x64 ; mov  [esp+0x04], 0x643C6151 ; mov  [esp+0x00], ebx ; call esi ; (1 found)
0x643c3387: nop ; cmp al, 0x64 ; mov  [esp+0x04], 0x643C6151 ; mov  [esp+0x00], ebx ; call esi ; (1 found)
0x643c3f9e: nop ; cmp word [eax+0x18], 0x010B ; sete al ; movzx eax, al ; ret ; (1 found)
0x643c3f9f: nop ; cmp word [eax+0x18], 0x010B ; sete al ; movzx eax, al ; ret ; (1 found)
0x643c43af: nop ; jmp  [0x643CB180] ; (1 found)
0x643c43a7: nop ; jmp  [0x643CB184] ; (1 found)
0x643c439f: nop ; jmp  [0x643CB18C] ; (1 found)
0x643c4397: nop ; jmp  [0x643CB194] ; (1 found)
0x643c438f: nop ; jmp  [0x643CB19C] ; (1 found)
0x643c4387: nop ; jmp  [0x643CB1A8] ; (1 found)
0x643c437f: nop ; jmp  [0x643CB1AC] ; (1 found)
0x643c4377: nop ; jmp  [0x643CB1B0] ; (1 found)
0x643c436f: nop ; jmp  [0x643CB1B4] ; (1 found)
0x643c4367: nop ; jmp  [0x643CB1B8] ; (1 found)
0x643c435f: nop ; jmp  [0x643CB1BC] ; (1 found)
0x643c4357: nop ; jmp  [0x643CB1C0] ; (1 found)
0x643c434f: nop ; jmp  [0x643CB1C4] ; (1 found)
0x643c4347: nop ; jmp  [0x643CB1C8] ; (1 found)
0x643c433f: nop ; jmp  [0x643CB1CC] ; (1 found)
0x643c4337: nop ; jmp  [0x643CB1D0] ; (1 found)
0x643c432f: nop ; jmp  [0x643CB1D4] ; (1 found)
0x643c16d8: nop ; lea esi,  [esi+0x00000000] ; call  [0x643CB188] ; (1 found)
0x643c2d18: nop ; lea esi,  [esi+0x00000000] ; call  [0x643CB188] ; (1 found)
0x643c3e68: nop ; lea esi,  [esi+0x00000000] ; mov  [esp+0x00], 0x643C93E8 ; call  [0x643CB110] ; (1 found)
0x643c1e2b: nop ; lea esi,  [esi+0x00] ; call  [0x643CB12C] ; (1 found)
0x643c2a6b: nop ; lea esi,  [esi+0x00] ; call  [0x643CB188] ; (1 found)
0x643c343b: nop ; lea esi,  [esi+0x00] ; call  [0x643CB188] ; (1 found)
0x643c38df: nop ; mov eax,  [esp+0x04] ; ret ; (1 found)
0x643c35df: nop ; mov eax,  [esp+0x30] ; mov  [esp+0x00], eax ; call  [0x643CB198] ; (1 found)
0x643c430e: nop ; mov eax, 0x00000001 ; retn 0x000C ; (1 found)
0x643c430f: nop ; mov eax, 0x00000001 ; retn 0x000C ; (1 found)
0x643c431f: nop ; mov eax, 0x00000001 ; retn 0x000C ; (1 found)
0x643c419e: nop ; mov esi, edx ; mov eax, esi ; pop ebx ; pop esi ; ret ; (1 found)
0x643c419f: nop ; mov esi, edx ; mov eax, esi ; pop ebx ; pop esi ; ret ; (1 found)
0x643c43ad: nop ; nop ; jmp  [0x643CB180] ; (1 found)
0x643c43ae: nop ; nop ; jmp  [0x643CB180] ; (1 found)
0x643c43a5: nop ; nop ; jmp  [0x643CB184] ; (1 found)
0x643c43a6: nop ; nop ; jmp  [0x643CB184] ; (1 found)
0x643c439d: nop ; nop ; jmp  [0x643CB18C] ; (1 found)
0x643c439e: nop ; nop ; jmp  [0x643CB18C] ; (1 found)
0x643c4395: nop ; nop ; jmp  [0x643CB194] ; (1 found)
0x643c4396: nop ; nop ; jmp  [0x643CB194] ; (1 found)
0x643c438d: nop ; nop ; jmp  [0x643CB19C] ; (1 found)
0x643c438e: nop ; nop ; jmp  [0x643CB19C] ; (1 found)
0x643c4385: nop ; nop ; jmp  [0x643CB1A8] ; (1 found)
0x643c4386: nop ; nop ; jmp  [0x643CB1A8] ; (1 found)
0x643c437d: nop ; nop ; jmp  [0x643CB1AC] ; (1 found)
0x643c437e: nop ; nop ; jmp  [0x643CB1AC] ; (1 found)
0x643c4375: nop ; nop ; jmp  [0x643CB1B0] ; (1 found)
0x643c4376: nop ; nop ; jmp  [0x643CB1B0] ; (1 found)
0x643c436d: nop ; nop ; jmp  [0x643CB1B4] ; (1 found)
0x643c436e: nop ; nop ; jmp  [0x643CB1B4] ; (1 found)
0x643c4365: nop ; nop ; jmp  [0x643CB1B8] ; (1 found)
0x643c4366: nop ; nop ; jmp  [0x643CB1B8] ; (1 found)
0x643c435d: nop ; nop ; jmp  [0x643CB1BC] ; (1 found)
0x643c435e: nop ; nop ; jmp  [0x643CB1BC] ; (1 found)
0x643c4355: nop ; nop ; jmp  [0x643CB1C0] ; (1 found)
0x643c4356: nop ; nop ; jmp  [0x643CB1C0] ; (1 found)
0x643c434d: nop ; nop ; jmp  [0x643CB1C4] ; (1 found)
0x643c434e: nop ; nop ; jmp  [0x643CB1C4] ; (1 found)
0x643c4345: nop ; nop ; jmp  [0x643CB1C8] ; (1 found)
0x643c4346: nop ; nop ; jmp  [0x643CB1C8] ; (1 found)
0x643c433d: nop ; nop ; jmp  [0x643CB1CC] ; (1 found)
0x643c433e: nop ; nop ; jmp  [0x643CB1CC] ; (1 found)
0x643c4335: nop ; nop ; jmp  [0x643CB1D0] ; (1 found)
0x643c4336: nop ; nop ; jmp  [0x643CB1D0] ; (1 found)
0x643c432e: nop ; nop ; jmp  [0x643CB1D4] ; (1 found)
0x643c38de: nop ; nop ; mov eax,  [esp+0x04] ; ret ; (1 found)
0x643c430c: nop ; nop ; mov eax, 0x00000001 ; retn 0x000C ; (1 found)
0x643c430d: nop ; nop ; mov eax, 0x00000001 ; retn 0x000C ; (1 found)
0x643c431e: nop ; nop ; mov eax, 0x00000001 ; retn 0x000C ; (1 found)
0x643c432d: nop ; nop ; nop ; jmp  [0x643CB1D4] ; (1 found)
0x643c38dd: nop ; nop ; nop ; mov eax,  [esp+0x04] ; ret ; (1 found)
0x643c430b: nop ; nop ; nop ; mov eax, 0x00000001 ; retn 0x000C ; (1 found)
0x643c431d: nop ; nop ; nop ; mov eax, 0x00000001 ; retn 0x000C ; (1 found)
0x643c432c: nop ; nop ; nop ; nop ; jmp  [0x643CB1D4] ; (1 found)
0x643c38dc: nop ; nop ; nop ; nop ; mov eax,  [esp+0x04] ; ret ; (1 found)
0x643c430a: nop ; nop ; nop ; nop ; mov eax, 0x00000001 ; retn 0x000C ; (1 found)
0x643c431c: nop ; nop ; nop ; nop ; mov eax, 0x00000001 ; retn 0x000C ; (1 found)
0x643c432b: nop ; nop ; nop ; nop ; nop ; jmp  [0x643CB1D4] ; (1 found)
0x643c155c: nop ; nop ; nop ; nop ; xor eax, eax ; ret ; (1 found)
0x643c155d: nop ; nop ; nop ; xor eax, eax ; ret ; (1 found)
0x643c155e: nop ; nop ; xor eax, eax ; ret ; (1 found)
0x643c155f: nop ; xor eax, eax ; ret ; (1 found)
0x643c38ce: nop ; xor eax, eax ; ret ; (1 found)
0x643c38cf: nop ; xor eax, eax ; ret ; (1 found)
0x643c4221: not eax ; shr eax, 0x1F ; add esp, 0x08 ; ret ; (1 found)
0x643c4305: or  [eax], eax ; pop eax ; pop ecx ; ret ; (1 found)
0x643c4256: or  [ebx-0x0776F73C], eax ; pop ebx ; pop esi ; pop edi ; ret ; (1 found)
0x643c4304: or  [ecx], 0x00000000 ; pop eax ; pop ecx ; ret ; (1 found)
0x643c1ec7: or  [esi-0x3B], esi ; lea esi,  [esi+0x00000000] ; call  [0x643CB188] ; (1 found)
0x643c10e4: or al, 0x01 ; add byte [eax], al ; mov  [esp+0x00], 0x000003E8 ; call edi ; (1 found)
0x643c15f7: or al, 0x5B ; pop esi ; pop edi ; pop ebp ; ret ; (1 found)
0x643c362d: or al, 0x66 ; nop ; call eax ; (1 found)
0x643c4140: or al, 0x74 ; or eax, 0x5E5BF089 ; ret ; (1 found)
0x643c3da1: or al, 0x85 ; div byte [eax+ecx-0x75] ; inc ebx ; add al, 0x89 ; xor al, 0x24 ; call eax ; (1 found)
0x643c154a: or al, 0x89 ; add al, 0x24 ; call  [0x643CB114] ; (1 found)
0x643c3a2e: or al, 0x89 ; add al, 0x24 ; call  [0x643CB170] ; (1 found)
0x643c2658: or al, 0x89 ; add al, 0x24 ; call  [esi+0x3C] ; (1 found)
0x643c1b8b: or al, 0x89 ; retn 0xE2C1 ; (1 found)
0x643c3476: or al, 0x8B ; cmp byte [ecx-0x1817DBE4], cl ; push cs ; add byte [eax], al ; call  [0x643CB188] ; (1 found)
0x643c1de8: or al, 0x8B ; push esp ; and al, 0x54 ; mov  [esp+0x00], eax ; mov  [esp+0x08], edx ; call  [0x643CB178] ; (1 found)
0x643c18e8: or al, 0x8D ; inc esp ; and al, 0x3C ; mov  [esp+0x00], eax ; call  [0x643C902C] ; (1 found)
0x643c1f8e: or al, 0xC3 ; call  [0x643CB188] ; (1 found)
0x643c3649: or al, 0xF3 ; ret ; (1 found)
0x643c258d: or al, byte [ebp-0x7CE38B37] ; retn 0xF60C ; (1 found)
0x643c3c18: or byte [eax+eax], bl ; add byte [eax], al ; mov  [esp+0x04], ecx ; mov eax,  [eax+0x04] ; mov  [esp+0x00], eax ; call  [0x643CB174] ; (1 found)
0x643c29f3: or byte [eax], al ; add byte [eax], al ; pop ebx ; pop esi ; pop edi ; ret ; (1 found)
0x643c2fe6: or byte [ebx+0x24548902], 0x14 ; mov  [esp+0x00], eax ; call  [0x643CB148] ; (1 found)
0x643c3c4a: or byte [ebx+0x4489D845], cl ; and al, 0x04 ; mov eax,  [ebp-0x34] ; mov  [esp+0x00], eax ; call  [0x643CB170] ; (1 found)
0x643c42bd: or byte [ebx+0x5E], bl ; add edi, 0x643C0000 ; mov eax, edi ; pop edi ; ret ; (1 found)
0x643c32d1: or byte [ebx+0x643C9020], ah ; mov  [esp+0x04], 0x643C6151 ; mov  [esp+0x00], ebx ; call esi ; (1 found)
0x643c3384: or byte [ebx+0x643C9020], ah ; mov  [esp+0x04], 0x643C6151 ; mov  [esp+0x00], ebx ; call esi ; (1 found)
0x643c32bc: or byte [ebx+0x643C9024], ah ; mov  [esp+0x04], 0x643C6142 ; mov  [esp+0x00], ebx ; call esi ; (1 found)
0x643c336f: or byte [ebx+0x643C9024], ah ; mov  [esp+0x04], 0x643C6142 ; mov  [esp+0x00], ebx ; call esi ; (1 found)
0x643c32a7: or byte [ebx+0x643C9028], ah ; mov  [esp+0x04], 0x643C6125 ; mov  [esp+0x00], ebx ; call esi ; (1 found)
0x643c335a: or byte [ebx+0x643C9028], ah ; mov  [esp+0x04], 0x643C6125 ; mov  [esp+0x00], ebx ; call esi ; (1 found)
0x643c3292: or byte [ebx+0x643C902C], ah ; mov  [esp+0x04], 0x643C6107 ; mov  [esp+0x00], ebx ; call esi ; (1 found)
0x643c3345: or byte [ebx+0x643C902C], ah ; mov  [esp+0x04], 0x643C6107 ; mov  [esp+0x00], ebx ; call esi ; (1 found)
0x643c327d: or byte [ebx+0x643C9030], ah ; mov  [esp+0x04], 0x643C60E9 ; mov  [esp+0x00], ebx ; call esi ; (1 found)
0x643c3330: or byte [ebx+0x643C9030], ah ; mov  [esp+0x04], 0x643C60E9 ; mov  [esp+0x00], ebx ; call esi ; (1 found)
0x643c37a9: or byte [ebx+0x643C90EC], ah ; mov eax,  [0x643C5D50] ; mov  [ebp-0x10], eax ; mov eax,  [0x643C5D54] ; mov  [ebp-0x0C], eax ; call  [0x643CB15C] ; (1 found)
0x643c1b0a: or byte [ebx-0x748FDBBC], cl ; add byte [ecx-0x72FBDBBC], cl ; inc esp ; and al, 0x3C ; mov  [esp+0x00], eax ; call  [0x643C9028] ; (1 found)
0x643c34c1: or byte [ebx-0x76CBDBBC], cl ; inc esp ; and al, 0x04 ; mov eax,  [ebx] ; mov  [esp+0x00], eax ; call  [ebx+0x08] ; (1 found)
0x643c114d: or byte [ebx-0x76DFDBAC], cl ; adc al, 0x24 ; call eax ; (1 found)
0x643c40f9: or byte [ecx+0x5BD889C3], cl ; ret ; (1 found)
0x643c4259: or byte [ecx+0x5F5E5BF8], cl ; ret ; (1 found)
0x643c351d: or byte [ecx-0x38FBDBA4], cl ; add al, 0x24 ; add  [eax], eax ; add byte [eax], al ; call edi ; (1 found)
0x643c382f: or byte [ecx-0x4717DBFC], cl ; push es ; add byte [eax], al ; mov eax, 0x00000001 ; add esp, 0x1C ; retn 0x000C ; (1 found)
0x643c1e14: or byte [ecx-0x76FBDB84], cl ; sbb al, 0x24 ; call  [ebx+0x10] ; (1 found)
0x643c22af: or byte [ecx-0x76FBDBAC], cl ; add al, 0x24 ; mov  [esp+0x10], ecx ; call  [0x643CB154] ; (1 found)
0x643c34d1: or byte [ecx-0x77EA003A], cl ; mov cl, 0x3C ; mov edi, eax ; call  [ebx+0x0C] ; (1 found)
0x643c3e93: or byte [ecx], bh ; fstenv  [eax+ebp-0x77] ; retn 0x428B ; (1 found)
0x643c42d2: or byte [ecx], dh ; dec  [ecx+0x5F5E5BF8] ; ret ; (1 found)
0x643c35cf: or byte [esp+edi+0x0DB0E864], dl ; add byte [eax], al ; add esp, 0x28 ; mov eax, ebx ; pop ebx ; ret ; (1 found)
0x643c1022: or byte [esp+edi-0x38F28B9C], dl ; add eax,  [eax] ; add byte [eax], al ; add byte [ebx-0x3FCEE73C], al ; pop ebx ; ret ; (1 found)
0x643c2587: or eax,  [eax] ; add byte [ecx], al ; add byte [ebx+0x74C9850A], cl ; sbb al, 0x83 ; retn 0xF60C ; (1 found)
0x643c4034: or eax,  [ebx-0x0F76E33C] ; pop ebx ; pop esi ; pop edi ; pop ebp ; ret ; (1 found)
0x643c3fa4: or eax,  [ecx] ; sete al ; movzx eax, al ; ret ; (1 found)
0x643c1027: or eax, 0x000003C7 ; add byte [eax], al ; add esp, 0x18 ; xor eax, eax ; pop ebx ; ret ; (1 found)
0x643c4142: or eax, 0x5E5BF089 ; ret ; (1 found)
0x643c350c: or eax, 0x839020EB ; ret ; (1 found)
0x643c35d5: or eax, 0xC4830000 ; sub byte [ecx-0x6F3CA428], cl ; mov eax,  [esp+0x30] ; mov  [esp+0x00], eax ; call  [0x643CB198] ; (1 found)
0x643c14ea: or edi, eax ; add al, 0x24 ; pop eax ; pop ebp ; cmp al, 0x64 ; call edx ; (1 found)
0x643c347d: out 0x0E, eax ; add byte [eax], al ; call  [0x643CB188] ; (1 found)
0x643c2e98: out dx, al ; add  [eax], eax ; add byte [ebx-0x16FEFBB6], al ; retn 0x0000 ; (1 found)
0x643c411d: out dx, eax ; mov eax,  [0x643C003C] ; movzx eax, word [eax+0x643C0006] ; ret ; (1 found)
0x643c37cc: outsb ; cmp al, 0x64 ; call  [0x643CB16C] ; (1 found)
0x643c2ead: outsb ; pushad ; cmp al, 0x64 ; mov  [esp+0x00], esi ; call  [0x643CB1A0] ; (1 found)
0x643c4225: pop ds ; add esp, 0x08 ; ret ; (1 found)
0x643c362a: pop ds ; sub esp, 0x0C ; nop ; call eax ; (1 found)
0x643c14ee: pop eax ; pop ebp ; cmp al, 0x64 ; call edx ; (1 found)
0x643c4307: pop eax ; pop ecx ; ret ; (1 found)
0x643c14ef: pop ebp ; cmp al, 0x64 ; call edx ; (1 found)
0x643c37b9: pop ebp ; cmp al, 0x64 ; mov  [ebp-0x0C], eax ; call  [0x643CB15C] ; (1 found)
0x643c37b1: pop ebp ; cmp al, 0x64 ; mov  [ebp-0x10], eax ; mov eax,  [0x643C5D54] ; mov  [ebp-0x0C], eax ; call  [0x643CB15C] ; (1 found)
0x643c12c9: pop ebp ; ret ; (1 found)
0x643c14f9: pop ebp ; ret ; (1 found)
0x643c15fb: pop ebp ; ret ; (1 found)
0x643c167f: pop ebp ; ret ; (1 found)
0x643c16b0: pop ebp ; ret ; (1 found)
0x643c1936: pop ebp ; ret ; (1 found)
0x643c195b: pop ebp ; ret ; (1 found)
0x643c1a0f: pop ebp ; ret ; (1 found)
0x643c1aae: pop ebp ; ret ; (1 found)
0x643c1c0c: pop ebp ; ret ; (1 found)
0x643c1c29: pop ebp ; ret ; (1 found)
0x643c1e29: pop ebp ; ret ; (1 found)
0x643c1e52: pop ebp ; ret ; (1 found)
0x643c22d2: pop ebp ; ret ; (1 found)
0x643c26d5: pop ebp ; ret ; (1 found)
0x643c280a: pop ebp ; ret ; (1 found)
0x643c2825: pop ebp ; ret ; (1 found)
0x643c2fb7: pop ebp ; ret ; (1 found)
0x643c3088: pop ebp ; ret ; (1 found)
0x643c30e8: pop ebp ; ret ; (1 found)
0x643c36f0: pop ebp ; ret ; (1 found)
0x643c375d: pop ebp ; ret ; (1 found)
0x643c3ba6: pop ebp ; ret ; (1 found)
0x643c3dcb: pop ebp ; ret ; (1 found)
0x643c403d: pop ebp ; ret ; (1 found)
0x643c409c: pop ebp ; ret ; (1 found)
0x643c40aa: pop ebp ; ret ; (1 found)
0x643c1c24: pop ebx ; mov eax, edi ; pop esi ; pop edi ; pop ebp ; ret ; (1 found)
0x643c40a5: pop ebx ; mov eax, esi ; pop esi ; pop edi ; pop ebp ; ret ; (1 found)
0x643c42be: pop ebx ; pop esi ; add edi, 0x643C0000 ; mov eax, edi ; pop edi ; ret ; (1 found)
0x643c14f7: pop ebx ; pop esi ; pop ebp ; ret ; (1 found)
0x643c12c6: pop ebx ; pop esi ; pop edi ; pop ebp ; ret ; (1 found)
0x643c15f8: pop ebx ; pop esi ; pop edi ; pop ebp ; ret ; (1 found)
0x643c167c: pop ebx ; pop esi ; pop edi ; pop ebp ; ret ; (1 found)
0x643c16ad: pop ebx ; pop esi ; pop edi ; pop ebp ; ret ; (1 found)
0x643c1933: pop ebx ; pop esi ; pop edi ; pop ebp ; ret ; (1 found)
0x643c1958: pop ebx ; pop esi ; pop edi ; pop ebp ; ret ; (1 found)
0x643c1a0c: pop ebx ; pop esi ; pop edi ; pop ebp ; ret ; (1 found)
0x643c1aab: pop ebx ; pop esi ; pop edi ; pop ebp ; ret ; (1 found)
0x643c1c09: pop ebx ; pop esi ; pop edi ; pop ebp ; ret ; (1 found)
0x643c1e26: pop ebx ; pop esi ; pop edi ; pop ebp ; ret ; (1 found)
0x643c1e4f: pop ebx ; pop esi ; pop edi ; pop ebp ; ret ; (1 found)
0x643c22cf: pop ebx ; pop esi ; pop edi ; pop ebp ; ret ; (1 found)
0x643c26d2: pop ebx ; pop esi ; pop edi ; pop ebp ; ret ; (1 found)
0x643c2807: pop ebx ; pop esi ; pop edi ; pop ebp ; ret ; (1 found)
0x643c2822: pop ebx ; pop esi ; pop edi ; pop ebp ; ret ; (1 found)
0x643c2fb4: pop ebx ; pop esi ; pop edi ; pop ebp ; ret ; (1 found)
0x643c3085: pop ebx ; pop esi ; pop edi ; pop ebp ; ret ; (1 found)
0x643c30e5: pop ebx ; pop esi ; pop edi ; pop ebp ; ret ; (1 found)
0x643c36ed: pop ebx ; pop esi ; pop edi ; pop ebp ; ret ; (1 found)
0x643c375a: pop ebx ; pop esi ; pop edi ; pop ebp ; ret ; (1 found)
0x643c3ba3: pop ebx ; pop esi ; pop edi ; pop ebp ; ret ; (1 found)
0x643c3dc8: pop ebx ; pop esi ; pop edi ; pop ebp ; ret ; (1 found)
0x643c403a: pop ebx ; pop esi ; pop edi ; pop ebp ; ret ; (1 found)
0x643c4099: pop ebx ; pop esi ; pop edi ; pop ebp ; ret ; (1 found)
0x643c17ae: pop ebx ; pop esi ; pop edi ; ret ; (1 found)
0x643c17c8: pop ebx ; pop esi ; pop edi ; ret ; (1 found)
0x643c201c: pop ebx ; pop esi ; pop edi ; ret ; (1 found)
0x643c2034: pop ebx ; pop esi ; pop edi ; ret ; (1 found)
0x643c236d: pop ebx ; pop esi ; pop edi ; ret ; (1 found)
0x643c23d1: pop ebx ; pop esi ; pop edi ; ret ; (1 found)
0x643c244a: pop ebx ; pop esi ; pop edi ; ret ; (1 found)
0x643c294b: pop ebx ; pop esi ; pop edi ; ret ; (1 found)
0x643c298f: pop ebx ; pop esi ; pop edi ; ret ; (1 found)
0x643c29f7: pop ebx ; pop esi ; pop edi ; ret ; (1 found)
0x643c2a17: pop ebx ; pop esi ; pop edi ; ret ; (1 found)
0x643c2b73: pop ebx ; pop esi ; pop edi ; ret ; (1 found)
0x643c2c18: pop ebx ; pop esi ; pop edi ; ret ; (1 found)
0x643c348e: pop ebx ; pop esi ; pop edi ; ret ; (1 found)
0x643c34e8: pop ebx ; pop esi ; pop edi ; ret ; (1 found)
0x643c3532: pop ebx ; pop esi ; pop edi ; ret ; (1 found)
0x643c3a49: pop ebx ; pop esi ; pop edi ; ret ; (1 found)
0x643c425c: pop ebx ; pop esi ; pop edi ; ret ; (1 found)
0x643c42d7: pop ebx ; pop esi ; pop edi ; ret ; (1 found)
0x643c10b1: pop ebx ; pop esi ; pop edi ; retn 0x000C ; (1 found)
0x643c1169: pop ebx ; pop esi ; pop edi ; retn 0x000C ; (1 found)
0x643c11ee: pop ebx ; pop esi ; pop edi ; retn 0x000C ; (1 found)
0x643c21b1: pop ebx ; pop esi ; ret ; (1 found)
0x643c21f6: pop ebx ; pop esi ; ret ; (1 found)
0x643c3405: pop ebx ; pop esi ; ret ; (1 found)
0x643c3438: pop ebx ; pop esi ; ret ; (1 found)
0x643c3454: pop ebx ; pop esi ; ret ; (1 found)
0x643c400a: pop ebx ; pop esi ; ret ; (1 found)
0x643c4145: pop ebx ; pop esi ; ret ; (1 found)
0x643c419b: pop ebx ; pop esi ; ret ; (1 found)
0x643c41a4: pop ebx ; pop esi ; ret ; (1 found)
0x643c1033: pop ebx ; ret ; (1 found)
0x643c103d: pop ebx ; ret ; (1 found)
0x643c35dd: pop ebx ; ret ; (1 found)
0x643c35f0: pop ebx ; ret ; (1 found)
0x643c367e: pop ebx ; ret ; (1 found)
0x643c3e3e: pop ebx ; ret ; (1 found)
0x643c3e66: pop ebx ; ret ; (1 found)
0x643c3eb6: pop ebx ; ret ; (1 found)
0x643c40c6: pop ebx ; ret ; (1 found)
0x643c40fe: pop ebx ; ret ; (1 found)
0x643c41c0: pop ebx ; ret ; (1 found)
0x643c41d8: pop ebx ; ret ; (1 found)
0x643c387d: pop ebx ; retn 0x000C ; (1 found)
0x643c38ab: pop ebx ; retn 0x000C ; (1 found)
0x643c4308: pop ecx ; ret ; (1 found)
0x643c12c8: pop edi ; pop ebp ; ret ; (1 found)
0x643c15fa: pop edi ; pop ebp ; ret ; (1 found)
0x643c167e: pop edi ; pop ebp ; ret ; (1 found)
0x643c16af: pop edi ; pop ebp ; ret ; (1 found)
0x643c1935: pop edi ; pop ebp ; ret ; (1 found)
0x643c195a: pop edi ; pop ebp ; ret ; (1 found)
0x643c1a0e: pop edi ; pop ebp ; ret ; (1 found)
0x643c1aad: pop edi ; pop ebp ; ret ; (1 found)
0x643c1c0b: pop edi ; pop ebp ; ret ; (1 found)
0x643c1c28: pop edi ; pop ebp ; ret ; (1 found)
0x643c1e28: pop edi ; pop ebp ; ret ; (1 found)
0x643c1e51: pop edi ; pop ebp ; ret ; (1 found)
0x643c22d1: pop edi ; pop ebp ; ret ; (1 found)
0x643c26d4: pop edi ; pop ebp ; ret ; (1 found)
0x643c2809: pop edi ; pop ebp ; ret ; (1 found)
0x643c2824: pop edi ; pop ebp ; ret ; (1 found)
0x643c2fb6: pop edi ; pop ebp ; ret ; (1 found)
0x643c3087: pop edi ; pop ebp ; ret ; (1 found)
0x643c30e7: pop edi ; pop ebp ; ret ; (1 found)
0x643c36ef: pop edi ; pop ebp ; ret ; (1 found)
0x643c375c: pop edi ; pop ebp ; ret ; (1 found)
0x643c3ba5: pop edi ; pop ebp ; ret ; (1 found)
0x643c3dca: pop edi ; pop ebp ; ret ; (1 found)
0x643c403c: pop edi ; pop ebp ; ret ; (1 found)
0x643c409b: pop edi ; pop ebp ; ret ; (1 found)
0x643c40a9: pop edi ; pop ebp ; ret ; (1 found)
0x643c17b0: pop edi ; ret ; (1 found)
0x643c17ca: pop edi ; ret ; (1 found)
0x643c201e: pop edi ; ret ; (1 found)
0x643c2036: pop edi ; ret ; (1 found)
0x643c236f: pop edi ; ret ; (1 found)
0x643c23d3: pop edi ; ret ; (1 found)
0x643c244c: pop edi ; ret ; (1 found)
0x643c294d: pop edi ; ret ; (1 found)
0x643c2991: pop edi ; ret ; (1 found)
0x643c29f9: pop edi ; ret ; (1 found)
0x643c2a19: pop edi ; ret ; (1 found)
0x643c2b75: pop edi ; ret ; (1 found)
0x643c2c1a: pop edi ; ret ; (1 found)
0x643c3490: pop edi ; ret ; (1 found)
0x643c34ea: pop edi ; ret ; (1 found)
0x643c3534: pop edi ; ret ; (1 found)
0x643c3a4b: pop edi ; ret ; (1 found)
0x643c425e: pop edi ; ret ; (1 found)
0x643c42c8: pop edi ; ret ; (1 found)
0x643c42d9: pop edi ; ret ; (1 found)
0x643c10b3: pop edi ; retn 0x000C ; (1 found)
0x643c116b: pop edi ; retn 0x000C ; (1 found)
0x643c11f0: pop edi ; retn 0x000C ; (1 found)
0x643c2018: pop es ; add esp, 0x30 ; pop ebx ; pop esi ; pop edi ; ret ; (1 found)
0x643c329c: pop es ; popad ; cmp al, 0x64 ; mov  [esp+0x00], ebx ; call esi ; (1 found)
0x643c334f: pop es ; popad ; cmp al, 0x64 ; mov  [esp+0x00], ebx ; call esi ; (1 found)
0x643c36a8: pop es ; rep ret ; (1 found)
0x643c3aa8: pop es ; ret ; (1 found)
0x643c3dd8: pop es ; ret ; (1 found)
0x643c42bf: pop esi ; add edi, 0x643C0000 ; mov eax, edi ; pop edi ; ret ; (1 found)
0x643c14f8: pop esi ; pop ebp ; ret ; (1 found)
0x643c12c7: pop esi ; pop edi ; pop ebp ; ret ; (1 found)
0x643c15f9: pop esi ; pop edi ; pop ebp ; ret ; (1 found)
0x643c167d: pop esi ; pop edi ; pop ebp ; ret ; (1 found)
0x643c16ae: pop esi ; pop edi ; pop ebp ; ret ; (1 found)
0x643c1934: pop esi ; pop edi ; pop ebp ; ret ; (1 found)
0x643c1959: pop esi ; pop edi ; pop ebp ; ret ; (1 found)
0x643c1a0d: pop esi ; pop edi ; pop ebp ; ret ; (1 found)
0x643c1aac: pop esi ; pop edi ; pop ebp ; ret ; (1 found)
0x643c1c0a: pop esi ; pop edi ; pop ebp ; ret ; (1 found)
0x643c1c27: pop esi ; pop edi ; pop ebp ; ret ; (1 found)
0x643c1e27: pop esi ; pop edi ; pop ebp ; ret ; (1 found)
0x643c1e50: pop esi ; pop edi ; pop ebp ; ret ; (1 found)
0x643c22d0: pop esi ; pop edi ; pop ebp ; ret ; (1 found)
0x643c26d3: pop esi ; pop edi ; pop ebp ; ret ; (1 found)
0x643c2808: pop esi ; pop edi ; pop ebp ; ret ; (1 found)
0x643c2823: pop esi ; pop edi ; pop ebp ; ret ; (1 found)
0x643c2fb5: pop esi ; pop edi ; pop ebp ; ret ; (1 found)
0x643c3086: pop esi ; pop edi ; pop ebp ; ret ; (1 found)
0x643c30e6: pop esi ; pop edi ; pop ebp ; ret ; (1 found)
0x643c36ee: pop esi ; pop edi ; pop ebp ; ret ; (1 found)
0x643c375b: pop esi ; pop edi ; pop ebp ; ret ; (1 found)
0x643c3ba4: pop esi ; pop edi ; pop ebp ; ret ; (1 found)
0x643c3dc9: pop esi ; pop edi ; pop ebp ; ret ; (1 found)
0x643c403b: pop esi ; pop edi ; pop ebp ; ret ; (1 found)
0x643c409a: pop esi ; pop edi ; pop ebp ; ret ; (1 found)
0x643c40a8: pop esi ; pop edi ; pop ebp ; ret ; (1 found)
0x643c17af: pop esi ; pop edi ; ret ; (1 found)
0x643c17c9: pop esi ; pop edi ; ret ; (1 found)
0x643c201d: pop esi ; pop edi ; ret ; (1 found)
0x643c2035: pop esi ; pop edi ; ret ; (1 found)
0x643c236e: pop esi ; pop edi ; ret ; (1 found)
0x643c23d2: pop esi ; pop edi ; ret ; (1 found)
0x643c244b: pop esi ; pop edi ; ret ; (1 found)
0x643c294c: pop esi ; pop edi ; ret ; (1 found)
0x643c2990: pop esi ; pop edi ; ret ; (1 found)
0x643c29f8: pop esi ; pop edi ; ret ; (1 found)
0x643c2a18: pop esi ; pop edi ; ret ; (1 found)
0x643c2b74: pop esi ; pop edi ; ret ; (1 found)
0x643c2c19: pop esi ; pop edi ; ret ; (1 found)
0x643c348f: pop esi ; pop edi ; ret ; (1 found)
0x643c34e9: pop esi ; pop edi ; ret ; (1 found)
0x643c3533: pop esi ; pop edi ; ret ; (1 found)
0x643c3a4a: pop esi ; pop edi ; ret ; (1 found)
0x643c425d: pop esi ; pop edi ; ret ; (1 found)
0x643c42d8: pop esi ; pop edi ; ret ; (1 found)
0x643c10b2: pop esi ; pop edi ; retn 0x000C ; (1 found)
0x643c116a: pop esi ; pop edi ; retn 0x000C ; (1 found)
0x643c11ef: pop esi ; pop edi ; retn 0x000C ; (1 found)
0x643c21b2: pop esi ; ret ; (1 found)
0x643c21f7: pop esi ; ret ; (1 found)
0x643c3406: pop esi ; ret ; (1 found)
0x643c3439: pop esi ; ret ; (1 found)
0x643c3455: pop esi ; ret ; (1 found)
0x643c400b: pop esi ; ret ; (1 found)
0x643c4146: pop esi ; ret ; (1 found)
0x643c419c: pop esi ; ret ; (1 found)
0x643c41a5: pop esi ; ret ; (1 found)
0x643c351f: pop esp ; and al, 0x04 ; mov  [esp+0x00], 0x00000001 ; call edi ; (1 found)
0x643c3a2c: pop esp ; and al, 0x0C ; mov  [esp+0x00], eax ; call  [0x643CB170] ; (1 found)
0x643c3703: pop esp ; and al, 0x10 ; xor ebx,  [esp+0x14] ; call  [0x643CB124] ; (1 found)
0x643c3707: pop esp ; and al, 0x14 ; call  [0x643CB124] ; (1 found)
0x643c3467: pop esp ; and al, 0x20 ; mov eax,  [ebx] ; mov  [esp+0x00], eax ; call  [ebx+0x04] ; (1 found)
0x643c37c1: pop esp ; mov cl, 0x3C ; sub esp, 0x04 ; mov  [esp+0x00], 0x643C6E54 ; call  [0x643CB16C] ; (1 found)
0x643c1932: pop esp ; pop ebx ; pop esi ; pop edi ; pop ebp ; ret ; (1 found)
0x643c1957: pop esp ; pop ebx ; pop esi ; pop edi ; pop ebp ; ret ; (1 found)
0x643c329d: popad ; cmp al, 0x64 ; mov  [esp+0x00], ebx ; call esi ; (1 found)
0x643c32b2: popad ; cmp al, 0x64 ; mov  [esp+0x00], ebx ; call esi ; (1 found)
0x643c32c7: popad ; cmp al, 0x64 ; mov  [esp+0x00], ebx ; call esi ; (1 found)
0x643c32dc: popad ; cmp al, 0x64 ; mov  [esp+0x00], ebx ; call esi ; (1 found)
0x643c3350: popad ; cmp al, 0x64 ; mov  [esp+0x00], ebx ; call esi ; (1 found)
0x643c3365: popad ; cmp al, 0x64 ; mov  [esp+0x00], ebx ; call esi ; (1 found)
0x643c337a: popad ; cmp al, 0x64 ; mov  [esp+0x00], ebx ; call esi ; (1 found)
0x643c338f: popad ; cmp al, 0x64 ; mov  [esp+0x00], ebx ; call esi ; (1 found)
0x643c2e81: popfd ; pushad ; cmp al, 0x64 ; mov  [esp+0x00], ebp ; mov ebx,  [0x643CB1A0] ; call ebx ; (1 found)
0x643c347e: push cs ; add byte [eax], al ; call  [0x643CB188] ; (1 found)
0x643c2236: push eax ; mov  [esp+0x04], esi ; mov  [esp+0x00], ebp ; mov  [esp+0x08], eax ; call  [ebp+0x10] ; (1 found)
0x643c1500: push ebp ; mov ebp, esp ; sub esp, 0x18 ; mov  [esp+0x00], 0x643C6000 ; call  [0x643CB130] ; (1 found)
0x643c209c: push ebx ; call  [0x643CB188] ; (1 found)
0x643c3475: push ebx ; or al, 0x8B ; cmp byte [ecx-0x1817DBE4], cl ; push cs ; add byte [eax], al ; call  [0x643CB188] ; (1 found)
0x643c34d0: push ebx ; or byte [ecx-0x77EA003A], cl ; mov cl, 0x3C ; mov edi, eax ; call  [ebx+0x0C] ; (1 found)
0x643c1454: push ebx ; sub esp, 0x10 ; mov ebx,  [0x643CB130] ; mov  [esp+0x00], 0x643C6000 ; call ebx ; (1 found)
0x643c3462: push ebx ; sub esp, 0x10 ; mov ebx,  [esp+0x20] ; mov eax,  [ebx] ; mov  [esp+0x00], eax ; call  [ebx+0x04] ; (1 found)
0x643c3d63: push ebx ; sub esp, 0x1C ; mov  [esp+0x00], 0x643C93E8 ; call  [0x643CB110] ; (1 found)
0x643c177e: push ecx ; mov  [esp+0x00], ebx ; mov  [esp+0x08], eax ; mov  [esp+0x04], esi ; call  [ebx+0x10] ; (1 found)
0x643c32db: push ecx ; popad ; cmp al, 0x64 ; mov  [esp+0x00], ebx ; call esi ; (1 found)
0x643c338e: push ecx ; popad ; cmp al, 0x64 ; mov  [esp+0x00], ebx ; call esi ; (1 found)
0x643c3d61: push edi ; push esi ; push ebx ; sub esp, 0x1C ; mov  [esp+0x00], 0x643C93E8 ; call  [0x643CB110] ; (1 found)
0x643c3835: push es ; add byte [eax], al ; mov eax, 0x00000001 ; add esp, 0x1C ; retn 0x000C ; (1 found)
0x643c4126: push es ; add byte [esp+0x00], bh ; ret ; (1 found)
0x643c1453: push esi ; push ebx ; sub esp, 0x10 ; mov ebx,  [0x643CB130] ; mov  [esp+0x00], 0x643C6000 ; call ebx ; (1 found)
0x643c3d62: push esi ; push ebx ; sub esp, 0x1C ; mov  [esp+0x00], 0x643C93E8 ; call  [0x643CB110] ; (1 found)
0x643c27d0: push esi ; xor byte [ecx+0x4C892414], cl ; and al, 0x08 ; call eax ; (1 found)
0x643c27cc: push esp ; and al, 0x04 ; lea edx,  [esi+0x30] ; mov  [esp+0x00], edx ; mov  [esp+0x08], ecx ; call eax ; (1 found)
0x643c22b1: push esp ; and al, 0x04 ; mov  [esp+0x00], eax ; mov  [esp+0x10], ecx ; call  [0x643CB154] ; (1 found)
0x643c1df1: push esp ; and al, 0x08 ; call  [0x643CB178] ; (1 found)
0x643c114b: push esp ; and al, 0x08 ; mov edx,  [esp+0x20] ; mov  [esp+0x00], edx ; call eax ; (1 found)
0x643c2656: push esp ; and al, 0x0C ; mov  [esp+0x00], eax ; call  [esi+0x3C] ; (1 found)
0x643c1de6: push esp ; and al, 0x0C ; mov edx,  [esp+0x54] ; mov  [esp+0x00], eax ; mov  [esp+0x08], edx ; call  [0x643CB178] ; (1 found)
0x643c2f01: push esp ; and al, 0x14 ; call  [0x643CB118] ; (1 found)
0x643c3243: push esp ; and al, 0x14 ; mov  [esp+0x00], 0x643C60CD ; call  [0x643CB150] ; (1 found)
0x643c32f6: push esp ; and al, 0x14 ; mov  [esp+0x00], 0x643C60CD ; call  [0x643CB150] ; (1 found)
0x643c2fea: push esp ; and al, 0x14 ; mov  [esp+0x00], eax ; call  [0x643CB148] ; (1 found)
0x643c2e7a: push esp ; and al, 0x14 ; mov  [esp+0x04], 0x643C609D ; mov  [esp+0x00], ebp ; mov ebx,  [0x643CB1A0] ; call ebx ; (1 found)
0x643c308b: push esp ; and al, 0x14 ; mov  [esp+0x04], 0x643C60A4 ; mov  [esp+0x00], ebp ; call ebx ; (1 found)
0x643c30f9: push esp ; and al, 0x14 ; mov  [esp+0x04], 0x643C60B5 ; mov  [esp+0x00], ebp ; mov ebx,  [0x643CB1A0] ; call ebx ; (1 found)
0x643c311c: push esp ; and al, 0x14 ; mov  [esp+0x04], 0x643C60BC ; mov  [esp+0x00], ebp ; call ebx ; (1 found)
0x643c3265: push esp ; and al, 0x14 ; mov esi,  [0x643CB134] ; mov  [esp+0x04], 0x643C60D7 ; mov  [esp+0x00], eax ; call esi ; (1 found)
0x643c3318: push esp ; and al, 0x14 ; mov esi,  [0x643CB134] ; mov  [esp+0x04], 0x643C60D7 ; mov  [esp+0x00], eax ; call esi ; (1 found)
0x643c2ea6: push esp ; and al, 0x18 ; mov  [esp+0x04], 0x643C606E ; mov  [esp+0x00], esi ; call  [0x643CB1A0] ; (1 found)
0x643c2ecd: push esp ; and al, 0x18 ; mov  [esp+0x04], 0x643C6077 ; mov  [esp+0x00], esi ; call  [0x643CB1A0] ; (1 found)
0x643c2de1: push esp ; and al, 0x18 ; mov  [esp+0x04], 0x643C6081 ; mov  [esp+0x00], esi ; call  [0x643CB1A0] ; (1 found)
0x643c114f: push esp ; and al, 0x20 ; mov  [esp+0x00], edx ; call eax ; (1 found)
0x643c1dea: push esp ; and al, 0x54 ; mov  [esp+0x00], eax ; mov  [esp+0x08], edx ; call  [0x643CB178] ; (1 found)
0x643c1dec: push esp ; mov  [esp+0x00], eax ; mov  [esp+0x08], edx ; call  [0x643CB178] ; (1 found)
0x643c37cb: push esp ; outsb ; cmp al, 0x64 ; call  [0x643CB16C] ; (1 found)
0x643c37b8: push esp ; pop ebp ; cmp al, 0x64 ; mov  [ebp-0x0C], eax ; call  [0x643CB15C] ; (1 found)
0x643c14d0: push ss ; mov  [esp+0x04], 0x643C6037 ; mov  [esp+0x00], eax ; call  [0x643CB134] ; (1 found)
0x643c151e: push ss ; mov  [esp+0x04], 0x643C604B ; mov  [esp+0x00], eax ; call  [0x643CB134] ; (1 found)
0x643c150a: pushad ; cmp al, 0x64 ; call  [0x643CB130] ; (1 found)
0x643c1479: pushad ; cmp al, 0x64 ; call  [0x643CB150] ; (1 found)
0x643c324a: pushad ; cmp al, 0x64 ; call  [0x643CB150] ; (1 found)
0x643c32fd: pushad ; cmp al, 0x64 ; call  [0x643CB150] ; (1 found)
0x643c1462: pushad ; cmp al, 0x64 ; call ebx ; (1 found)
0x643c14c0: pushad ; cmp al, 0x64 ; call ebx ; (1 found)
0x643c14d6: pushad ; cmp al, 0x64 ; mov  [esp+0x00], eax ; call  [0x643CB134] ; (1 found)
0x643c1524: pushad ; cmp al, 0x64 ; mov  [esp+0x00], eax ; call  [0x643CB134] ; (1 found)
0x643c3273: pushad ; cmp al, 0x64 ; mov  [esp+0x00], eax ; call esi ; (1 found)
0x643c3326: pushad ; cmp al, 0x64 ; mov  [esp+0x00], eax ; call esi ; (1 found)
0x643c3093: pushad ; cmp al, 0x64 ; mov  [esp+0x00], ebp ; call ebx ; (1 found)
0x643c30ac: pushad ; cmp al, 0x64 ; mov  [esp+0x00], ebp ; call ebx ; (1 found)
0x643c30c5: pushad ; cmp al, 0x64 ; mov  [esp+0x00], ebp ; call ebx ; (1 found)
0x643c3124: pushad ; cmp al, 0x64 ; mov  [esp+0x00], ebp ; call ebx ; (1 found)
0x643c313d: pushad ; cmp al, 0x64 ; mov  [esp+0x00], ebp ; call ebx ; (1 found)
0x643c31ab: pushad ; cmp al, 0x64 ; mov  [esp+0x00], ebp ; call ebx ; (1 found)
0x643c2e82: pushad ; cmp al, 0x64 ; mov  [esp+0x00], ebp ; mov ebx,  [0x643CB1A0] ; call ebx ; (1 found)
0x643c3101: pushad ; cmp al, 0x64 ; mov  [esp+0x00], ebp ; mov ebx,  [0x643CB1A0] ; call ebx ; (1 found)
0x643c3171: pushad ; cmp al, 0x64 ; mov  [esp+0x00], ebp ; mov ebx,  [0x643CB1A4] ; call ebx ; (1 found)
0x643c3288: pushad ; cmp al, 0x64 ; mov  [esp+0x00], ebx ; call esi ; (1 found)
0x643c333b: pushad ; cmp al, 0x64 ; mov  [esp+0x00], ebx ; call esi ; (1 found)
0x643c148f: pushad ; cmp al, 0x64 ; mov  [esp+0x00], esi ; call  [0x643CB134] ; (1 found)
0x643c2de9: pushad ; cmp al, 0x64 ; mov  [esp+0x00], esi ; call  [0x643CB1A0] ; (1 found)
0x643c2eae: pushad ; cmp al, 0x64 ; mov  [esp+0x00], esi ; call  [0x643CB1A0] ; (1 found)
0x643c2ed5: pushad ; cmp al, 0x64 ; mov  [esp+0x00], esi ; call  [0x643CB1A0] ; (1 found)
0x643c4392: pushfd ; mov cl, 0x3C ; nop ; nop ; jmp  [0x643CB194] ; (1 found)
0x643c2586: pushfd ; or eax,  [eax] ; add byte [ecx], al ; add byte [ebx+0x74C9850A], cl ; sbb al, 0x83 ; retn 0xF60C ; (1 found)
0x643c3084: rcr byte [ebx+0x5E], 0x5F ; pop ebp ; ret ; (1 found)
0x643c30e4: rcr byte [ebx+0x5E], 0x5F ; pop ebp ; ret ; (1 found)
0x643c1032: rcr byte [ebx-0x3D], 0x83 ; les ebx,  [eax] ; mov eax, 0x00000001 ; pop ebx ; ret ; (1 found)
0x643c3e65: rcr byte [ebx-0x3D], 0x90 ; lea esi,  [esi+0x00000000] ; mov  [esp+0x00], 0x643C93E8 ; call  [0x643CB110] ; (1 found)
0x643c364a: rep ret ; (1 found)
0x643c36a9: rep ret ; (1 found)
0x643c410d: rep ret ; (1 found)
0x643c1011: ret ; (1 found)
0x643c1034: ret ; (1 found)
0x643c103e: ret ; (1 found)
0x643c11a1: ret ; (1 found)
0x643c12ca: ret ; (1 found)
0x643c14fa: ret ; (1 found)
0x643c1558: ret ; (1 found)
0x643c1562: ret ; (1 found)
0x643c1575: ret ; (1 found)
0x643c159e: ret ; (1 found)
0x643c15fc: ret ; (1 found)
0x643c1601: ret ; (1 found)
0x643c1680: ret ; (1 found)
0x643c16b1: ret ; (1 found)
0x643c1792: ret ; (1 found)
0x643c17b1: ret ; (1 found)
0x643c17cb: ret ; (1 found)
0x643c1937: ret ; (1 found)
0x643c195c: ret ; (1 found)
0x643c1a10: ret ; (1 found)
0x643c1aaf: ret ; (1 found)
0x643c1c0d: ret ; (1 found)
0x643c1c2a: ret ; (1 found)
0x643c1d25: ret ; (1 found)
0x643c1e2a: ret ; (1 found)
0x643c1e53: ret ; (1 found)
0x643c1e92: ret ; (1 found)
0x643c1f06: ret ; (1 found)
0x643c1f8f: ret ; (1 found)
0x643c1fe0: ret ; (1 found)
0x643c201f: ret ; (1 found)
0x643c2037: ret ; (1 found)
0x643c2070: ret ; (1 found)
0x643c2151: ret ; (1 found)
0x643c218f: ret ; (1 found)
0x643c21b3: ret ; (1 found)
0x643c21f8: ret ; (1 found)
0x643c2249: ret ; (1 found)
0x643c22d3: ret ; (1 found)
0x643c2370: ret ; (1 found)
0x643c23d4: ret ; (1 found)
0x643c244d: ret ; (1 found)
0x643c24d9: ret ; (1 found)
0x643c26d6: ret ; (1 found)
0x643c280b: ret ; (1 found)
0x643c2826: ret ; (1 found)
0x643c28df: ret ; (1 found)
0x643c294e: ret ; (1 found)
0x643c2992: ret ; (1 found)
0x643c29fa: ret ; (1 found)
0x643c2a1a: ret ; (1 found)
0x643c2b76: ret ; (1 found)
0x643c2c1b: ret ; (1 found)
0x643c2d96: ret ; (1 found)
0x643c2e39: ret ; (1 found)
0x643c2fb8: ret ; (1 found)
0x643c3089: ret ; (1 found)
0x643c30d5: ret ; (1 found)
0x643c30e9: ret ; (1 found)
0x643c31e1: ret ; (1 found)
0x643c3259: ret ; (1 found)
0x643c330c: ret ; (1 found)
0x643c33cc: ret ; (1 found)
0x643c3407: ret ; (1 found)
0x643c343a: ret ; (1 found)
0x643c3456: ret ; (1 found)
0x643c3491: ret ; (1 found)
0x643c34eb: ret ; (1 found)
0x643c3511: ret ; (1 found)
0x643c3535: ret ; (1 found)
0x643c35a9: ret ; (1 found)
0x643c35de: ret ; (1 found)
0x643c35f1: ret ; (1 found)
0x643c361c: ret ; (1 found)
0x643c364b: ret ; (1 found)
0x643c367f: ret ; (1 found)
0x643c3685: ret ; (1 found)
0x643c36aa: ret ; (1 found)
0x643c36f1: ret ; (1 found)
0x643c375e: ret ; (1 found)
0x643c3899: ret ; (1 found)
0x643c38d2: ret ; (1 found)
0x643c38e4: ret ; (1 found)
0x643c38f4: ret ; (1 found)
0x643c3995: ret ; (1 found)
0x643c39a2: ret ; (1 found)
0x643c3a4c: ret ; (1 found)
0x643c3aa9: ret ; (1 found)
0x643c3b4d: ret ; (1 found)
0x643c3ba7: ret ; (1 found)
0x643c3bbb: ret ; (1 found)
0x643c3bf1: ret ; (1 found)
0x643c3c79: ret ; (1 found)
0x643c3cc4: ret ; (1 found)
0x643c3dcc: ret ; (1 found)
0x643c3dd9: ret ; (1 found)
0x643c3dfb: ret ; (1 found)
0x643c3e3f: ret ; (1 found)
0x643c3e67: ret ; (1 found)
0x643c3eb7: ret ; (1 found)
0x643c3f14: ret ; (1 found)
0x643c3f5f: ret ; (1 found)
0x643c3f9d: ret ; (1 found)
0x643c3fac: ret ; (1 found)
0x643c3fbd: ret ; (1 found)
0x643c400c: ret ; (1 found)
0x643c403e: ret ; (1 found)
0x643c4074: ret ; (1 found)
0x643c409d: ret ; (1 found)
0x643c40ab: ret ; (1 found)
0x643c40c7: ret ; (1 found)
0x643c40fb: ret ; (1 found)
0x643c40ff: ret ; (1 found)
0x643c410e: ret ; (1 found)
0x643c4129: ret ; (1 found)
0x643c412a: ret ; (1 found)
0x643c4147: ret ; (1 found)
0x643c419d: ret ; (1 found)
0x643c41a6: ret ; (1 found)
0x643c41c1: ret ; (1 found)
0x643c41d9: ret ; (1 found)
0x643c41ed: ret ; (1 found)
0x643c4229: ret ; (1 found)
0x643c425f: ret ; (1 found)
0x643c4292: ret ; (1 found)
0x643c42c9: ret ; (1 found)
0x643c42da: ret ; (1 found)
0x643c4309: ret ; (1 found)
0x643c43d8: ret ; (1 found)
0x643c2ea1: retn 0x0000 ; (1 found)
0x643c10b4: retn 0x000C ; (1 found)
0x643c116c: retn 0x000C ; (1 found)
0x643c11f1: retn 0x000C ; (1 found)
0x643c1436: retn 0x000C ; (1 found)
0x643c3818: retn 0x000C ; (1 found)
0x643c3840: retn 0x000C ; (1 found)
0x643c387e: retn 0x000C ; (1 found)
0x643c38ac: retn 0x000C ; (1 found)
0x643c4315: retn 0x000C ; (1 found)
0x643c4325: retn 0x000C ; (1 found)
0x643c23aa: retn 0x2566 ; (1 found)
0x643c273d: retn 0x2566 ; (1 found)
0x643c3998: retn 0x390C ; (1 found)
0x643c4191: retn 0x3928 ; (1 found)
0x643c313c: retn 0x3C60 ; (1 found)
0x643c3e99: retn 0x428B ; (1 found)
0x643c2a55: retn 0x43C6 ; (1 found)
0x643c27df: retn 0x4574 ; (1 found)
0x643c1b92: retn 0x5000 ; (1 found)
0x643c1f22: retn 0x805F ; (1 found)
0x643c1f33: retn 0x805F ; (1 found)
0x643c1f6c: retn 0x805F ; (1 found)
0x643c1e94: retn 0x807F ; (1 found)
0x643c1874: retn 0x8401 ; (1 found)
0x643c28fd: retn 0x840F ; (1 found)
0x643c2b5d: retn 0x840F ; (1 found)
0x643c25a5: retn 0x8B0C ; (1 found)
0x643c42a4: retn 0x8B14 ; (1 found)
0x643c14e6: retn 0xD285 ; (1 found)
0x643c1534: retn 0xD285 ; (1 found)
0x643c2261: retn 0xE283 ; (1 found)
0x643c1b8d: retn 0xE2C1 ; (1 found)
0x643c2593: retn 0xF60C ; (1 found)
0x643c25fe: retn 0xF60C ; (1 found)
0x643c2bad: retn 0xFE83 ; (1 found)
0x643c2a82: retn 0xFFFE ; (1 found)
0x643c2e8f: rol  [ebp+0x24548BC0], cl ; adc al, 0x0F ; test esi, ebp ; add  [eax], eax ; add byte [ebx-0x16FEFBB6], al ; retn 0x0000 ; (1 found)
0x643c25f8: rol  [ebp-0x7CCC8B37], cl ; retn 0xF60C ; (1 found)
0x643c3f9c: rol bl, 0x66 ; nop ; cmp word [eax+0x18], 0x010B ; sete al ; movzx eax, al ; ret ; (1 found)
0x643c2144: rol byte [ebx+0x443B02C0], 0x24 ; sub byte [edi+0x04], bh ; add esp, 0x1C ; ret ; (1 found)
0x643c3e37: rol byte [ebx-0x3B7CFB14], 0x18 ; pop ebx ; ret ; (1 found)
0x643c3613: rol byte [ebx-0x49F0E33C], 0xC0 ; neg eax ; ret ; (1 found)
0x643c418e: rol byte [ecx], 0x83 ; retn 0x3928 ; (1 found)
0x643c14f3: ror byte [ebp+0x5E5BF865], cl ; pop ebp ; ret ; (1 found)
0x643c3110: ror byte [ebx+0x0F142454], 0x84 ; cmp ebp, 0x5489FFFF ; and al, 0x14 ; mov  [esp+0x04], 0x643C60BC ; mov  [esp+0x00], ebp ; call ebx ; (1 found)
0x643c30ce: ror byte [ebx+0x0F142454], 0x84 ; ret ; (1 found)
0x643c2e91: ror byte [ebx+0x0F142454], 0x85 ; out dx, al ; add  [eax], eax ; add byte [ebx-0x16FEFBB6], al ; retn 0x0000 ; (1 found)
0x643c31eb: ror byte [edi], 0x84 ; mov dh, 0x01 ; add byte [eax], al ; mov  [esp+0x04], eax ; mov  [esp+0x00], ebp ; call esi ; (1 found)
0x643c3610: ror byte [edi], 0x94 ; rol byte [ebx-0x49F0E33C], 0xC0 ; neg eax ; ret ; (1 found)
0x643c3619: sal bh, 0xD8 ; ret ; (1 found)
0x643c14b9: sal byte [eax+edi-0x39], 0x04 ; and al, 0x29 ; pushad ; cmp al, 0x64 ; call ebx ; (1 found)
0x643c3d9f: sal byte [ebp+0x0C], 0x85 ; div byte [eax+ecx-0x75] ; inc ebx ; add al, 0x89 ; xor al, 0x24 ; call eax ; (1 found)
0x643c3e5e: sal byte [ebp+0x0F], 0x83 ; les ebx,  [eax] ; xor eax, eax ; pop ebx ; ret ; (1 found)
0x643c21a9: sal byte [ebp+0x21], 0x83 ; les edx,  [ecx+ecx*4] ; fcomp  [ebx+0x5E] ; ret ; (1 found)
0x643c3f09: sal byte [ebp+0x66], 0xB8 ; add  [eax], eax ; add byte [eax], al ; add esp, 0x1C ; ret ; (1 found)
0x643c3517: sal byte [ebp+edx-0x77], 0x74 ; and al, 0x08 ; mov  [esp+0x04], ebx ; mov  [esp+0x00], 0x00000001 ; call edi ; (1 found)
0x643c3808: sal byte [ebp+edx-0x7D], 0xF8 ; add esi,  [eax+edx-0x48] ; add  [eax], eax ; add byte [eax], al ; add esp, 0x1C ; retn 0x000C ; (1 found)
0x643c3644: sal byte [ebp-0x17], 0x83 ; les ecx,  [ebx+esi*8] ; ret ; (1 found)
0x643c408f: sal byte [ebp-0x22], 0x83 ; les ebx,  [ecx+ecx*4] ; fimul word [ecx+0x5F5E5BF0] ; pop ebp ; ret ; (1 found)
0x643c1b86: sal byte [ebp-0x24], 0x8B ; inc edi ; or al, 0x89 ; retn 0xE2C1 ; (1 found)
0x643c14e8: sal byte [ecx+ecx-0x39], cl ; add al, 0x24 ; pop eax ; pop ebp ; cmp al, 0x64 ; call edx ; (1 found)
0x643c149f: sal byte [ecx+edx-0x39], 0x44 ; and al, 0x04 ; add al, 0x90 ; cmp al, 0x64 ; mov  [esp+0x00], 0x643C8150 ; call eax ; (1 found)
0x643c435a: sal byte [ecx-0x6F6F9BC4], 0xFF ; and eax, 0x643CB1BC ; nop ; nop ; jmp  [0x643CB1B8] ; (1 found)
0x643c433a: sal byte [ecx-0x6F6F9BC4], 1 ; jmp  [0x643CB1CC] ; (1 found)
0x643c352c: sal byte [ecx-0x7D], 0xC4 ; adc byte [ebx+0x5E], bl ; pop edi ; ret ; (1 found)
0x643c21a5: sal byte [ecx], cl ; fild  [ebp-0x7CDE8A40] ; les edx,  [ecx+ecx*4] ; fcomp  [ebx+0x5E] ; ret ; (1 found)
0x643c411b: sal byte [edi+ebp*8-0x5F], 0x3C ; add byte [esp+0x00], bh ; movzx eax, word [eax+0x643C0006] ; ret ; (1 found)
0x643c3628: sal byte [edi+ebx-0x7D], 0xEC ; or al, 0x66 ; nop ; call eax ; (1 found)
0x643c1548: sal byte [esp+ecx-0x77], 0x04 ; and al, 0xFF ; adc eax, 0x643CB114 ; sub esp, 0x04 ; leave ; ret ; (1 found)
0x643c41a1: salc ; mov eax, esi ; pop ebx ; pop esi ; ret ; (1 found)
0x643c32ce: salc ; sub esp, 0x08 ; mov  [0x643C9020], eax ; mov  [esp+0x04], 0x643C6151 ; mov  [esp+0x00], ebx ; call esi ; (1 found)
0x643c3381: salc ; sub esp, 0x08 ; mov  [0x643C9020], eax ; mov  [esp+0x04], 0x643C6151 ; mov  [esp+0x00], ebx ; call esi ; (1 found)
0x643c32b9: salc ; sub esp, 0x08 ; mov  [0x643C9024], eax ; mov  [esp+0x04], 0x643C6142 ; mov  [esp+0x00], ebx ; call esi ; (1 found)
0x643c336c: salc ; sub esp, 0x08 ; mov  [0x643C9024], eax ; mov  [esp+0x04], 0x643C6142 ; mov  [esp+0x00], ebx ; call esi ; (1 found)
0x643c32a4: salc ; sub esp, 0x08 ; mov  [0x643C9028], eax ; mov  [esp+0x04], 0x643C6125 ; mov  [esp+0x00], ebx ; call esi ; (1 found)
0x643c3357: salc ; sub esp, 0x08 ; mov  [0x643C9028], eax ; mov  [esp+0x04], 0x643C6125 ; mov  [esp+0x00], ebx ; call esi ; (1 found)
0x643c328f: salc ; sub esp, 0x08 ; mov  [0x643C902C], eax ; mov  [esp+0x04], 0x643C6107 ; mov  [esp+0x00], ebx ; call esi ; (1 found)
0x643c3342: salc ; sub esp, 0x08 ; mov  [0x643C902C], eax ; mov  [esp+0x04], 0x643C6107 ; mov  [esp+0x00], ebx ; call esi ; (1 found)
0x643c327a: salc ; sub esp, 0x08 ; mov  [0x643C9030], eax ; mov  [esp+0x04], 0x643C60E9 ; mov  [esp+0x00], ebx ; call esi ; (1 found)
0x643c332d: salc ; sub esp, 0x08 ; mov  [0x643C9030], eax ; mov  [esp+0x04], 0x643C60E9 ; mov  [esp+0x00], ebx ; call esi ; (1 found)
0x643c1e8c: sar byte [eax+0x04], cl ; add esp, 0x0C ; ret ; (1 found)
0x643c1f00: sar byte [eax+0x0D], cl ; add esp, 0x0C ; ret ; (1 found)
0x643c14c9: sar byte [edx+0x00000000], 0x74 ; push ss ; mov  [esp+0x04], 0x643C6037 ; mov  [esp+0x00], eax ; call  [0x643CB134] ; (1 found)
0x643c1517: sar byte [edx+0x00000000], 0x74 ; push ss ; mov  [esp+0x04], 0x643C604B ; mov  [esp+0x00], eax ; call  [0x643CB134] ; (1 found)
0x643c389e: sar byte [esp+0x00], 0x75 ; in eax, dx ; add esp, 0x18 ; mov eax, 0x00000001 ; pop ebx ; retn 0x000C ; (1 found)
0x643c2e2f: sbb al, 0x00 ; add byte [eax], al ; add byte [ecx-0x7BF0FBBE], cl ; ret ; (1 found)
0x643c3c19: sbb al, 0x00 ; add byte [eax], al ; mov  [esp+0x04], ecx ; mov eax,  [eax+0x04] ; mov  [esp+0x00], eax ; call  [0x643CB174] ; (1 found)
0x643c2d8c: sbb al, 0x01 ; add byte [eax], al ; add byte [ecx-0x7CF47415], cl ; ret ; (1 found)
0x643c3616: sbb al, 0x0F ; mov dh, 0xC0 ; neg eax ; ret ; (1 found)
0x643c1e1a: sbb al, 0x24 ; call  [ebx+0x10] ; (1 found)
0x643c328c: sbb al, 0x24 ; call esi ; (1 found)
0x643c32a1: sbb al, 0x24 ; call esi ; (1 found)
0x643c32b6: sbb al, 0x24 ; call esi ; (1 found)
0x643c32cb: sbb al, 0x24 ; call esi ; (1 found)
0x643c32e0: sbb al, 0x24 ; call esi ; (1 found)
0x643c333f: sbb al, 0x24 ; call esi ; (1 found)
0x643c3354: sbb al, 0x24 ; call esi ; (1 found)
0x643c3369: sbb al, 0x24 ; call esi ; (1 found)
0x643c337e: sbb al, 0x24 ; call esi ; (1 found)
0x643c3393: sbb al, 0x24 ; call esi ; (1 found)
0x643c1ffe: sbb al, 0x24 ; mov  [esp+0x04], eax ; call  [0x643C902C] ; (1 found)
0x643c1fc7: sbb al, 0x24 ; mov  [esp+0x08], eax ; call  [ebx+0x10] ; (1 found)
0x643c1780: sbb al, 0x24 ; mov  [esp+0x08], eax ; mov  [esp+0x04], esi ; call  [ebx+0x10] ; (1 found)
0x643c40a2: sbb al, 0x31 ; neg byte [ebx-0x77] ; lock pop esi ; pop edi ; pop ebp ; ret ; (1 found)
0x643c1c55: sbb al, 0x39 ; mov esp, 0x00008024 ; add byte [ebp-0x76], bh ; call  [0x643CB188] ; (1 found)
0x643c3dc7: sbb al, 0x5B ; pop esi ; pop edi ; pop ebp ; ret ; (1 found)
0x643c2591: sbb al, 0x83 ; retn 0xF60C ; (1 found)
0x643c4094: sbb al, 0x89 ; fimul word [ecx+0x5F5E5BF0] ; pop ebp ; ret ; (1 found)
0x643c12c3: sbb al, 0x89 ; lock pop ebx ; pop esi ; pop edi ; pop ebp ; ret ; (1 found)
0x643c4037: sbb al, 0x89 ; lock pop ebx ; pop esi ; pop edi ; pop ebp ; ret ; (1 found)
0x643c2150: sbb al, 0xC3 ; call  [0x643CB188] ; (1 found)
0x643c3f5e: sbb al, 0xC3 ; mov  [esp+0x00], 0x643C93E8 ; call  [0x643CB140] ; (1 found)
0x643c1505: sbb bh, al ; add al, 0x24 ; add byte [eax+0x3C], ah ; call  [fs:0x643CB130] ; (1 found)
0x643c2de3: sbb bh, al ; inc esp ; and al, 0x04 ; and  [eax+0x3C], 0x24348964 ; call  [0x643CB1A0] ; (1 found)
0x643c1037: sbb byte [eax+0x00000001], bh ; pop ebx ; ret ; (1 found)
0x643c3877: sbb byte [eax+0x00000001], bh ; pop ebx ; retn 0x000C ; (1 found)
0x643c38a5: sbb byte [eax+0x00000001], bh ; pop ebx ; retn 0x000C ; (1 found)
0x643c1e22: sbb byte [ebx+0x5E5B3CC4], al ; pop edi ; pop ebp ; ret ; (1 found)
0x643c192f: sbb byte [ebx+0x5E5B5CC4], al ; pop edi ; pop ebp ; ret ; (1 found)
0x643c1c03: sbb byte [ebx-0x0776A33C], al ; pop ebx ; pop esi ; pop edi ; pop ebp ; ret ; (1 found)
0x643c39eb: sbb byte [ecx+ecx*4], al ; add al, 0x24 ; call  [0x643CB174] ; (1 found)
0x643c1030: sbb byte [ecx], dh ; rcr byte [ebx-0x3D], 0x83 ; les ebx,  [eax] ; mov eax, 0x00000001 ; pop ebx ; ret ; (1 found)
0x643c3e63: sbb byte [ecx], dh ; rcr byte [ebx-0x3D], 0x90 ; lea esi,  [esi+0x00000000] ; mov  [esp+0x00], 0x643C93E8 ; call  [0x643CB110] ; (1 found)
0x643c3434: sbb eax,  [ebx+0x5E5B14C4] ; ret ; (1 found)
0x643c21ec: sbb eax, 0x643C5004 ; add esp, 0x14 ; mov eax, ebx ; pop ebx ; pop esi ; ret ; (1 found)
0x643c3e21: sbb eax, 0x643C93E0 ; mov  [esp+0x00], 0x643C93E8 ; mov  [ebx+0x08], eax ; call  [0x643CB14C] ; (1 found)
0x643c1459: sbb eax, 0x643CB130 ; mov  [esp+0x00], 0x643C6000 ; call ebx ; (1 found)
0x643c2e89: sbb eax, 0x643CB1A0 ; call ebx ; (1 found)
0x643c3108: sbb eax, 0x643CB1A0 ; call ebx ; (1 found)
0x643c3178: sbb eax, 0x643CB1A4 ; call ebx ; (1 found)
0x643c3611: sete al ; add esp, 0x1C ; movzx eax, al ; neg eax ; ret ; (1 found)
0x643c3fa6: sete al ; movzx eax, al ; ret ; (1 found)
0x643c342f: shl byte [esp+edi+0x00], 0x64 ; mov  [ebx], ebx ; add esp, 0x14 ; pop ebx ; pop esi ; ret ; (1 found)
0x643c4223: shr eax, 0x1F ; add esp, 0x08 ; ret ; (1 found)
0x643c33f2: sldt word [eax] ; call esi ; (1 found)
0x643c30ab: stosb ; pushad ; cmp al, 0x64 ; mov  [esp+0x00], ebp ; call ebx ; (1 found)
0x643c14bf: sub  [eax+0x3C], esp ; call ebx ; (1 found)
0x643c3097: sub al, 0x24 ; call ebx ; (1 found)
0x643c30b0: sub al, 0x24 ; call ebx ; (1 found)
0x643c30c9: sub al, 0x24 ; call ebx ; (1 found)
0x643c3128: sub al, 0x24 ; call ebx ; (1 found)
0x643c3141: sub al, 0x24 ; call ebx ; (1 found)
0x643c31af: sub al, 0x24 ; call ebx ; (1 found)
0x643c31f7: sub al, 0x24 ; call esi ; (1 found)
0x643c223c: sub al, 0x24 ; mov  [esp+0x08], eax ; call  [ebp+0x10] ; (1 found)
0x643c2e86: sub al, 0x24 ; mov ebx,  [0x643CB1A0] ; call ebx ; (1 found)
0x643c3105: sub al, 0x24 ; mov ebx,  [0x643CB1A0] ; call ebx ; (1 found)
0x643c3175: sub al, 0x24 ; mov ebx,  [0x643CB1A4] ; call ebx ; (1 found)
0x643c22ce: sub al, 0x5B ; pop esi ; pop edi ; pop ebp ; ret ; (1 found)
0x643c36ec: sub al, 0x5B ; pop esi ; pop edi ; pop ebp ; ret ; (1 found)
0x643c3759: sub al, 0x5B ; pop esi ; pop edi ; pop ebp ; ret ; (1 found)
0x643c3004: sub al, 0x89 ; inc esp ; and al, 0x04 ; mov eax,  [edx] ; mov  [esp+0x00], eax ; call  [0x643CB11C] ; (1 found)
0x643c1790: sub al, 0x89 ; ret ; (1 found)
0x643c3294: sub al, 0x90 ; cmp al, 0x64 ; mov  [esp+0x04], 0x643C6107 ; mov  [esp+0x00], ebx ; call esi ; (1 found)
0x643c3347: sub al, 0x90 ; cmp al, 0x64 ; mov  [esp+0x04], 0x643C6107 ; mov  [esp+0x00], ebx ; call esi ; (1 found)
0x643c2e76: sub bh, byte [esp+0x00] ; mov  [esp+0x14], edx ; mov  [esp+0x04], 0x643C609D ; mov  [esp+0x00], ebp ; mov ebx,  [0x643CB1A0] ; call ebx ; (1 found)
0x643c32a9: sub byte [eax+0x44C7643C], dl ; and al, 0x04 ; and eax, 0x89643C61 ; sbb al, 0x24 ; call esi ; (1 found)
0x643c335c: sub byte [eax+0x44C7643C], dl ; and al, 0x04 ; and eax, 0x89643C61 ; sbb al, 0x24 ; call esi ; (1 found)
0x643c3d8c: sub byte [ebp+0x038B0076], cl ; mov  [esp+0x00], eax ; call ebp ; (1 found)
0x643c3714: sub byte [ecx-0x38769BC4], dh ; call  [0x643CB13C] ; (1 found)
0x643c35da: sub byte [ecx-0x6F3CA428], cl ; mov eax,  [esp+0x30] ; mov  [esp+0x00], eax ; call  [0x643CB198] ; (1 found)
0x643c214b: sub byte [edi+0x04], bh ; add esp, 0x1C ; ret ; (1 found)
0x643c30f5: sub byte [esp+0x00], bh ; mov  [esp+0x14], edx ; mov  [esp+0x04], 0x643C60B5 ; mov  [esp+0x00], ebp ; mov ebx,  [0x643CB1A0] ; call ebx ; (1 found)
0x643c17a6: sub eax,  [eax] ; add byte [ebx-0x2776BF3C], al ; pop ebx ; pop esi ; pop edi ; ret ; (1 found)
0x643c11ae: sub ebx, 0x04 ; call edx ; (1 found)
0x643c11af: sub ebx, 0x04 ; call edx ; (1 found)
0x643c4302: sub ecx, eax ; or  [ecx], 0x00000000 ; pop eax ; pop ecx ; ret ; (1 found)
0x643c1474: sub edi, eax ; add al, 0x24 ; add byte [eax+0x3C], ah ; call  [fs:0x643CB150] ; (1 found)
0x643c3e38: sub esp, 0x04 ; add esp, 0x18 ; pop ebx ; ret ; (1 found)
0x643c3ead: sub esp, 0x04 ; add esp, 0x18 ; xor eax, eax ; pop ebx ; ret ; (1 found)
0x643c3eae: sub esp, 0x04 ; add esp, 0x18 ; xor eax, eax ; pop ebx ; ret ; (1 found)
0x643c37d4: sub esp, 0x04 ; call  [0x643CB120] ; (1 found)
0x643c37d5: sub esp, 0x04 ; call  [0x643CB120] ; (1 found)
0x643c1553: sub esp, 0x04 ; leave ; ret ; (1 found)
0x643c1554: sub esp, 0x04 ; leave ; ret ; (1 found)
0x643c3e1c: sub esp, 0x04 ; mov  [0x643C93E0], ebx ; mov  [esp+0x00], 0x643C93E8 ; mov  [ebx+0x08], eax ; call  [0x643CB14C] ; (1 found)
0x643c3e1d: sub esp, 0x04 ; mov  [0x643C93E0], ebx ; mov  [esp+0x00], 0x643C93E8 ; mov  [ebx+0x08], eax ; call  [0x643CB14C] ; (1 found)
0x643c1481: sub esp, 0x04 ; mov  [0x643C9404], eax ; mov  [esp+0x04], 0x643C6013 ; mov  [esp+0x00], esi ; call  [0x643CB134] ; (1 found)
0x643c1482: sub esp, 0x04 ; mov  [0x643C9404], eax ; mov  [esp+0x04], 0x643C6013 ; mov  [esp+0x00], esi ; call  [0x643CB134] ; (1 found)
0x643c37c4: sub esp, 0x04 ; mov  [esp+0x00], 0x643C6E54 ; call  [0x643CB16C] ; (1 found)
0x643c37c5: sub esp, 0x04 ; mov  [esp+0x00], 0x643C6E54 ; call  [0x643CB16C] ; (1 found)
0x643c36fe: sub esp, 0x04 ; mov ebx,  [esp+0x10] ; xor ebx,  [esp+0x14] ; call  [0x643CB124] ; (1 found)
0x643c36ff: sub esp, 0x04 ; mov ebx,  [esp+0x10] ; xor ebx,  [esp+0x14] ; call  [0x643CB124] ; (1 found)
0x643c3d97: sub esp, 0x04 ; mov esi, eax ; call edi ; (1 found)
0x643c32cf: sub esp, 0x08 ; mov  [0x643C9020], eax ; mov  [esp+0x04], 0x643C6151 ; mov  [esp+0x00], ebx ; call esi ; (1 found)
0x643c3382: sub esp, 0x08 ; mov  [0x643C9020], eax ; mov  [esp+0x04], 0x643C6151 ; mov  [esp+0x00], ebx ; call esi ; (1 found)
0x643c32ba: sub esp, 0x08 ; mov  [0x643C9024], eax ; mov  [esp+0x04], 0x643C6142 ; mov  [esp+0x00], ebx ; call esi ; (1 found)
0x643c336d: sub esp, 0x08 ; mov  [0x643C9024], eax ; mov  [esp+0x04], 0x643C6142 ; mov  [esp+0x00], ebx ; call esi ; (1 found)
0x643c32a5: sub esp, 0x08 ; mov  [0x643C9028], eax ; mov  [esp+0x04], 0x643C6125 ; mov  [esp+0x00], ebx ; call esi ; (1 found)
0x643c3358: sub esp, 0x08 ; mov  [0x643C9028], eax ; mov  [esp+0x04], 0x643C6125 ; mov  [esp+0x00], ebx ; call esi ; (1 found)
0x643c3290: sub esp, 0x08 ; mov  [0x643C902C], eax ; mov  [esp+0x04], 0x643C6107 ; mov  [esp+0x00], ebx ; call esi ; (1 found)
0x643c3343: sub esp, 0x08 ; mov  [0x643C902C], eax ; mov  [esp+0x04], 0x643C6107 ; mov  [esp+0x00], ebx ; call esi ; (1 found)
0x643c327b: sub esp, 0x08 ; mov  [0x643C9030], eax ; mov  [esp+0x04], 0x643C60E9 ; mov  [esp+0x00], ebx ; call esi ; (1 found)
0x643c332e: sub esp, 0x08 ; mov  [0x643C9030], eax ; mov  [esp+0x04], 0x643C60E9 ; mov  [esp+0x00], ebx ; call esi ; (1 found)
0x643c362b: sub esp, 0x0C ; nop ; call eax ; (1 found)
0x643c1455: sub esp, 0x10 ; mov ebx,  [0x643CB130] ; mov  [esp+0x00], 0x643C6000 ; call ebx ; (1 found)
0x643c3463: sub esp, 0x10 ; mov ebx,  [esp+0x20] ; mov eax,  [ebx] ; mov  [esp+0x00], eax ; call  [ebx+0x04] ; (1 found)
0x643c1503: sub esp, 0x18 ; mov  [esp+0x00], 0x643C6000 ; call  [0x643CB130] ; (1 found)
0x643c3d64: sub esp, 0x1C ; mov  [esp+0x00], 0x643C93E8 ; call  [0x643CB110] ; (1 found)
0x643c438a: test al, 0xB1 ; cmp al, 0x64 ; nop ; nop ; jmp  [0x643CB19C] ; (1 found)
0x643c2a6a: test byte [eax+0x0026748D], dl ; call  [0x643CB188] ; (1 found)
0x643c2943: test byte [eax-0x7D000000], bh ; les esp,  [eax] ; pop ebx ; pop esi ; pop edi ; ret ; (1 found)
0x643c3133: test byte [ebp+edi*8-0x01], ah ; inc edi ; inc esp ; and al, 0x04 ; retn 0x3C60 ; (1 found)
0x643c10e3: test byte [ecx+eax], cl ; add byte [eax], al ; mov  [esp+0x00], 0x000003E8 ; call edi ; (1 found)
0x643c43aa: test byte [ecx-0x6F6F9BC4], dh ; jmp  [0x643CB180] ; (1 found)
0x643c3116: test byte [ecx-0x76000003], al ; push esp ; and al, 0x14 ; mov  [esp+0x04], 0x643C60BC ; mov  [esp+0x00], ebp ; call ebx ; (1 found)
0x643c31ed: test byte [esi-0x76FFFFFF], dh ; inc esp ; and al, 0x04 ; mov  [esp+0x00], ebp ; call esi ; (1 found)
0x643c41cc: test eax, eax ; mov eax, 0x643C0000 ; cmovne ebx, eax ; mov eax, ebx ; pop ebx ; ret ; (1 found)
0x643c360f: test eax, eax ; sete al ; add esp, 0x1C ; movzx eax, al ; neg eax ; ret ; (1 found)
0x643c2e97: test esi, ebp ; add  [eax], eax ; add byte [ebx-0x16FEFBB6], al ; retn 0x0000 ; (1 found)
0x643c218e: xchg eax, ebp ; ret ; (1 found)
0x643c3a42: xchg eax, ebx ; cmp al, 0x64 ; add  [ebx+0x5E5B30C4], eax ; pop edi ; ret ; (1 found)
0x643c3f2b: xchg eax, ebx ; cmp al, 0x64 ; add byte [eax], al ; add byte [eax], al ; mov  [esp+0x00], 0x643C93E8 ; call  [0x643CB10C] ; (1 found)
0x643c3f36: xchg eax, ebx ; cmp al, 0x64 ; call  [0x643CB10C] ; (1 found)
0x643c3d6b: xchg eax, ebx ; cmp al, 0x64 ; call  [0x643CB110] ; (1 found)
0x643c3e74: xchg eax, ebx ; cmp al, 0x64 ; call  [0x643CB110] ; (1 found)
0x643c3f64: xchg eax, ebx ; cmp al, 0x64 ; call  [0x643CB140] ; (1 found)
0x643c3db9: xchg eax, ebx ; cmp al, 0x64 ; call  [0x643CB14C] ; (1 found)
0x643c3ea5: xchg eax, ebx ; cmp al, 0x64 ; call  [0x643CB14C] ; (1 found)
0x643c3ed2: xchg eax, ebx ; cmp al, 0x64 ; call  [0x643CB14C] ; (1 found)
0x643c3e2a: xchg eax, ebx ; cmp al, 0x64 ; mov  [ebx+0x08], eax ; call  [0x643CB14C] ; (1 found)
0x643c3e06: xchg eax, ebx ; cmp al, 0x64 ; mov  [ebx], eax ; mov eax,  [esp+0x24] ; mov  [ebx+0x04], eax ; call  [0x643CB110] ; (1 found)
0x643c3e23: xchg eax, ebx ; cmp al, 0x64 ; mov  [esp+0x00], 0x643C93E8 ; mov  [ebx+0x08], eax ; call  [0x643CB14C] ; (1 found)
0x643c39e6: xchg eax, ebx ; cmp al, 0x64 ; mov eax,  [eax+ebx+0x04] ; mov  [esp+0x00], eax ; call  [0x643CB174] ; (1 found)
0x643c3170: xchg eax, edi ; pushad ; cmp al, 0x64 ; mov  [esp+0x00], ebp ; mov ebx,  [0x643CB1A4] ; call ebx ; (1 found)
0x643c1487: xchg eax, esp ; cmp al, 0x64 ; mov  [esp+0x04], 0x643C6013 ; mov  [esp+0x00], esi ; call  [0x643CB134] ; (1 found)
0x643c439a: xchg eax, esp ; mov cl, 0x3C ; nop ; nop ; jmp  [0x643CB18C] ; (1 found)
0x643c3612: xchg eax, esp ; rol byte [ebx-0x49F0E33C], 0xC0 ; neg eax ; ret ; (1 found)
0x643c3272: xlatb ; pushad ; cmp al, 0x64 ; mov  [esp+0x00], eax ; call esi ; (1 found)
0x643c3325: xlatb ; pushad ; cmp al, 0x64 ; mov  [esp+0x00], eax ; call esi ; (1 found)
0x643c1493: xor al, 0x24 ; call  [0x643CB134] ; (1 found)
0x643c2ded: xor al, 0x24 ; call  [0x643CB1A0] ; (1 found)
0x643c2eb2: xor al, 0x24 ; call  [0x643CB1A0] ; (1 found)
0x643c2ed9: xor al, 0x24 ; call  [0x643CB1A0] ; (1 found)
0x643c3daa: xor al, 0x24 ; call eax ; (1 found)
0x643c34c5: xor al, 0x89 ; inc esp ; and al, 0x04 ; mov eax,  [ebx] ; mov  [esp+0x00], eax ; call  [ebx+0x08] ; (1 found)
0x643c326a: xor al, 0xB1 ; cmp al, 0x64 ; mov  [esp+0x04], 0x643C60D7 ; mov  [esp+0x00], eax ; call esi ; (1 found)
0x643c331d: xor al, 0xB1 ; cmp al, 0x64 ; mov  [esp+0x04], 0x643C60D7 ; mov  [esp+0x00], eax ; call esi ; (1 found)
0x643c202e: xor byte [eax-0x00000001], bh ; pop ebx ; pop esi ; pop edi ; ret ; (1 found)
0x643c201b: xor byte [ebx+0x5E], bl ; pop edi ; ret ; (1 found)
0x643c3a48: xor byte [ebx+0x5E], bl ; pop edi ; ret ; (1 found)
0x643c145a: xor byte [ecx+0x04C7643C], dh ; and al, 0x00 ; pushad ; cmp al, 0x64 ; call ebx ; (1 found)
0x643c35e3: xor byte [ecx+0x15FF2404], cl ; cwde ; mov cl, 0x3C ; add esp, 0x28 ; pop ebx ; ret ; (1 found)
0x643c27d1: xor byte [ecx+0x4C892414], cl ; and al, 0x08 ; call eax ; (1 found)
0x643c2654: xor byte [ecx-0x76F3DBAC], cl ; add al, 0x24 ; call  [esi+0x3C] ; (1 found)
0x643c3269: xor eax, 0x643CB134 ; mov  [esp+0x04], 0x643C60D7 ; mov  [esp+0x00], eax ; call esi ; (1 found)
0x643c331c: xor eax, 0x643CB134 ; mov  [esp+0x04], 0x643C60D7 ; mov  [esp+0x00], eax ; call esi ; (1 found)
0x643c33d0: xor eax, 0x643CB188 ; call esi ; (1 found)
0x643c3083: xor eax, eax ; pop ebx ; pop esi ; pop edi ; pop ebp ; ret ; (1 found)
0x643c30e3: xor eax, eax ; pop ebx ; pop esi ; pop edi ; pop ebp ; ret ; (1 found)
0x643c4008: xor eax, eax ; pop ebx ; pop esi ; ret ; (1 found)
0x643c1031: xor eax, eax ; pop ebx ; ret ; (1 found)
0x643c3e64: xor eax, eax ; pop ebx ; ret ; (1 found)
0x643c3eb4: xor eax, eax ; pop ebx ; ret ; (1 found)
0x643c1560: xor eax, eax ; ret ; (1 found)
0x643c38d0: xor eax, eax ; ret ; (1 found)
0x643c3f9b: xor eax, eax ; ret ; (1 found)
0x643c3fbb: xor eax, eax ; ret ; (1 found)
0x643c3e35: xor eax, eax ; sub esp, 0x04 ; add esp, 0x18 ; pop ebx ; ret ; (1 found)
0x643c3e36: xor eax, eax ; sub esp, 0x04 ; add esp, 0x18 ; pop ebx ; ret ; (1 found)
0x643c3706: xor ebx,  [esp+0x14] ; call  [0x643CB124] ; (1 found)
0x643c42d3: xor edi, edi ; mov eax, edi ; pop ebx ; pop esi ; pop edi ; ret ; (1 found)
0x643c4197: xor esi, esi ; mov eax, esi ; pop ebx ; pop esi ; ret ; (1 found)
