
./ch16:     file format elf32-i386


Disassembly of section .init:

00000480 <_init>:
 480:	53                   	push   ebx
 481:	83 ec 08             	sub    esp,0x8
 484:	e8 07 01 00 00       	call   590 <__x86.get_pc_thunk.bx>
 489:	81 c3 77 1b 00 00    	add    ebx,0x1b77
 48f:	8b 83 ec ff ff ff    	mov    eax,DWORD PTR [ebx-0x14]
 495:	85 c0                	test   eax,eax
 497:	74 05                	je     49e <_init+0x1e>
 499:	e8 aa 00 00 00       	call   548 <__gmon_start__@plt>
 49e:	83 c4 08             	add    esp,0x8
 4a1:	5b                   	pop    ebx
 4a2:	c3                   	ret    

Disassembly of section .plt:

000004b0 <.plt>:
 4b0:	ff b3 04 00 00 00    	push   DWORD PTR [ebx+0x4]
 4b6:	ff a3 08 00 00 00    	jmp    DWORD PTR [ebx+0x8]
 4bc:	00 00                	add    BYTE PTR [eax],al
	...

000004c0 <read@plt>:
 4c0:	ff a3 0c 00 00 00    	jmp    DWORD PTR [ebx+0xc]
 4c6:	68 00 00 00 00       	push   0x0
 4cb:	e9 e0 ff ff ff       	jmp    4b0 <.plt>

000004d0 <printf@plt>:
 4d0:	ff a3 10 00 00 00    	jmp    DWORD PTR [ebx+0x10]
 4d6:	68 08 00 00 00       	push   0x8
 4db:	e9 d0 ff ff ff       	jmp    4b0 <.plt>

000004e0 <fflush@plt>:
 4e0:	ff a3 14 00 00 00    	jmp    DWORD PTR [ebx+0x14]
 4e6:	68 10 00 00 00       	push   0x10
 4eb:	e9 c0 ff ff ff       	jmp    4b0 <.plt>

000004f0 <puts@plt>:
 4f0:	ff a3 18 00 00 00    	jmp    DWORD PTR [ebx+0x18]
 4f6:	68 18 00 00 00       	push   0x18
 4fb:	e9 b0 ff ff ff       	jmp    4b0 <.plt>

00000500 <system@plt>:
 500:	ff a3 1c 00 00 00    	jmp    DWORD PTR [ebx+0x1c]
 506:	68 20 00 00 00       	push   0x20
 50b:	e9 a0 ff ff ff       	jmp    4b0 <.plt>

00000510 <__libc_start_main@plt>:
 510:	ff a3 20 00 00 00    	jmp    DWORD PTR [ebx+0x20]
 516:	68 28 00 00 00       	push   0x28
 51b:	e9 90 ff ff ff       	jmp    4b0 <.plt>

00000520 <putchar@plt>:
 520:	ff a3 24 00 00 00    	jmp    DWORD PTR [ebx+0x24]
 526:	68 30 00 00 00       	push   0x30
 52b:	e9 80 ff ff ff       	jmp    4b0 <.plt>

00000530 <fileno@plt>:
 530:	ff a3 28 00 00 00    	jmp    DWORD PTR [ebx+0x28]
 536:	68 38 00 00 00       	push   0x38
 53b:	e9 70 ff ff ff       	jmp    4b0 <.plt>

Disassembly of section .plt.got:

00000540 <__cxa_finalize@plt>:
 540:	ff a3 e8 ff ff ff    	jmp    DWORD PTR [ebx-0x18]
 546:	66 90                	xchg   ax,ax

00000548 <__gmon_start__@plt>:
 548:	ff a3 ec ff ff ff    	jmp    DWORD PTR [ebx-0x14]
 54e:	66 90                	xchg   ax,ax

Disassembly of section .text:

00000550 <_start>:
 550:	31 ed                	xor    ebp,ebp
 552:	5e                   	pop    esi
 553:	89 e1                	mov    ecx,esp
 555:	83 e4 f0             	and    esp,0xfffffff0
 558:	50                   	push   eax
 559:	54                   	push   esp
 55a:	52                   	push   edx
 55b:	e8 22 00 00 00       	call   582 <_start+0x32>
 560:	81 c3 a0 1a 00 00    	add    ebx,0x1aa0
 566:	8d 83 40 e8 ff ff    	lea    eax,[ebx-0x17c0]
 56c:	50                   	push   eax
 56d:	8d 83 e0 e7 ff ff    	lea    eax,[ebx-0x1820]
 573:	50                   	push   eax
 574:	51                   	push   ecx
 575:	56                   	push   esi
 576:	ff b3 f8 ff ff ff    	push   DWORD PTR [ebx-0x8]
 57c:	e8 8f ff ff ff       	call   510 <__libc_start_main@plt>
 581:	f4                   	hlt    
 582:	8b 1c 24             	mov    ebx,DWORD PTR [esp]
 585:	c3                   	ret    
 586:	66 90                	xchg   ax,ax
 588:	66 90                	xchg   ax,ax
 58a:	66 90                	xchg   ax,ax
 58c:	66 90                	xchg   ax,ax
 58e:	66 90                	xchg   ax,ax

00000590 <__x86.get_pc_thunk.bx>:
 590:	8b 1c 24             	mov    ebx,DWORD PTR [esp]
 593:	c3                   	ret    
 594:	66 90                	xchg   ax,ax
 596:	66 90                	xchg   ax,ax
 598:	66 90                	xchg   ax,ax
 59a:	66 90                	xchg   ax,ax
 59c:	66 90                	xchg   ax,ax
 59e:	66 90                	xchg   ax,ax

000005a0 <deregister_tm_clones>:
 5a0:	e8 e4 00 00 00       	call   689 <__x86.get_pc_thunk.dx>
 5a5:	81 c2 5b 1a 00 00    	add    edx,0x1a5b
 5ab:	8d 8a 34 00 00 00    	lea    ecx,[edx+0x34]
 5b1:	8d 82 34 00 00 00    	lea    eax,[edx+0x34]
 5b7:	39 c8                	cmp    eax,ecx
 5b9:	74 1d                	je     5d8 <deregister_tm_clones+0x38>
 5bb:	8b 82 e4 ff ff ff    	mov    eax,DWORD PTR [edx-0x1c]
 5c1:	85 c0                	test   eax,eax
 5c3:	74 13                	je     5d8 <deregister_tm_clones+0x38>
 5c5:	55                   	push   ebp
 5c6:	89 e5                	mov    ebp,esp
 5c8:	83 ec 14             	sub    esp,0x14
 5cb:	51                   	push   ecx
 5cc:	ff d0                	call   eax
 5ce:	83 c4 10             	add    esp,0x10
 5d1:	c9                   	leave  
 5d2:	c3                   	ret    
 5d3:	90                   	nop
 5d4:	8d 74 26 00          	lea    esi,[esi+eiz*1+0x0]
 5d8:	f3 c3                	repz ret 
 5da:	8d b6 00 00 00 00    	lea    esi,[esi+0x0]

000005e0 <register_tm_clones>:
 5e0:	e8 a4 00 00 00       	call   689 <__x86.get_pc_thunk.dx>
 5e5:	81 c2 1b 1a 00 00    	add    edx,0x1a1b
 5eb:	55                   	push   ebp
 5ec:	8d 8a 34 00 00 00    	lea    ecx,[edx+0x34]
 5f2:	8d 82 34 00 00 00    	lea    eax,[edx+0x34]
 5f8:	29 c8                	sub    eax,ecx
 5fa:	89 e5                	mov    ebp,esp
 5fc:	53                   	push   ebx
 5fd:	c1 f8 02             	sar    eax,0x2
 600:	89 c3                	mov    ebx,eax
 602:	83 ec 04             	sub    esp,0x4
 605:	c1 eb 1f             	shr    ebx,0x1f
 608:	01 d8                	add    eax,ebx
 60a:	d1 f8                	sar    eax,1
 60c:	74 14                	je     622 <register_tm_clones+0x42>
 60e:	8b 92 fc ff ff ff    	mov    edx,DWORD PTR [edx-0x4]
 614:	85 d2                	test   edx,edx
 616:	74 0a                	je     622 <register_tm_clones+0x42>
 618:	83 ec 08             	sub    esp,0x8
 61b:	50                   	push   eax
 61c:	51                   	push   ecx
 61d:	ff d2                	call   edx
 61f:	83 c4 10             	add    esp,0x10
 622:	8b 5d fc             	mov    ebx,DWORD PTR [ebp-0x4]
 625:	c9                   	leave  
 626:	c3                   	ret    
 627:	89 f6                	mov    esi,esi
 629:	8d bc 27 00 00 00 00 	lea    edi,[edi+eiz*1+0x0]

00000630 <__do_global_dtors_aux>:
 630:	55                   	push   ebp
 631:	89 e5                	mov    ebp,esp
 633:	53                   	push   ebx
 634:	e8 57 ff ff ff       	call   590 <__x86.get_pc_thunk.bx>
 639:	81 c3 c7 19 00 00    	add    ebx,0x19c7
 63f:	83 ec 04             	sub    esp,0x4
 642:	80 bb 34 00 00 00 00 	cmp    BYTE PTR [ebx+0x34],0x0
 649:	75 27                	jne    672 <__do_global_dtors_aux+0x42>
 64b:	8b 83 e8 ff ff ff    	mov    eax,DWORD PTR [ebx-0x18]
 651:	85 c0                	test   eax,eax
 653:	74 11                	je     666 <__do_global_dtors_aux+0x36>
 655:	83 ec 0c             	sub    esp,0xc
 658:	ff b3 30 00 00 00    	push   DWORD PTR [ebx+0x30]
 65e:	e8 dd fe ff ff       	call   540 <__cxa_finalize@plt>
 663:	83 c4 10             	add    esp,0x10
 666:	e8 35 ff ff ff       	call   5a0 <deregister_tm_clones>
 66b:	c6 83 34 00 00 00 01 	mov    BYTE PTR [ebx+0x34],0x1
 672:	8b 5d fc             	mov    ebx,DWORD PTR [ebp-0x4]
 675:	c9                   	leave  
 676:	c3                   	ret    
 677:	89 f6                	mov    esi,esi
 679:	8d bc 27 00 00 00 00 	lea    edi,[edi+eiz*1+0x0]

00000680 <frame_dummy>:
 680:	55                   	push   ebp
 681:	89 e5                	mov    ebp,esp
 683:	5d                   	pop    ebp
 684:	e9 57 ff ff ff       	jmp    5e0 <register_tm_clones>

00000689 <__x86.get_pc_thunk.dx>:
 689:	8b 14 24             	mov    edx,DWORD PTR [esp]
 68c:	c3                   	ret    

0000068d <main>:
 68d:	8d 4c 24 04          	lea    ecx,[esp+0x4]
 691:	83 e4 f0             	and    esp,0xfffffff0
 694:	ff 71 fc             	push   DWORD PTR [ecx-0x4]
 697:	55                   	push   ebp
 698:	89 e5                	mov    ebp,esp
 69a:	53                   	push   ebx
 69b:	51                   	push   ecx
 69c:	83 ec 50             	sub    esp,0x50
 69f:	e8 ec fe ff ff       	call   590 <__x86.get_pc_thunk.bx>
 6a4:	81 c3 5c 19 00 00    	add    ebx,0x195c
 6aa:	c7 45 ac 00 00 00 00 	mov    DWORD PTR [ebp-0x54],0x0
 6b1:	c7 45 f4 00 00 00 00 	mov    DWORD PTR [ebp-0xc],0x0
 6b8:	83 ec 0c             	sub    esp,0xc
 6bb:	8d 83 60 e8 ff ff    	lea    eax,[ebx-0x17a0]
 6c1:	50                   	push   eax
 6c2:	e8 09 fe ff ff       	call   4d0 <printf@plt>
 6c7:	83 c4 10             	add    esp,0x10
 6ca:	8b 83 f4 ff ff ff    	mov    eax,DWORD PTR [ebx-0xc]
 6d0:	8b 00                	mov    eax,DWORD PTR [eax]
 6d2:	83 ec 0c             	sub    esp,0xc
 6d5:	50                   	push   eax
 6d6:	e8 05 fe ff ff       	call   4e0 <fflush@plt>
 6db:	83 c4 10             	add    esp,0x10
 6de:	83 7d f4 3f          	cmp    DWORD PTR [ebp-0xc],0x3f
 6e2:	7e 12                	jle    6f6 <main+0x69>
 6e4:	83 ec 0c             	sub    esp,0xc
 6e7:	8d 83 72 e8 ff ff    	lea    eax,[ebx-0x178e]
 6ed:	50                   	push   eax
 6ee:	e8 fd fd ff ff       	call   4f0 <puts@plt>
 6f3:	83 c4 10             	add    esp,0x10
 6f6:	81 7d f0 bc fa ff bf 	cmp    DWORD PTR [ebp-0x10],0xbffffabc
 6fd:	75 07                	jne    706 <main+0x79>
 6ff:	e8 ad 00 00 00       	call   7b1 <shell>
 704:	eb d8                	jmp    6de <main+0x51>
 706:	8b 83 f0 ff ff ff    	mov    eax,DWORD PTR [ebx-0x10]
 70c:	8b 00                	mov    eax,DWORD PTR [eax]
 70e:	83 ec 0c             	sub    esp,0xc
 711:	50                   	push   eax
 712:	e8 19 fe ff ff       	call   530 <fileno@plt>
 717:	83 c4 10             	add    esp,0x10
 71a:	89 c2                	mov    edx,eax
 71c:	83 ec 04             	sub    esp,0x4
 71f:	6a 01                	push   0x1
 721:	8d 45 ac             	lea    eax,[ebp-0x54]
 724:	50                   	push   eax
 725:	52                   	push   edx
 726:	e8 95 fd ff ff       	call   4c0 <read@plt>
 72b:	83 c4 10             	add    esp,0x10
 72e:	8b 45 ac             	mov    eax,DWORD PTR [ebp-0x54]
 731:	83 f8 08             	cmp    eax,0x8
 734:	74 29                	je     75f <main+0xd2>
 736:	83 f8 08             	cmp    eax,0x8
 739:	7f 07                	jg     742 <main+0xb5>
 73b:	83 f8 04             	cmp    eax,0x4
 73e:	74 32                	je     772 <main+0xe5>
 740:	eb 56                	jmp    798 <main+0x10b>
 742:	83 f8 0a             	cmp    eax,0xa
 745:	74 09                	je     750 <main+0xc3>
 747:	3d 90 00 00 00       	cmp    eax,0x90
 74c:	74 37                	je     785 <main+0xf8>
 74e:	eb 48                	jmp    798 <main+0x10b>
 750:	83 ec 0c             	sub    esp,0xc
 753:	6a 07                	push   0x7
 755:	e8 c6 fd ff ff       	call   520 <putchar@plt>
 75a:	83 c4 10             	add    esp,0x10
 75d:	eb 4d                	jmp    7ac <main+0x11f>
 75f:	83 6d f4 01          	sub    DWORD PTR [ebp-0xc],0x1
 763:	83 ec 0c             	sub    esp,0xc
 766:	6a 08                	push   0x8
 768:	e8 b3 fd ff ff       	call   520 <putchar@plt>
 76d:	83 c4 10             	add    esp,0x10
 770:	eb 3a                	jmp    7ac <main+0x11f>
 772:	83 ec 0c             	sub    esp,0xc
 775:	6a 09                	push   0x9
 777:	e8 a4 fd ff ff       	call   520 <putchar@plt>
 77c:	83 c4 10             	add    esp,0x10
 77f:	83 45 f4 01          	add    DWORD PTR [ebp-0xc],0x1
 783:	eb 27                	jmp    7ac <main+0x11f>
 785:	83 ec 0c             	sub    esp,0xc
 788:	6a 07                	push   0x7
 78a:	e8 91 fd ff ff       	call   520 <putchar@plt>
 78f:	83 c4 10             	add    esp,0x10
 792:	83 45 f4 01          	add    DWORD PTR [ebp-0xc],0x1
 796:	eb 14                	jmp    7ac <main+0x11f>
 798:	8b 45 ac             	mov    eax,DWORD PTR [ebp-0x54]
 79b:	89 c1                	mov    ecx,eax
 79d:	8d 55 b0             	lea    edx,[ebp-0x50]
 7a0:	8b 45 f4             	mov    eax,DWORD PTR [ebp-0xc]
 7a3:	01 d0                	add    eax,edx
 7a5:	88 08                	mov    BYTE PTR [eax],cl
 7a7:	83 45 f4 01          	add    DWORD PTR [ebp-0xc],0x1
 7ab:	90                   	nop
 7ac:	e9 2d ff ff ff       	jmp    6de <main+0x51>

000007b1 <shell>:
 7b1:	55                   	push   ebp
 7b2:	89 e5                	mov    ebp,esp
 7b4:	53                   	push   ebx
 7b5:	83 ec 04             	sub    esp,0x4
 7b8:	e8 1f 00 00 00       	call   7dc <__x86.get_pc_thunk.ax>
 7bd:	05 43 18 00 00       	add    eax,0x1843
 7c2:	83 ec 0c             	sub    esp,0xc
 7c5:	8d 90 82 e8 ff ff    	lea    edx,[eax-0x177e]
 7cb:	52                   	push   edx
 7cc:	89 c3                	mov    ebx,eax
 7ce:	e8 2d fd ff ff       	call   500 <system@plt>
 7d3:	83 c4 10             	add    esp,0x10
 7d6:	90                   	nop
 7d7:	8b 5d fc             	mov    ebx,DWORD PTR [ebp-0x4]
 7da:	c9                   	leave  
 7db:	c3                   	ret    

000007dc <__x86.get_pc_thunk.ax>:
 7dc:	8b 04 24             	mov    eax,DWORD PTR [esp]
 7df:	c3                   	ret    

000007e0 <__libc_csu_init>:
 7e0:	55                   	push   ebp
 7e1:	57                   	push   edi
 7e2:	56                   	push   esi
 7e3:	53                   	push   ebx
 7e4:	e8 a7 fd ff ff       	call   590 <__x86.get_pc_thunk.bx>
 7e9:	81 c3 17 18 00 00    	add    ebx,0x1817
 7ef:	83 ec 0c             	sub    esp,0xc
 7f2:	8b 6c 24 20          	mov    ebp,DWORD PTR [esp+0x20]
 7f6:	8d b3 f0 fe ff ff    	lea    esi,[ebx-0x110]
 7fc:	e8 7f fc ff ff       	call   480 <_init>
 801:	8d 83 ec fe ff ff    	lea    eax,[ebx-0x114]
 807:	29 c6                	sub    esi,eax
 809:	c1 fe 02             	sar    esi,0x2
 80c:	85 f6                	test   esi,esi
 80e:	74 25                	je     835 <__libc_csu_init+0x55>
 810:	31 ff                	xor    edi,edi
 812:	8d b6 00 00 00 00    	lea    esi,[esi+0x0]
 818:	83 ec 04             	sub    esp,0x4
 81b:	ff 74 24 2c          	push   DWORD PTR [esp+0x2c]
 81f:	ff 74 24 2c          	push   DWORD PTR [esp+0x2c]
 823:	55                   	push   ebp
 824:	ff 94 bb ec fe ff ff 	call   DWORD PTR [ebx+edi*4-0x114]
 82b:	83 c7 01             	add    edi,0x1
 82e:	83 c4 10             	add    esp,0x10
 831:	39 fe                	cmp    esi,edi
 833:	75 e3                	jne    818 <__libc_csu_init+0x38>
 835:	83 c4 0c             	add    esp,0xc
 838:	5b                   	pop    ebx
 839:	5e                   	pop    esi
 83a:	5f                   	pop    edi
 83b:	5d                   	pop    ebp
 83c:	c3                   	ret    
 83d:	8d 76 00             	lea    esi,[esi+0x0]

00000840 <__libc_csu_fini>:
 840:	f3 c3                	repz ret 

Disassembly of section .fini:

00000844 <_fini>:
 844:	53                   	push   ebx
 845:	83 ec 08             	sub    esp,0x8
 848:	e8 43 fd ff ff       	call   590 <__x86.get_pc_thunk.bx>
 84d:	81 c3 b3 17 00 00    	add    ebx,0x17b3
 853:	83 c4 08             	add    esp,0x8
 856:	5b                   	pop    ebx
 857:	c3                   	ret    
